
output/libat/at_ipCmd.o:     file format elf32-xtensa-le


Disassembly of section .text.at_cipsendbuf_filter:

00000000 <.text.at_cipsendbuf_filter>:
	...
	0: R_XTENSA_32	.data.at_linkMax
	4: R_XTENSA_32	pLink
   8:	08 02 00 00 		8: R_XTENSA_32	.irom.text
   c:	00 00 00 00 		c: R_XTENSA_32	at_port_print
  10:	fffc31        	l32r	a3, 0 <.text.at_cipsendbuf_filter>	10: R_XTENSA_SLOT0_OP	.text.at_cipsendbuf_filter
  13:	f0c112        	addi	a1, a1, -16
  16:	3109      	s32i.n	a0, a1, 12
  18:	000342        	l8ui	a4, a3, 0
  1b:	030c      	movi.n	a3, 0
  1d:	21b247        	bgeu	a2, a4, 42 <.text.at_cipsendbuf_filter+0x42>	1d: R_XTENSA_SLOT0_OP	.text.at_cipsendbuf_filter+0x42
  20:	b03220        	addx8	a3, a2, a2
  23:	902320        	addx2	a2, a3, a2
  26:	fff731        	l32r	a3, 4 <.text.at_cipsendbuf_filter+0x4>	26: R_XTENSA_SLOT0_OP	.text.at_cipsendbuf_filter+0x4
  29:	002332        	l32i	a3, a3, 0
  2c:	a02230        	addx4	a2, a2, a3
  2f:	030222        	l8ui	a2, a2, 3
  32:	130c      	movi.n	a3, 1
  34:	0a9237        	bne	a2, a3, 42 <.text.at_cipsendbuf_filter+0x42>	34: R_XTENSA_SLOT0_OP	.text.at_cipsendbuf_filter+0x42
  37:	fff421        	l32r	a2, 8 <.text.at_cipsendbuf_filter+0x8>	37: R_XTENSA_SLOT0_OP	.text.at_cipsendbuf_filter+0x8
  3a:	fff401        	l32r	a0, c <.text.at_cipsendbuf_filter+0xc>	3a: R_XTENSA_SLOT0_OP	.text.at_cipsendbuf_filter+0xc
	3a: R_XTENSA_ASM_EXPAND	at_port_print
  3d:	0000c0        	callx0	a0
  40:	030c      	movi.n	a3, 0
  42:	3108      	l32i.n	a0, a1, 12
  44:	032d      	mov.n	a2, a3
  46:	10c112        	addi	a1, a1, 16
  49:	f00d      	ret.n

Disassembly of section .text.at_gethostbyname_cb:

00000000 <.text.at_gethostbyname_cb>:
	...
	0: R_XTENSA_32	specialAtState
	4: R_XTENSA_32	at_state
   8:	20 00 00 00 		8: R_XTENSA_32	.irom.text
	...
	c: R_XTENSA_32	.rodata.str1.1
	10: R_XTENSA_32	at_port_print
	14: R_XTENSA_32	at_response_error
	18: R_XTENSA_32	ets_sprintf
	1c: R_XTENSA_32	at_port_print
	20: R_XTENSA_32	at_response_ok
  24:	fff721        	l32r	a2, 0 <.text.at_gethostbyname_cb>	24: R_XTENSA_SLOT0_OP	.text.at_gethostbyname_cb
  27:	b0c112        	addi	a1, a1, -80
  2a:	136102        	s32i	a0, a1, 76
  2d:	140c      	movi.n	a4, 1
  2f:	004242        	s8i	a4, a2, 0
  32:	fff421        	l32r	a2, 4 <.text.at_gethostbyname_cb+0x4>	32: R_XTENSA_SLOT0_OP	.text.at_gethostbyname_cb+0x4
  35:	040c      	movi.n	a4, 0
  37:	0249      	s32i.n	a4, a2, 0
  39:	149347        	bne	a3, a4, 51 <.text.at_gethostbyname_cb+0x51>	39: R_XTENSA_SLOT0_OP	.text.at_gethostbyname_cb+0x51
  3c:	fff321        	l32r	a2, 8 <.text.at_gethostbyname_cb+0x8>	3c: R_XTENSA_SLOT0_OP	.text.at_gethostbyname_cb+0x8
  3f:	fff401        	l32r	a0, 10 <.text.at_gethostbyname_cb+0x10>	3f: R_XTENSA_SLOT0_OP	.text.at_gethostbyname_cb+0x10
	3f: R_XTENSA_ASM_EXPAND	at_port_print
  42:	0000c0        	callx0	a0
  45:	fff301        	l32r	a0, 14 <.text.at_gethostbyname_cb+0x14>	45: R_XTENSA_SLOT0_OP	.text.at_gethostbyname_cb+0x14
	45: R_XTENSA_ASM_EXPAND	at_response_error
  48:	0000c0        	callx0	a0
  4b:	0009c6        	j	76 <.text.at_gethostbyname_cb+0x76>	4b: R_XTENSA_SLOT0_OP	.text.at_gethostbyname_cb+0x76
  4e:	00          	.byte 00
  4f:	00          	.byte 00
  50:	00          	.byte 00
  51:	030372        	l8ui	a7, a3, 3
  54:	020362        	l8ui	a6, a3, 2
  57:	010352        	l8ui	a5, a3, 1
  5a:	000342        	l8ui	a4, a3, 0
  5d:	ffeb31        	l32r	a3, c <.text.at_gethostbyname_cb+0xc>	5d: R_XTENSA_SLOT0_OP	.text.at_gethostbyname_cb+0xc
  60:	012d      	mov.n	a2, a1
  62:	ffed01        	l32r	a0, 18 <.text.at_gethostbyname_cb+0x18>	62: R_XTENSA_SLOT0_OP	.text.at_gethostbyname_cb+0x18
	62: R_XTENSA_ASM_EXPAND	ets_sprintf
  65:	0000c0        	callx0	a0
  68:	012d      	mov.n	a2, a1
  6a:	ffec01        	l32r	a0, 1c <.text.at_gethostbyname_cb+0x1c>	6a: R_XTENSA_SLOT0_OP	.text.at_gethostbyname_cb+0x1c
	6a: R_XTENSA_ASM_EXPAND	at_port_print
  6d:	0000c0        	callx0	a0
  70:	ffec01        	l32r	a0, 20 <.text.at_gethostbyname_cb+0x20>	70: R_XTENSA_SLOT0_OP	.text.at_gethostbyname_cb+0x20
	70: R_XTENSA_ASM_EXPAND	at_response_ok
  73:	0000c0        	callx0	a0
  76:	132102        	l32i	a0, a1, 76
  79:	50c112        	addi	a1, a1, 80
  7c:	f00d      	ret.n

Disassembly of section .text.at_tcpclient_recv:

00000000 <at_tcpclient_recv-0x3c>:
	...
	0: R_XTENSA_32	.bss.at_recv_mode
	4: R_XTENSA_32	IPMODE
	8: R_XTENSA_32	at_ipMux
   c:	19 00 00 00 		c: R_XTENSA_32	.rodata.str1.1
  10:	28 00 00 00 		10: R_XTENSA_32	.rodata.str1.1
  14:	00 00 00 00 		14: R_XTENSA_32	esp_at_backlog_link
  18:	3c 07 00 00 		18: R_XTENSA_32	.irom.text
  1c:	f0 06 00 00 		1c: R_XTENSA_32	.irom.text
	...
	20: R_XTENSA_32	ets_sprintf
	24: R_XTENSA_32	ets_sprintf
	28: R_XTENSA_32	at_port_print
	2c: R_XTENSA_32	pvPortMalloc
	30: R_XTENSA_32	pvPortMalloc
	34: R_XTENSA_32	read_data_from_espconn
	38: R_XTENSA_32	os_printf_plus

0000003c <at_tcpclient_recv>:
  3c:	c0c112        	addi	a1, a1, -64
  3f:	b1f9      	s32i.n	a15, a1, 44
  41:	f109      	s32i.n	a0, a1, 60
  43:	e1c9      	s32i.n	a12, a1, 56
  45:	d1d9      	s32i.n	a13, a1, 52
  47:	c1e9      	s32i.n	a14, a1, 48
  49:	f4f040        	extui	a15, a4, 0, 16
  4c:	0a9216        	beqz	a2, f9 <at_tcpclient_recv+0xbd>	4c: R_XTENSA_SLOT0_OP	.text.at_tcpclient_recv+0xf9
  4f:	62e8      	l32i.n	a14, a2, 24
  51:	ffeb21        	l32r	a2, 0 <at_tcpclient_recv-0x3c>	51: R_XTENSA_SLOT0_OP	.text.at_tcpclient_recv
  54:	000222        	l8ui	a2, a2, 0
  57:	3d1266        	bnei	a2, 1, 98 <at_tcpclient_recv+0x5c>	57: R_XTENSA_SLOT0_OP	.text.at_tcpclient_recv+0x98
  5a:	ffea21        	l32r	a2, 4 <at_tcpclient_recv-0x38>	5a: R_XTENSA_SLOT0_OP	.text.at_tcpclient_recv+0x4
  5d:	000222        	l8ui	a2, a2, 0
  60:	341226        	beqi	a2, 1, 98 <at_tcpclient_recv+0x5c>	60: R_XTENSA_SLOT0_OP	.text.at_tcpclient_recv+0x98
  63:	ffe921        	l32r	a2, 8 <at_tcpclient_recv-0x34>	63: R_XTENSA_SLOT0_OP	.text.at_tcpclient_recv+0x8
  66:	000222        	l8ui	a2, a2, 0
  69:	329c      	beqz.n	a2, 80 <at_tcpclient_recv+0x44>	69: R_XTENSA_SLOT0_OP	.text.at_tcpclient_recv+0x80
  6b:	020e42        	l8ui	a4, a14, 2
  6e:	ffe731        	l32r	a3, c <at_tcpclient_recv-0x30>	6e: R_XTENSA_SLOT0_OP	.text.at_tcpclient_recv+0xc
  71:	0f5d      	mov.n	a5, a15
  73:	202110        	or	a2, a1, a1
  76:	ffea01        	l32r	a0, 20 <at_tcpclient_recv-0x1c>	76: R_XTENSA_SLOT0_OP	.text.at_tcpclient_recv+0x20
	76: R_XTENSA_ASM_EXPAND	ets_sprintf
  79:	0000c0        	callx0	a0
  7c:	000346        	j	8d <at_tcpclient_recv+0x51>	7c: R_XTENSA_SLOT0_OP	.text.at_tcpclient_recv+0x8d
  7f:	00          	.byte 00
  80:	ffe431        	l32r	a3, 10 <at_tcpclient_recv-0x2c>	80: R_XTENSA_SLOT0_OP	.text.at_tcpclient_recv+0x10
  83:	0f4d      	mov.n	a4, a15
  85:	012d      	mov.n	a2, a1
  87:	ffe701        	l32r	a0, 24 <at_tcpclient_recv-0x18>	87: R_XTENSA_SLOT0_OP	.text.at_tcpclient_recv+0x24
	87: R_XTENSA_ASM_EXPAND	ets_sprintf
  8a:	0000c0        	callx0	a0
  8d:	012d      	mov.n	a2, a1
  8f:	ffe601        	l32r	a0, 28 <at_tcpclient_recv-0x14>	8f: R_XTENSA_SLOT0_OP	.text.at_tcpclient_recv+0x28
	8f: R_XTENSA_ASM_EXPAND	at_port_print
  92:	0000c0        	callx0	a0
  95:	001806        	j	f9 <at_tcpclient_recv+0xbd>	95: R_XTENSA_SLOT0_OP	.text.at_tcpclient_recv+0xf9
  98:	ffdf21        	l32r	a2, 14 <at_tcpclient_recv-0x28>	98: R_XTENSA_SLOT0_OP	.text.at_tcpclient_recv+0x14
  9b:	02c8      	l32i.n	a12, a2, 0
  9d:	02dd      	mov.n	a13, a2
  9f:	9cdc      	bnez.n	a12, bc <at_tcpclient_recv+0x80>	9f: R_XTENSA_SLOT0_OP	.text.at_tcpclient_recv+0xbc
  a1:	ffdd31        	l32r	a3, 18 <at_tcpclient_recv-0x24>	a1: R_XTENSA_SLOT0_OP	.text.at_tcpclient_recv+0x18
  a4:	050c      	movi.n	a5, 0
  a6:	dda142        	movi	a4, 0x1dd
  a9:	820c      	movi.n	a2, 8
  ab:	ffe001        	l32r	a0, 2c <at_tcpclient_recv-0x10>	ab: R_XTENSA_SLOT0_OP	.text.at_tcpclient_recv+0x2c
	ab: R_XTENSA_ASM_EXPAND	pvPortMalloc
  ae:	0000c0        	callx0	a0
  b1:	0d29      	s32i.n	a2, a13, 0
  b3:	0007c6        	j	d6 <at_tcpclient_recv+0x9a>	b3: R_XTENSA_SLOT0_OP	.text.at_tcpclient_recv+0xd6
  b6:	1c28      	l32i.n	a2, a12, 4
  b8:	828c      	beqz.n	a2, c4 <at_tcpclient_recv+0x88>	b8: R_XTENSA_SLOT0_OP	.text.at_tcpclient_recv+0xc4
  ba:	02cd      	mov.n	a12, a2
  bc:	0c28      	l32i.n	a2, a12, 0
  be:	1e1e27        	beq	a14, a2, e0 <at_tcpclient_recv+0xa4>	be: R_XTENSA_SLOT0_OP	.text.at_tcpclient_recv+0xe0
  c1:	fffc46        	j	b6 <at_tcpclient_recv+0x7a>	c1: R_XTENSA_SLOT0_OP	.text.at_tcpclient_recv+0xb6
  c4:	ffd531        	l32r	a3, 18 <at_tcpclient_recv-0x24>	c4: R_XTENSA_SLOT0_OP	.text.at_tcpclient_recv+0x18
  c7:	050c      	movi.n	a5, 0
  c9:	e5a142        	movi	a4, 0x1e5
  cc:	820c      	movi.n	a2, 8
  ce:	ffd801        	l32r	a0, 30 <at_tcpclient_recv-0xc>	ce: R_XTENSA_SLOT0_OP	.text.at_tcpclient_recv+0x30
	ce: R_XTENSA_ASM_EXPAND	pvPortMalloc
  d1:	0000c0        	callx0	a0
  d4:	1c29      	s32i.n	a2, a12, 4
  d6:	629c      	beqz.n	a2, f0 <at_tcpclient_recv+0xb4>	d6: R_XTENSA_SLOT0_OP	.text.at_tcpclient_recv+0xf0
  d8:	030c      	movi.n	a3, 0
  da:	02e9      	s32i.n	a14, a2, 0
  dc:	1239      	s32i.n	a3, a2, 4
  de:	02cd      	mov.n	a12, a2
  e0:	0c28      	l32i.n	a2, a12, 0
  e2:	82f9      	s32i.n	a15, a2, 32
  e4:	020c      	movi.n	a2, 0
  e6:	ffd301        	l32r	a0, 34 <at_tcpclient_recv-0x8>	e6: R_XTENSA_SLOT0_OP	.text.at_tcpclient_recv+0x34
	e6: R_XTENSA_ASM_EXPAND	read_data_from_espconn
  e9:	0000c0        	callx0	a0
  ec:	000246        	j	f9 <at_tcpclient_recv+0xbd>	ec: R_XTENSA_SLOT0_OP	.text.at_tcpclient_recv+0xf9
  ef:	00          	.byte 00
  f0:	ffcb21        	l32r	a2, 1c <at_tcpclient_recv-0x20>	f0: R_XTENSA_SLOT0_OP	.text.at_tcpclient_recv+0x1c
  f3:	ffd101        	l32r	a0, 38 <at_tcpclient_recv-0x4>	f3: R_XTENSA_SLOT0_OP	.text.at_tcpclient_recv+0x38
	f3: R_XTENSA_ASM_EXPAND	os_printf_plus
  f6:	0000c0        	callx0	a0
  f9:	f108      	l32i.n	a0, a1, 60
  fb:	e1c8      	l32i.n	a12, a1, 56
  fd:	d1d8      	l32i.n	a13, a1, 52
  ff:	c1e8      	l32i.n	a14, a1, 48
 101:	b1f8      	l32i.n	a15, a1, 44
 103:	40c112        	addi	a1, a1, 64
 106:	f00d      	ret.n

Disassembly of section .text.at_sslclient_recv:

00000000 <at_sslclient_recv-0x4c>:
   0:	00 00 00 00 		0: R_XTENSA_32	IPMODE
   4:	3c 07 00 00 		4: R_XTENSA_32	.irom.text
	...
	8: R_XTENSA_32	ipd_info_enable
	c: R_XTENSA_32	at_ipMux
  10:	34 00 00 00 		10: R_XTENSA_32	.rodata.str1.1
  14:	51 00 00 00 		14: R_XTENSA_32	.rodata.str1.1
  18:	6b 00 00 00 		18: R_XTENSA_32	.rodata.str1.1
  1c:	79 00 00 00 		1c: R_XTENSA_32	.rodata.str1.1
  20:	da 06 00 00 		20: R_XTENSA_32	.irom.text
	...
	24: R_XTENSA_32	pvPortZalloc
	28: R_XTENSA_32	ets_sprintf
	2c: R_XTENSA_32	ets_sprintf
	30: R_XTENSA_32	ets_sprintf
	34: R_XTENSA_32	ets_sprintf
	38: R_XTENSA_32	ets_strlen
	3c: R_XTENSA_32	ets_memcpy
	40: R_XTENSA_32	tx_buff_enq
	44: R_XTENSA_32	vPortFree
	48: R_XTENSA_32	os_printf_plus

0000004c <at_sslclient_recv>:
  4c:	c0c112        	addi	a1, a1, -64
  4f:	d1d9      	s32i.n	a13, a1, 52
  51:	f109      	s32i.n	a0, a1, 60
  53:	e1c9      	s32i.n	a12, a1, 56
  55:	c1e9      	s32i.n	a14, a1, 48
  57:	b1f9      	s32i.n	a15, a1, 44
  59:	4139      	s32i.n	a3, a1, 16
  5b:	025d      	mov.n	a5, a2
  5d:	f4d040        	extui	a13, a4, 0, 16
  60:	0fc216        	beqz	a2, 160 <at_sslclient_recv+0x114>	60: R_XTENSA_SLOT0_OP	.text.at_sslclient_recv+0x160
  63:	ffe721        	l32r	a2, 0 <at_sslclient_recv-0x4c>	63: R_XTENSA_SLOT0_OP	.text.at_sslclient_recv
  66:	000222        	l8ui	a2, a2, 0
  69:	021266        	bnei	a2, 1, 6f <at_sslclient_recv+0x23>	69: R_XTENSA_SLOT0_OP	.text.at_sslclient_recv+0x6f
  6c:	003c06        	j	160 <at_sslclient_recv+0x114>	6c: R_XTENSA_SLOT0_OP	.text.at_sslclient_recv+0x160
  6f:	ffe5e1        	l32r	a14, 4 <at_sslclient_recv-0x48>	6f: R_XTENSA_SLOT0_OP	.text.at_sslclient_recv+0x4
  72:	40cd62        	addi	a6, a13, 64
  75:	062d      	mov.n	a2, a6
  77:	05a242        	movi	a4, 0x205
  7a:	0e3d      	mov.n	a3, a14
  7c:	65f8      	l32i.n	a15, a5, 24
  7e:	6159      	s32i.n	a5, a1, 24
  80:	5169      	s32i.n	a6, a1, 20
  82:	ffe801        	l32r	a0, 24 <at_sslclient_recv-0x28>	82: R_XTENSA_SLOT0_OP	.text.at_sslclient_recv+0x24
	82: R_XTENSA_ASM_EXPAND	pvPortZalloc
  85:	0000c0        	callx0	a0
  88:	02cd      	mov.n	a12, a2
  8a:	6158      	l32i.n	a5, a1, 24
  8c:	5168      	l32i.n	a6, a1, 20
  8e:	0c3216        	beqz	a2, 155 <at_sslclient_recv+0x109>	8e: R_XTENSA_SLOT0_OP	.text.at_sslclient_recv+0x155
  91:	ffdd21        	l32r	a2, 8 <at_sslclient_recv-0x44>	91: R_XTENSA_SLOT0_OP	.text.at_sslclient_recv+0x8
  94:	000232        	l8ui	a3, a2, 0
  97:	ffdd21        	l32r	a2, c <at_sslclient_recv-0x40>	97: R_XTENSA_SLOT0_OP	.text.at_sslclient_recv+0xc
  9a:	051316        	beqz	a3, ef <at_sslclient_recv+0xa3>	9a: R_XTENSA_SLOT0_OP	.text.at_sslclient_recv+0xef
  9d:	000232        	l8ui	a3, a2, 0
  a0:	2528      	l32i.n	a2, a5, 8
  a2:	73ac      	beqz.n	a3, cd <at_sslclient_recv+0x81>	a2: R_XTENSA_SLOT0_OP	.text.at_sslclient_recv+0xcd
  a4:	0238      	l32i.n	a3, a2, 0
  a6:	0d0272        	l8ui	a7, a2, 13
  a9:	0c0262        	l8ui	a6, a2, 12
  ac:	020f42        	l8ui	a4, a15, 2
  af:	2139      	s32i.n	a3, a1, 8
  b1:	0f0232        	l8ui	a3, a2, 15
  b4:	0d5d      	mov.n	a5, a13
  b6:	1139      	s32i.n	a3, a1, 4
  b8:	0e0222        	l8ui	a2, a2, 14
  bb:	ffd531        	l32r	a3, 10 <at_sslclient_recv-0x3c>	bb: R_XTENSA_SLOT0_OP	.text.at_sslclient_recv+0x10
  be:	0129      	s32i.n	a2, a1, 0
  c0:	0c2d      	mov.n	a2, a12
  c2:	ffd901        	l32r	a0, 28 <at_sslclient_recv-0x24>	c2: R_XTENSA_SLOT0_OP	.text.at_sslclient_recv+0x28
	c2: R_XTENSA_ASM_EXPAND	ets_sprintf
  c5:	0000c0        	callx0	a0
  c8:	001246        	j	115 <at_sslclient_recv+0xc9>	c8: R_XTENSA_SLOT0_OP	.text.at_sslclient_recv+0x115
  cb:	00          	.byte 00
  cc:	00          	.byte 00
  cd:	0238      	l32i.n	a3, a2, 0
  cf:	0e0272        	l8ui	a7, a2, 14
  d2:	0d0262        	l8ui	a6, a2, 13
  d5:	0c0252        	l8ui	a5, a2, 12
  d8:	1139      	s32i.n	a3, a1, 4
  da:	0f0222        	l8ui	a2, a2, 15
  dd:	ffcd31        	l32r	a3, 14 <at_sslclient_recv-0x38>	dd: R_XTENSA_SLOT0_OP	.text.at_sslclient_recv+0x14
  e0:	0129      	s32i.n	a2, a1, 0
  e2:	0d4d      	mov.n	a4, a13
  e4:	0c2d      	mov.n	a2, a12
  e6:	ffd101        	l32r	a0, 2c <at_sslclient_recv-0x20>	e6: R_XTENSA_SLOT0_OP	.text.at_sslclient_recv+0x2c
	e6: R_XTENSA_ASM_EXPAND	ets_sprintf
  e9:	0000c0        	callx0	a0
  ec:	000946        	j	115 <at_sslclient_recv+0xc9>	ec: R_XTENSA_SLOT0_OP	.text.at_sslclient_recv+0x115
  ef:	000222        	l8ui	a2, a2, 0
  f2:	229c      	beqz.n	a2, 108 <at_sslclient_recv+0xbc>	f2: R_XTENSA_SLOT0_OP	.text.at_sslclient_recv+0x108
  f4:	020f42        	l8ui	a4, a15, 2
  f7:	ffc831        	l32r	a3, 18 <at_sslclient_recv-0x34>	f7: R_XTENSA_SLOT0_OP	.text.at_sslclient_recv+0x18
  fa:	0d5d      	mov.n	a5, a13
  fc:	0c2d      	mov.n	a2, a12
  fe:	ffcc01        	l32r	a0, 30 <at_sslclient_recv-0x1c>	fe: R_XTENSA_SLOT0_OP	.text.at_sslclient_recv+0x30
	fe: R_XTENSA_ASM_EXPAND	ets_sprintf
 101:	0000c0        	callx0	a0
 104:	000346        	j	115 <at_sslclient_recv+0xc9>	104: R_XTENSA_SLOT0_OP	.text.at_sslclient_recv+0x115
 107:	00          	.byte 00
 108:	ffc531        	l32r	a3, 1c <at_sslclient_recv-0x30>	108: R_XTENSA_SLOT0_OP	.text.at_sslclient_recv+0x1c
 10b:	0d4d      	mov.n	a4, a13
 10d:	0c2d      	mov.n	a2, a12
 10f:	ffc901        	l32r	a0, 34 <at_sslclient_recv-0x18>	10f: R_XTENSA_SLOT0_OP	.text.at_sslclient_recv+0x34
	10f: R_XTENSA_ASM_EXPAND	ets_sprintf
 112:	0000c0        	callx0	a0
 115:	0c2d      	mov.n	a2, a12
 117:	ffc801        	l32r	a0, 38 <at_sslclient_recv-0x14>	117: R_XTENSA_SLOT0_OP	.text.at_sslclient_recv+0x38
	117: R_XTENSA_ASM_EXPAND	ets_strlen
 11a:	0000c0        	callx0	a0
 11d:	4138      	l32i.n	a3, a1, 16
 11f:	025d      	mov.n	a5, a2
 121:	0d4d      	mov.n	a4, a13
 123:	2c2a      	add.n	a2, a12, a2
 125:	6159      	s32i.n	a5, a1, 24
 127:	ffc501        	l32r	a0, 3c <at_sslclient_recv-0x10>	127: R_XTENSA_SLOT0_OP	.text.at_sslclient_recv+0x3c
	127: R_XTENSA_ASM_EXPAND	ets_memcpy
 12a:	0000c0        	callx0	a0
 12d:	6158      	l32i.n	a5, a1, 24
 12f:	020f22        	l8ui	a2, a15, 2
 132:	4d5a      	add.n	a4, a13, a5
 134:	0c3d      	mov.n	a3, a12
 136:	150c      	movi.n	a5, 1
 138:	f44040        	extui	a4, a4, 0, 16
 13b:	ffc101        	l32r	a0, 40 <at_sslclient_recv-0xc>	13b: R_XTENSA_SLOT0_OP	.text.at_sslclient_recv+0x40
	13b: R_XTENSA_ASM_EXPAND	tx_buff_enq
 13e:	0000c0        	callx0	a0
 141:	1aa242        	movi	a4, 0x21a
 144:	203ee0        	or	a3, a14, a14
 147:	202cc0        	or	a2, a12, a12
 14a:	ffbe01        	l32r	a0, 44 <at_sslclient_recv-0x8>	14a: R_XTENSA_SLOT0_OP	.text.at_sslclient_recv+0x44
	14a: R_XTENSA_ASM_EXPAND	vPortFree
 14d:	0000c0        	callx0	a0
 150:	000306        	j	160 <at_sslclient_recv+0x114>	150: R_XTENSA_SLOT0_OP	.text.at_sslclient_recv+0x160
 153:	00          	.byte 00
 154:	00          	.byte 00
 155:	ffb221        	l32r	a2, 20 <at_sslclient_recv-0x2c>	155: R_XTENSA_SLOT0_OP	.text.at_sslclient_recv+0x20
 158:	063d      	mov.n	a3, a6
 15a:	ffbb01        	l32r	a0, 48 <at_sslclient_recv-0x4>	15a: R_XTENSA_SLOT0_OP	.text.at_sslclient_recv+0x48
	15a: R_XTENSA_ASM_EXPAND	os_printf_plus
 15d:	0000c0        	callx0	a0
 160:	f108      	l32i.n	a0, a1, 60
 162:	e1c8      	l32i.n	a12, a1, 56
 164:	d1d8      	l32i.n	a13, a1, 52
 166:	c1e8      	l32i.n	a14, a1, 48
 168:	b1f8      	l32i.n	a15, a1, 44
 16a:	40c112        	addi	a1, a1, 64
 16d:	f00d      	ret.n

Disassembly of section .text.at_udpclient_recv:

00000000 <at_udpclient_recv-0x5c>:
   0:	00 00 00 00 		0: R_XTENSA_32	IPMODE
   4:	3c 07 00 00 		4: R_XTENSA_32	.irom.text
	...
	8: R_XTENSA_32	ipd_info_enable
	c: R_XTENSA_32	at_ipMux
  10:	34 00 00 00 		10: R_XTENSA_32	.rodata.str1.1
  14:	51 00 00 00 		14: R_XTENSA_32	.rodata.str1.1
  18:	6b 00 00 00 		18: R_XTENSA_32	.rodata.str1.1
  1c:	79 00 00 00 		1c: R_XTENSA_32	.rodata.str1.1
	...
	20: R_XTENSA_32	tx_buff_enq
	24: R_XTENSA_32	pvPortZalloc
	28: R_XTENSA_32	espconn_get_connection_info
	2c: R_XTENSA_32	ets_sprintf
	30: R_XTENSA_32	ets_sprintf
	34: R_XTENSA_32	ets_sprintf
	38: R_XTENSA_32	ets_sprintf
	3c: R_XTENSA_32	ets_strlen
	40: R_XTENSA_32	ets_memcpy
	44: R_XTENSA_32	tx_buff_enq
	48: R_XTENSA_32	vPortFree
	4c: R_XTENSA_32	ets_memcpy
	50: R_XTENSA_32	ets_memcpy
	54: R_XTENSA_32	ets_memcpy
	58: R_XTENSA_32	ets_memcpy

0000005c <at_udpclient_recv>:
  5c:	b0c112        	addi	a1, a1, -80
  5f:	1061e2        	s32i	a14, a1, 64
  62:	f1f9      	s32i.n	a15, a1, 60
  64:	136102        	s32i	a0, a1, 76
  67:	1261c2        	s32i	a12, a1, 72
  6a:	1161d2        	s32i	a13, a1, 68
  6d:	8139      	s32i.n	a3, a1, 32
  6f:	02fd      	mov.n	a15, a2
  71:	f4e040        	extui	a14, a4, 0, 16
  74:	174216        	beqz	a2, 1ec <at_udpclient_recv+0x190>	74: R_XTENSA_SLOT0_OP	.text.at_udpclient_recv+0x1ec
  77:	62c8      	l32i.n	a12, a2, 24
  79:	ffe121        	l32r	a2, 0 <at_udpclient_recv-0x5c>	79: R_XTENSA_SLOT0_OP	.text.at_udpclient_recv
  7c:	050c      	movi.n	a5, 0
  7e:	000222        	l8ui	a2, a2, 0
  81:	101266        	bnei	a2, 1, 95 <at_udpclient_recv+0x39>	81: R_XTENSA_SLOT0_OP	.text.at_udpclient_recv+0x95
  84:	204ee0        	or	a4, a14, a14
  87:	202550        	or	a2, a5, a5
  8a:	ffe501        	l32r	a0, 20 <at_udpclient_recv-0x3c>	8a: R_XTENSA_SLOT0_OP	.text.at_udpclient_recv+0x20
	8a: R_XTENSA_ASM_EXPAND	tx_buff_enq
  8d:	0000c0        	callx0	a0
  90:	005606        	j	1ec <at_udpclient_recv+0x190>	90: R_XTENSA_SLOT0_OP	.text.at_udpclient_recv+0x1ec
  93:	00          	.byte 00
  94:	00          	.byte 00
  95:	ffdb31        	l32r	a3, 4 <at_udpclient_recv-0x58>	95: R_XTENSA_SLOT0_OP	.text.at_udpclient_recv+0x4
  98:	62a242        	movi	a4, 0x262
  9b:	40ce22        	addi	a2, a14, 64
  9e:	4159      	s32i.n	a5, a1, 16
  a0:	9159      	s32i.n	a5, a1, 36
  a2:	ffe001        	l32r	a0, 24 <at_udpclient_recv-0x38>	a2: R_XTENSA_SLOT0_OP	.text.at_udpclient_recv+0x24
	a2: R_XTENSA_ASM_EXPAND	pvPortZalloc
  a5:	0000c0        	callx0	a0
  a8:	9158      	l32i.n	a5, a1, 36
  aa:	02dd      	mov.n	a13, a2
  ac:	054d      	mov.n	a4, a5
  ae:	10c132        	addi	a3, a1, 16
  b1:	0f2d      	mov.n	a2, a15
  b3:	ffdd01        	l32r	a0, 28 <at_udpclient_recv-0x34>	b3: R_XTENSA_SLOT0_OP	.text.at_udpclient_recv+0x28
	b3: R_XTENSA_ASM_EXPAND	espconn_get_connection_info
  b6:	0000c0        	callx0	a0
  b9:	742020        	extui	a2, a2, 0, 8
  bc:	12c256        	bnez	a2, 1ec <at_udpclient_recv+0x190>	bc: R_XTENSA_SLOT0_OP	.text.at_udpclient_recv+0x1ec
  bf:	0bdd16        	beqz	a13, 180 <at_udpclient_recv+0x124>	bf: R_XTENSA_SLOT0_OP	.text.at_udpclient_recv+0x180
  c2:	ffd121        	l32r	a2, 8 <at_udpclient_recv-0x54>	c2: R_XTENSA_SLOT0_OP	.text.at_udpclient_recv+0x8
  c5:	000232        	l8ui	a3, a2, 0
  c8:	ffd121        	l32r	a2, c <at_udpclient_recv-0x50>	c8: R_XTENSA_SLOT0_OP	.text.at_udpclient_recv+0xc
  cb:	051316        	beqz	a3, 120 <at_udpclient_recv+0xc4>	cb: R_XTENSA_SLOT0_OP	.text.at_udpclient_recv+0x120
  ce:	000232        	l8ui	a3, a2, 0
  d1:	4128      	l32i.n	a2, a1, 16
  d3:	63ac      	beqz.n	a3, fd <at_udpclient_recv+0xa1>	d3: R_XTENSA_SLOT0_OP	.text.at_udpclient_recv+0xfd
  d5:	1238      	l32i.n	a3, a2, 4
  d7:	090272        	l8ui	a7, a2, 9
  da:	080262        	l8ui	a6, a2, 8
  dd:	020c42        	l8ui	a4, a12, 2
  e0:	2139      	s32i.n	a3, a1, 8
  e2:	0b0232        	l8ui	a3, a2, 11
  e5:	0e5d      	mov.n	a5, a14
  e7:	1139      	s32i.n	a3, a1, 4
  e9:	0a0222        	l8ui	a2, a2, 10
  ec:	ffc931        	l32r	a3, 10 <at_udpclient_recv-0x4c>	ec: R_XTENSA_SLOT0_OP	.text.at_udpclient_recv+0x10
  ef:	0129      	s32i.n	a2, a1, 0
  f1:	0d2d      	mov.n	a2, a13
  f3:	ffce01        	l32r	a0, 2c <at_udpclient_recv-0x30>	f3: R_XTENSA_SLOT0_OP	.text.at_udpclient_recv+0x2c
	f3: R_XTENSA_ASM_EXPAND	ets_sprintf
  f6:	0000c0        	callx0	a0
  f9:	001206        	j	145 <at_udpclient_recv+0xe9>	f9: R_XTENSA_SLOT0_OP	.text.at_udpclient_recv+0x145
  fc:	00          	.byte 00
  fd:	1238      	l32i.n	a3, a2, 4
  ff:	0a0272        	l8ui	a7, a2, 10
 102:	090262        	l8ui	a6, a2, 9
 105:	080252        	l8ui	a5, a2, 8
 108:	1139      	s32i.n	a3, a1, 4
 10a:	0b0222        	l8ui	a2, a2, 11
 10d:	ffc131        	l32r	a3, 14 <at_udpclient_recv-0x48>	10d: R_XTENSA_SLOT0_OP	.text.at_udpclient_recv+0x14
 110:	0129      	s32i.n	a2, a1, 0
 112:	0e4d      	mov.n	a4, a14
 114:	0d2d      	mov.n	a2, a13
 116:	ffc601        	l32r	a0, 30 <at_udpclient_recv-0x2c>	116: R_XTENSA_SLOT0_OP	.text.at_udpclient_recv+0x30
	116: R_XTENSA_ASM_EXPAND	ets_sprintf
 119:	0000c0        	callx0	a0
 11c:	000946        	j	145 <at_udpclient_recv+0xe9>	11c: R_XTENSA_SLOT0_OP	.text.at_udpclient_recv+0x145
 11f:	00          	.byte 00
 120:	000222        	l8ui	a2, a2, 0
 123:	129c      	beqz.n	a2, 138 <at_udpclient_recv+0xdc>	123: R_XTENSA_SLOT0_OP	.text.at_udpclient_recv+0x138
 125:	020c42        	l8ui	a4, a12, 2
 128:	ffbc31        	l32r	a3, 18 <at_udpclient_recv-0x44>	128: R_XTENSA_SLOT0_OP	.text.at_udpclient_recv+0x18
 12b:	0e5d      	mov.n	a5, a14
 12d:	0d2d      	mov.n	a2, a13
 12f:	ffc101        	l32r	a0, 34 <at_udpclient_recv-0x28>	12f: R_XTENSA_SLOT0_OP	.text.at_udpclient_recv+0x34
	12f: R_XTENSA_ASM_EXPAND	ets_sprintf
 132:	0000c0        	callx0	a0
 135:	000306        	j	145 <at_udpclient_recv+0xe9>	135: R_XTENSA_SLOT0_OP	.text.at_udpclient_recv+0x145
 138:	ffb931        	l32r	a3, 1c <at_udpclient_recv-0x40>	138: R_XTENSA_SLOT0_OP	.text.at_udpclient_recv+0x1c
 13b:	0e4d      	mov.n	a4, a14
 13d:	0d2d      	mov.n	a2, a13
 13f:	ffbe01        	l32r	a0, 38 <at_udpclient_recv-0x24>	13f: R_XTENSA_SLOT0_OP	.text.at_udpclient_recv+0x38
	13f: R_XTENSA_ASM_EXPAND	ets_sprintf
 142:	0000c0        	callx0	a0
 145:	0d2d      	mov.n	a2, a13
 147:	ffbd01        	l32r	a0, 3c <at_udpclient_recv-0x20>	147: R_XTENSA_SLOT0_OP	.text.at_udpclient_recv+0x3c
	147: R_XTENSA_ASM_EXPAND	ets_strlen
 14a:	0000c0        	callx0	a0
 14d:	8138      	l32i.n	a3, a1, 32
 14f:	025d      	mov.n	a5, a2
 151:	0e4d      	mov.n	a4, a14
 153:	2d2a      	add.n	a2, a13, a2
 155:	9159      	s32i.n	a5, a1, 36
 157:	ffba01        	l32r	a0, 40 <at_udpclient_recv-0x1c>	157: R_XTENSA_SLOT0_OP	.text.at_udpclient_recv+0x40
	157: R_XTENSA_ASM_EXPAND	ets_memcpy
 15a:	0000c0        	callx0	a0
 15d:	9158      	l32i.n	a5, a1, 36
 15f:	020c22        	l8ui	a2, a12, 2
 162:	4e5a      	add.n	a4, a14, a5
 164:	f44040        	extui	a4, a4, 0, 16
 167:	0d3d      	mov.n	a3, a13
 169:	150c      	movi.n	a5, 1
 16b:	ffb601        	l32r	a0, 44 <at_udpclient_recv-0x18>	16b: R_XTENSA_SLOT0_OP	.text.at_udpclient_recv+0x44
	16b: R_XTENSA_ASM_EXPAND	tx_buff_enq
 16e:	0000c0        	callx0	a0
 171:	ffa431        	l32r	a3, 4 <at_udpclient_recv-0x58>	171: R_XTENSA_SLOT0_OP	.text.at_udpclient_recv+0x4
 174:	7ca242        	movi	a4, 0x27c
 177:	202dd0        	or	a2, a13, a13
 17a:	ffb301        	l32r	a0, 48 <at_udpclient_recv-0x14>	17a: R_XTENSA_SLOT0_OP	.text.at_udpclient_recv+0x48
	17a: R_XTENSA_ASM_EXPAND	vPortFree
 17d:	0000c0        	callx0	a0
 180:	110c22        	l8ui	a2, a12, 17
 183:	065216        	beqz	a2, 1ec <at_udpclient_recv+0x190>	183: R_XTENSA_SLOT0_OP	.text.at_udpclient_recv+0x1ec
 186:	331266        	bnei	a2, 1, 1bd <at_udpclient_recv+0x161>	186: R_XTENSA_SLOT0_OP	.text.at_udpclient_recv+0x1bd
 189:	2f28      	l32i.n	a2, a15, 8
 18b:	4138      	l32i.n	a3, a1, 16
 18d:	440c      	movi.n	a4, 4
 18f:	338b      	addi.n	a3, a3, 8
 191:	22cb      	addi.n	a2, a2, 12
 193:	ffae01        	l32r	a0, 4c <at_udpclient_recv-0x10>	193: R_XTENSA_SLOT0_OP	.text.at_udpclient_recv+0x4c
	193: R_XTENSA_ASM_EXPAND	ets_memcpy
 196:	0000c0        	callx0	a0
 199:	4138      	l32i.n	a3, a1, 16
 19b:	2f28      	l32i.n	a2, a15, 8
 19d:	1348      	l32i.n	a4, a3, 4
 19f:	338b      	addi.n	a3, a3, 8
 1a1:	0249      	s32i.n	a4, a2, 0
 1a3:	440c      	movi.n	a4, 4
 1a5:	12cc22        	addi	a2, a12, 18
 1a8:	ffaa01        	l32r	a0, 50 <at_udpclient_recv-0xc>	1a8: R_XTENSA_SLOT0_OP	.text.at_udpclient_recv+0x50
	1a8: R_XTENSA_ASM_EXPAND	ets_memcpy
 1ab:	0000c0        	callx0	a0
 1ae:	4128      	l32i.n	a2, a1, 16
 1b0:	1228      	l32i.n	a2, a2, 4
 1b2:	6c29      	s32i.n	a2, a12, 24
 1b4:	020c      	movi.n	a2, 0
 1b6:	114c22        	s8i	a2, a12, 17
 1b9:	000bc6        	j	1ec <at_udpclient_recv+0x190>	1b9: R_XTENSA_SLOT0_OP	.text.at_udpclient_recv+0x1ec
 1bc:	00          	.byte 00
 1bd:	2b2266        	bnei	a2, 2, 1ec <at_udpclient_recv+0x190>	1bd: R_XTENSA_SLOT0_OP	.text.at_udpclient_recv+0x1ec
 1c0:	2f28      	l32i.n	a2, a15, 8
 1c2:	4138      	l32i.n	a3, a1, 16
 1c4:	440c      	movi.n	a4, 4
 1c6:	338b      	addi.n	a3, a3, 8
 1c8:	22cb      	addi.n	a2, a2, 12
 1ca:	ffa201        	l32r	a0, 54 <at_udpclient_recv-0x8>	1ca: R_XTENSA_SLOT0_OP	.text.at_udpclient_recv+0x54
	1ca: R_XTENSA_ASM_EXPAND	ets_memcpy
 1cd:	0000c0        	callx0	a0
 1d0:	4138      	l32i.n	a3, a1, 16
 1d2:	2f28      	l32i.n	a2, a15, 8
 1d4:	1348      	l32i.n	a4, a3, 4
 1d6:	338b      	addi.n	a3, a3, 8
 1d8:	0249      	s32i.n	a4, a2, 0
 1da:	04a042        	movi	a4, 4
 1dd:	12cc22        	addi	a2, a12, 18
 1e0:	ff9e01        	l32r	a0, 58 <at_udpclient_recv-0x4>	1e0: R_XTENSA_SLOT0_OP	.text.at_udpclient_recv+0x58
	1e0: R_XTENSA_ASM_EXPAND	ets_memcpy
 1e3:	0000c0        	callx0	a0
 1e6:	4128      	l32i.n	a2, a1, 16
 1e8:	1228      	l32i.n	a2, a2, 4
 1ea:	6c29      	s32i.n	a2, a12, 24
 1ec:	132102        	l32i	a0, a1, 76
 1ef:	1221c2        	l32i	a12, a1, 72
 1f2:	1121d2        	l32i	a13, a1, 68
 1f5:	1021e2        	l32i	a14, a1, 64
 1f8:	f1f8      	l32i.n	a15, a1, 60
 1fa:	50c112        	addi	a1, a1, 80
 1fd:	f00d      	ret.n

Disassembly of section .text.at_dns_found:

00000000 <.text.at_dns_found>:
   0:	4f 06 00 00 		0: R_XTENSA_32	.irom.text
	...
	4: R_XTENSA_32	specialAtState
	8: R_XTENSA_32	at_state
   c:	44 06 00 00 		c: R_XTENSA_32	.irom.text
  10:	2c 06 00 00 		10: R_XTENSA_32	.irom.text
	...
	14: R_XTENSA_32	.bss.host_ip
	18: R_XTENSA_32	at_ssl_cnt
  1c:	84 00 00 00 		1c: R_XTENSA_32	.rodata.str1.1
  20:	b3 00 00 00 		20: R_XTENSA_32	.rodata.str1.1
  24:	00 00 00 00 		24: R_XTENSA_32	at_ipMux
  28:	e2 00 00 00 		28: R_XTENSA_32	.rodata.str1.1
  2c:	f4 00 00 00 		2c: R_XTENSA_32	.rodata.str1.1
  30:	3c 07 00 00 		30: R_XTENSA_32	.irom.text
  34:	00 00 00 00 		34: R_XTENSA_32	.bss.at_linkNum
  38:	03 01 00 00 		38: R_XTENSA_32	.rodata.str1.1
  3c:	32 01 00 00 		3c: R_XTENSA_32	.rodata.str1.1
  40:	61 01 00 00 		40: R_XTENSA_32	.rodata.str1.1
  44:	6e 01 00 00 		44: R_XTENSA_32	.rodata.str1.1
  48:	78 01 00 00 		48: R_XTENSA_32	.rodata.str1.1
	...
	4c: R_XTENSA_32	ets_bzero
	50: R_XTENSA_32	at_port_print
	54: R_XTENSA_32	at_port_print
	58: R_XTENSA_32	at_response_error
	5c: R_XTENSA_32	os_printf_plus
	60: R_XTENSA_32	ets_memcpy
	64: R_XTENSA_32	at_get_sys_msg_mask
	68: R_XTENSA_32	ets_sprintf
	6c: R_XTENSA_32	ets_sprintf
	70: R_XTENSA_32	ets_sprintf
	74: R_XTENSA_32	at_port_print
	78: R_XTENSA_32	vPortFree
	7c: R_XTENSA_32	vPortFree
	80: R_XTENSA_32	at_response_error
	84: R_XTENSA_32	ets_memcpy
	88: R_XTENSA_32	ets_memcpy
	8c: R_XTENSA_32	at_get_sys_msg_mask
	90: R_XTENSA_32	ets_sprintf
	94: R_XTENSA_32	ets_sprintf
	98: R_XTENSA_32	ets_sprintf
	9c: R_XTENSA_32	at_port_print
	a0: R_XTENSA_32	vPortFree
	a4: R_XTENSA_32	vPortFree
	a8: R_XTENSA_32	at_response_error
	ac: R_XTENSA_32	at_get_sys_msg_mask
	b0: R_XTENSA_32	ets_sprintf
	b4: R_XTENSA_32	at_port_print
	b8: R_XTENSA_32	ets_sprintf
	bc: R_XTENSA_32	at_port_print
	c0: R_XTENSA_32	at_response_ok
  c4:	90c112        	addi	a1, a1, -112
  c7:	1961d2        	s32i	a13, a1, 100
  ca:	1861e2        	s32i	a14, a1, 96
  cd:	04dd      	mov.n	a13, a4
  cf:	03ed      	mov.n	a14, a3
  d1:	10c122        	addi	a2, a1, 16
  d4:	034c      	movi.n	a3, 64
  d6:	1b6102        	s32i	a0, a1, 108
  d9:	1a61c2        	s32i	a12, a1, 104
  dc:	1761f2        	s32i	a15, a1, 92
  df:	ffdb01        	l32r	a0, 4c <.text.at_dns_found+0x4c>	df: R_XTENSA_SLOT0_OP	.text.at_dns_found+0x4c
	df: R_XTENSA_ASM_EXPAND	ets_bzero
  e2:	0000c0        	callx0	a0
  e5:	9ddc      	bnez.n	a13, 102 <.text.at_dns_found+0x102>	e5: R_XTENSA_SLOT0_OP	.text.at_dns_found+0x102
  e7:	ffc621        	l32r	a2, 0 <.text.at_dns_found>	e7: R_XTENSA_SLOT0_OP	.text.at_dns_found
  ea:	ffd901        	l32r	a0, 50 <.text.at_dns_found+0x50>	ea: R_XTENSA_SLOT0_OP	.text.at_dns_found+0x50
	ea: R_XTENSA_ASM_EXPAND	at_port_print
  ed:	0000c0        	callx0	a0
  f0:	ffc521        	l32r	a2, 4 <.text.at_dns_found+0x4>	f0: R_XTENSA_SLOT0_OP	.text.at_dns_found+0x4
  f3:	130c      	movi.n	a3, 1
  f5:	004232        	s8i	a3, a2, 0
  f8:	ffc421        	l32r	a2, 8 <.text.at_dns_found+0x8>	f8: R_XTENSA_SLOT0_OP	.text.at_dns_found+0x8
  fb:	030c      	movi.n	a3, 0
  fd:	0239      	s32i.n	a3, a2, 0
  ff:	0009c6        	j	12a <.text.at_dns_found+0x12a>	ff: R_XTENSA_SLOT0_OP	.text.at_dns_found+0x12a
 102:	6dc8      	l32i.n	a12, a13, 24
 104:	beec      	bnez.n	a14, 133 <.text.at_dns_found+0x133>	104: R_XTENSA_SLOT0_OP	.text.at_dns_found+0x133
 106:	020c      	movi.n	a2, 0
 108:	004c22        	s8i	a2, a12, 0
 10b:	014c22        	s8i	a2, a12, 1
 10e:	00a0d2        	movi	a13, 0
 111:	ffbe21        	l32r	a2, c <.text.at_dns_found+0xc>	111: R_XTENSA_SLOT0_OP	.text.at_dns_found+0xc
 114:	016cd2        	s32i	a13, a12, 4
 117:	ffcf01        	l32r	a0, 54 <.text.at_dns_found+0x54>	117: R_XTENSA_SLOT0_OP	.text.at_dns_found+0x54
	117: R_XTENSA_ASM_EXPAND	at_port_print
 11a:	0000c0        	callx0	a0
 11d:	ffb921        	l32r	a2, 4 <.text.at_dns_found+0x4>	11d: R_XTENSA_SLOT0_OP	.text.at_dns_found+0x4
 120:	130c      	movi.n	a3, 1
 122:	004232        	s8i	a3, a2, 0
 125:	ffb821        	l32r	a2, 8 <.text.at_dns_found+0x8>	125: R_XTENSA_SLOT0_OP	.text.at_dns_found+0x8
 128:	02d9      	s32i.n	a13, a2, 0
 12a:	ffcb01        	l32r	a0, 58 <.text.at_dns_found+0x58>	12a: R_XTENSA_SLOT0_OP	.text.at_dns_found+0x58
	12a: R_XTENSA_ASM_EXPAND	at_response_error
 12d:	0000c0        	callx0	a0
 130:	00a846        	j	3d5 <.text.at_dns_found+0x3d5>	130: R_XTENSA_SLOT0_OP	.text.at_dns_found+0x3d5
 133:	030e62        	l8ui	a6, a14, 3
 136:	020e52        	l8ui	a5, a14, 2
 139:	010e42        	l8ui	a4, a14, 1
 13c:	000e32        	l8ui	a3, a14, 0
 13f:	ffb421        	l32r	a2, 10 <.text.at_dns_found+0x10>	13f: R_XTENSA_SLOT0_OP	.text.at_dns_found+0x10
 142:	ffc601        	l32r	a0, 5c <.text.at_dns_found+0x5c>	142: R_XTENSA_SLOT0_OP	.text.at_dns_found+0x5c
	142: R_XTENSA_ASM_EXPAND	os_printf_plus
 145:	0000c0        	callx0	a0
 148:	ffb321        	l32r	a2, 14 <.text.at_dns_found+0x14>	148: R_XTENSA_SLOT0_OP	.text.at_dns_found+0x14
 14b:	0228      	l32i.n	a2, a2, 0
 14d:	284256        	bnez	a2, 3d5 <.text.at_dns_found+0x3d5>	14d: R_XTENSA_SLOT0_OP	.text.at_dns_found+0x3d5
 150:	0e28      	l32i.n	a2, a14, 0
 152:	27f216        	beqz	a2, 3d5 <.text.at_dns_found+0x3d5>	152: R_XTENSA_SLOT0_OP	.text.at_dns_found+0x3d5
 155:	0d28      	l32i.n	a2, a13, 0
 157:	02b226        	beqi	a2, 16, 15d <.text.at_dns_found+0x15d>	157: R_XTENSA_SLOT0_OP	.text.at_dns_found+0x15d
 15a:	004806        	j	27e <.text.at_dns_found+0x27e>	15a: R_XTENSA_SLOT0_OP	.text.at_dns_found+0x27e
 15d:	2d28      	l32i.n	a2, a13, 8
 15f:	440c      	movi.n	a4, 4
 161:	0e3d      	mov.n	a3, a14
 163:	0cc222        	addi	a2, a2, 12
 166:	ffbe01        	l32r	a0, 60 <.text.at_dns_found+0x60>	166: R_XTENSA_SLOT0_OP	.text.at_dns_found+0x60
	166: R_XTENSA_ASM_EXPAND	ets_memcpy
 169:	0000c0        	callx0	a0
 16c:	120c      	movi.n	a2, 1
 16e:	1c29      	s32i.n	a2, a12, 4
 170:	030c22        	l8ui	a2, a12, 3
 173:	928c      	beqz.n	a2, 180 <.text.at_dns_found+0x180>	173: R_XTENSA_SLOT0_OP	.text.at_dns_found+0x180
 175:	ffa831        	l32r	a3, 18 <.text.at_dns_found+0x18>	175: R_XTENSA_SLOT0_OP	.text.at_dns_found+0x18
 178:	000322        	l8ui	a2, a3, 0
 17b:	221b      	addi.n	a2, a2, 1
 17d:	004322        	s8i	a2, a3, 0
 180:	102c32        	l32i	a3, a12, 64
 183:	0d2d      	mov.n	a2, a13
 185:	0003c0        	callx0	a3
 188:	742020        	extui	a2, a2, 0, 8
 18b:	0e1216        	beqz	a2, 270 <.text.at_dns_found+0x270>	18b: R_XTENSA_SLOT0_OP	.text.at_dns_found+0x270
 18e:	020c      	movi.n	a2, 0
 190:	1c29      	s32i.n	a2, a12, 4
 192:	ffb401        	l32r	a0, 64 <.text.at_dns_found+0x64>	192: R_XTENSA_SLOT0_OP	.text.at_dns_found+0x64
	192: R_XTENSA_ASM_EXPAND	at_get_sys_msg_mask
 195:	0000c0        	callx0	a0
 198:	4d6217        	bbci	a2, 1, 1e9 <.text.at_dns_found+0x1e9>	198: R_XTENSA_SLOT0_OP	.text.at_dns_found+0x1e9
 19b:	2d28      	l32i.n	a2, a13, 8
 19d:	030c32        	l8ui	a3, a12, 3
 1a0:	020c42        	l8ui	a4, a12, 2
 1a3:	0d0272        	l8ui	a7, a2, 13
 1a6:	0c0262        	l8ui	a6, a2, 12
 1a9:	839c      	beqz.n	a3, 1c5 <.text.at_dns_found+0x1c5>	1a9: R_XTENSA_SLOT0_OP	.text.at_dns_found+0x1c5
 1ab:	1238      	l32i.n	a3, a2, 4
 1ad:	3139      	s32i.n	a3, a1, 12
 1af:	0238      	l32i.n	a3, a2, 0
 1b1:	2139      	s32i.n	a3, a1, 8
 1b3:	0f0232        	l8ui	a3, a2, 15
 1b6:	1139      	s32i.n	a3, a1, 4
 1b8:	0e0222        	l8ui	a2, a2, 14
 1bb:	ff9831        	l32r	a3, 1c <.text.at_dns_found+0x1c>	1bb: R_XTENSA_SLOT0_OP	.text.at_dns_found+0x1c
 1be:	0129      	s32i.n	a2, a1, 0
 1c0:	3c58      	l32i.n	a5, a12, 12
 1c2:	000586        	j	1dc <.text.at_dns_found+0x1dc>	1c2: R_XTENSA_SLOT0_OP	.text.at_dns_found+0x1dc
 1c5:	1238      	l32i.n	a3, a2, 4
 1c7:	3139      	s32i.n	a3, a1, 12
 1c9:	0238      	l32i.n	a3, a2, 0
 1cb:	2139      	s32i.n	a3, a1, 8
 1cd:	0f0232        	l8ui	a3, a2, 15
 1d0:	1139      	s32i.n	a3, a1, 4
 1d2:	0e0222        	l8ui	a2, a2, 14
 1d5:	ff9231        	l32r	a3, 20 <.text.at_dns_found+0x20>	1d5: R_XTENSA_SLOT0_OP	.text.at_dns_found+0x20
 1d8:	0129      	s32i.n	a2, a1, 0
 1da:	3c58      	l32i.n	a5, a12, 12
 1dc:	10c122        	addi	a2, a1, 16
 1df:	ffa201        	l32r	a0, 68 <.text.at_dns_found+0x68>	1df: R_XTENSA_SLOT0_OP	.text.at_dns_found+0x68
	1df: R_XTENSA_ASM_EXPAND	ets_sprintf
 1e2:	0000c0        	callx0	a0
 1e5:	000a06        	j	211 <.text.at_dns_found+0x211>	1e5: R_XTENSA_SLOT0_OP	.text.at_dns_found+0x211
 1e8:	00          	.byte 00
 1e9:	ff8e21        	l32r	a2, 24 <.text.at_dns_found+0x24>	1e9: R_XTENSA_SLOT0_OP	.text.at_dns_found+0x24
 1ec:	000222        	l8ui	a2, a2, 0
 1ef:	229c      	beqz.n	a2, 205 <.text.at_dns_found+0x205>	1ef: R_XTENSA_SLOT0_OP	.text.at_dns_found+0x205
 1f1:	020c42        	l8ui	a4, a12, 2
 1f4:	ff8d31        	l32r	a3, 28 <.text.at_dns_found+0x28>	1f4: R_XTENSA_SLOT0_OP	.text.at_dns_found+0x28
 1f7:	10c122        	addi	a2, a1, 16
 1fa:	ff9c01        	l32r	a0, 6c <.text.at_dns_found+0x6c>	1fa: R_XTENSA_SLOT0_OP	.text.at_dns_found+0x6c
	1fa: R_XTENSA_ASM_EXPAND	ets_sprintf
 1fd:	0000c0        	callx0	a0
 200:	000346        	j	211 <.text.at_dns_found+0x211>	200: R_XTENSA_SLOT0_OP	.text.at_dns_found+0x211
 203:	00          	.byte 00
 204:	00          	.byte 00
 205:	ff8931        	l32r	a3, 2c <.text.at_dns_found+0x2c>	205: R_XTENSA_SLOT0_OP	.text.at_dns_found+0x2c
 208:	10c122        	addi	a2, a1, 16
 20b:	ff9901        	l32r	a0, 70 <.text.at_dns_found+0x70>	20b: R_XTENSA_SLOT0_OP	.text.at_dns_found+0x70
	20b: R_XTENSA_ASM_EXPAND	ets_sprintf
 20e:	0000c0        	callx0	a0
 211:	10c122        	addi	a2, a1, 16
 214:	ff9801        	l32r	a0, 74 <.text.at_dns_found+0x74>	214: R_XTENSA_SLOT0_OP	.text.at_dns_found+0x74
	214: R_XTENSA_ASM_EXPAND	at_port_print
 217:	0000c0        	callx0	a0
 21a:	7c28      	l32i.n	a2, a12, 28
 21c:	ff85e1        	l32r	a14, 30 <.text.at_dns_found+0x30>	21c: R_XTENSA_SLOT0_OP	.text.at_dns_found+0x30
 21f:	2228      	l32i.n	a2, a2, 8
 221:	60a442        	movi	a4, 0x460
 224:	203ee0        	or	a3, a14, a14
 227:	ff9401        	l32r	a0, 78 <.text.at_dns_found+0x78>	227: R_XTENSA_SLOT0_OP	.text.at_dns_found+0x78
	227: R_XTENSA_ASM_EXPAND	vPortFree
 22a:	0000c0        	callx0	a0
 22d:	7c28      	l32i.n	a2, a12, 28
 22f:	0d0c      	movi.n	a13, 0
 231:	22d9      	s32i.n	a13, a2, 8
 233:	7c28      	l32i.n	a2, a12, 28
 235:	203ee0        	or	a3, a14, a14
 238:	62a442        	movi	a4, 0x462
 23b:	ff9001        	l32r	a0, 7c <.text.at_dns_found+0x7c>	23b: R_XTENSA_SLOT0_OP	.text.at_dns_found+0x7c
	23b: R_XTENSA_ASM_EXPAND	vPortFree
 23e:	0000c0        	callx0	a0
 241:	7cd9      	s32i.n	a13, a12, 28
 243:	014cd2        	s8i	a13, a12, 1
 246:	ff8e01        	l32r	a0, 80 <.text.at_dns_found+0x80>	246: R_XTENSA_SLOT0_OP	.text.at_dns_found+0x80
	246: R_XTENSA_ASM_EXPAND	at_response_error
 249:	0000c0        	callx0	a0
 24c:	ff6e21        	l32r	a2, 4 <.text.at_dns_found+0x4>	24c: R_XTENSA_SLOT0_OP	.text.at_dns_found+0x4
 24f:	130c      	movi.n	a3, 1
 251:	004232        	s8i	a3, a2, 0
 254:	030c22        	l8ui	a2, a12, 3
 257:	0292d7        	bne	a2, a13, 25d <.text.at_dns_found+0x25d>	257: R_XTENSA_SLOT0_OP	.text.at_dns_found+0x25d
 25a:	005dc6        	j	3d5 <.text.at_dns_found+0x3d5>	25a: R_XTENSA_SLOT0_OP	.text.at_dns_found+0x3d5
 25d:	ff6e31        	l32r	a3, 18 <.text.at_dns_found+0x18>	25d: R_XTENSA_SLOT0_OP	.text.at_dns_found+0x18
 260:	000322        	l8ui	a2, a3, 0
 263:	220b      	addi.n	a2, a2, -1
 265:	004322        	s8i	a2, a3, 0
 268:	020c      	movi.n	a2, 0
 26a:	034c22        	s8i	a2, a12, 3
 26d:	005906        	j	3d5 <.text.at_dns_found+0x3d5>	26d: R_XTENSA_SLOT0_OP	.text.at_dns_found+0x3d5
 270:	ff7131        	l32r	a3, 34 <.text.at_dns_found+0x34>	270: R_XTENSA_SLOT0_OP	.text.at_dns_found+0x34
 273:	000322        	l8ui	a2, a3, 0
 276:	221b      	addi.n	a2, a2, 1
 278:	004322        	s8i	a2, a3, 0
 27b:	005586        	j	3d5 <.text.at_dns_found+0x3d5>	27b: R_XTENSA_SLOT0_OP	.text.at_dns_found+0x3d5
 27e:	2d28      	l32i.n	a2, a13, 8
 280:	0e3d      	mov.n	a3, a14
 282:	440c      	movi.n	a4, 4
 284:	22cb      	addi.n	a2, a2, 12
 286:	ff7f01        	l32r	a0, 84 <.text.at_dns_found+0x84>	286: R_XTENSA_SLOT0_OP	.text.at_dns_found+0x84
	286: R_XTENSA_ASM_EXPAND	ets_memcpy
 289:	0000c0        	callx0	a0
 28c:	0e3d      	mov.n	a3, a14
 28e:	440c      	movi.n	a4, 4
 290:	12cc22        	addi	a2, a12, 18
 293:	ff7d01        	l32r	a0, 88 <.text.at_dns_found+0x88>	293: R_XTENSA_SLOT0_OP	.text.at_dns_found+0x88
	293: R_XTENSA_ASM_EXPAND	ets_memcpy
 296:	0000c0        	callx0	a0
 299:	102c32        	l32i	a3, a12, 64
 29c:	0d2d      	mov.n	a2, a13
 29e:	0003c0        	callx0	a3
 2a1:	742020        	extui	a2, a2, 0, 8
 2a4:	ff58e1        	l32r	a14, 4 <.text.at_dns_found+0x4>	2a4: R_XTENSA_SLOT0_OP	.text.at_dns_found+0x4
 2a7:	0a5216        	beqz	a2, 350 <.text.at_dns_found+0x350>	2a7: R_XTENSA_SLOT0_OP	.text.at_dns_found+0x350
 2aa:	ff7801        	l32r	a0, 8c <.text.at_dns_found+0x8c>	2aa: R_XTENSA_SLOT0_OP	.text.at_dns_found+0x8c
	2aa: R_XTENSA_ASM_EXPAND	at_get_sys_msg_mask
 2ad:	0000c0        	callx0	a0
 2b0:	316217        	bbci	a2, 1, 2e5 <.text.at_dns_found+0x2e5>	2b0: R_XTENSA_SLOT0_OP	.text.at_dns_found+0x2e5
 2b3:	2d28      	l32i.n	a2, a13, 8
 2b5:	020c42        	l8ui	a4, a12, 2
 2b8:	1238      	l32i.n	a3, a2, 4
 2ba:	0d0272        	l8ui	a7, a2, 13
 2bd:	0c0262        	l8ui	a6, a2, 12
 2c0:	3139      	s32i.n	a3, a1, 12
 2c2:	0238      	l32i.n	a3, a2, 0
 2c4:	2139      	s32i.n	a3, a1, 8
 2c6:	0f0232        	l8ui	a3, a2, 15
 2c9:	1139      	s32i.n	a3, a1, 4
 2cb:	0e0222        	l8ui	a2, a2, 14
 2ce:	ff5a31        	l32r	a3, 38 <.text.at_dns_found+0x38>	2ce: R_XTENSA_SLOT0_OP	.text.at_dns_found+0x38
 2d1:	006122        	s32i	a2, a1, 0
 2d4:	032c52        	l32i	a5, a12, 12
 2d7:	10c122        	addi	a2, a1, 16
 2da:	ff6d01        	l32r	a0, 90 <.text.at_dns_found+0x90>	2da: R_XTENSA_SLOT0_OP	.text.at_dns_found+0x90
	2da: R_XTENSA_ASM_EXPAND	ets_sprintf
 2dd:	0000c0        	callx0	a0
 2e0:	000a46        	j	30d <.text.at_dns_found+0x30d>	2e0: R_XTENSA_SLOT0_OP	.text.at_dns_found+0x30d
 2e3:	00          	.byte 00
 2e4:	00          	.byte 00
 2e5:	ff4f21        	l32r	a2, 24 <.text.at_dns_found+0x24>	2e5: R_XTENSA_SLOT0_OP	.text.at_dns_found+0x24
 2e8:	000222        	l8ui	a2, a2, 0
 2eb:	229c      	beqz.n	a2, 301 <.text.at_dns_found+0x301>	2eb: R_XTENSA_SLOT0_OP	.text.at_dns_found+0x301
 2ed:	020c42        	l8ui	a4, a12, 2
 2f0:	ff4e31        	l32r	a3, 28 <.text.at_dns_found+0x28>	2f0: R_XTENSA_SLOT0_OP	.text.at_dns_found+0x28
 2f3:	10c122        	addi	a2, a1, 16
 2f6:	ff6701        	l32r	a0, 94 <.text.at_dns_found+0x94>	2f6: R_XTENSA_SLOT0_OP	.text.at_dns_found+0x94
	2f6: R_XTENSA_ASM_EXPAND	ets_sprintf
 2f9:	0000c0        	callx0	a0
 2fc:	000346        	j	30d <.text.at_dns_found+0x30d>	2fc: R_XTENSA_SLOT0_OP	.text.at_dns_found+0x30d
 2ff:	00          	.byte 00
 300:	00          	.byte 00
 301:	ff4a31        	l32r	a3, 2c <.text.at_dns_found+0x2c>	301: R_XTENSA_SLOT0_OP	.text.at_dns_found+0x2c
 304:	10c122        	addi	a2, a1, 16
 307:	ff6401        	l32r	a0, 98 <.text.at_dns_found+0x98>	307: R_XTENSA_SLOT0_OP	.text.at_dns_found+0x98
	307: R_XTENSA_ASM_EXPAND	ets_sprintf
 30a:	0000c0        	callx0	a0
 30d:	10c122        	addi	a2, a1, 16
 310:	ff6301        	l32r	a0, 9c <.text.at_dns_found+0x9c>	310: R_XTENSA_SLOT0_OP	.text.at_dns_found+0x9c
	310: R_XTENSA_ASM_EXPAND	at_port_print
 313:	0000c0        	callx0	a0
 316:	020c      	movi.n	a2, 0
 318:	004c22        	s8i	a2, a12, 0
 31b:	7c28      	l32i.n	a2, a12, 28
 31d:	ff44f1        	l32r	a15, 30 <.text.at_dns_found+0x30>	31d: R_XTENSA_SLOT0_OP	.text.at_dns_found+0x30
 320:	2228      	l32i.n	a2, a2, 8
 322:	82a442        	movi	a4, 0x482
 325:	0f3d      	mov.n	a3, a15
 327:	ff5e01        	l32r	a0, a0 <.text.at_dns_found+0xa0>	327: R_XTENSA_SLOT0_OP	.text.at_dns_found+0xa0
	327: R_XTENSA_ASM_EXPAND	vPortFree
 32a:	0000c0        	callx0	a0
 32d:	7c28      	l32i.n	a2, a12, 28
 32f:	0d0c      	movi.n	a13, 0
 331:	22d9      	s32i.n	a13, a2, 8
 333:	7c28      	l32i.n	a2, a12, 28
 335:	84a442        	movi	a4, 0x484
 338:	0f3d      	mov.n	a3, a15
 33a:	ff5a01        	l32r	a0, a4 <.text.at_dns_found+0xa4>	33a: R_XTENSA_SLOT0_OP	.text.at_dns_found+0xa4
	33a: R_XTENSA_ASM_EXPAND	vPortFree
 33d:	0000c0        	callx0	a0
 340:	7cd9      	s32i.n	a13, a12, 28
 342:	ff5901        	l32r	a0, a8 <.text.at_dns_found+0xa8>	342: R_XTENSA_SLOT0_OP	.text.at_dns_found+0xa8
	342: R_XTENSA_ASM_EXPAND	at_response_error
 345:	0000c0        	callx0	a0
 348:	120c      	movi.n	a2, 1
 34a:	004e22        	s8i	a2, a14, 0
 34d:	002106        	j	3d5 <.text.at_dns_found+0x3d5>	34d: R_XTENSA_SLOT0_OP	.text.at_dns_found+0x3d5
 350:	120c      	movi.n	a2, 1
 352:	004e22        	s8i	a2, a14, 0
 355:	ff2c21        	l32r	a2, 8 <.text.at_dns_found+0x8>	355: R_XTENSA_SLOT0_OP	.text.at_dns_found+0x8
 358:	030c      	movi.n	a3, 0
 35a:	0239      	s32i.n	a3, a2, 0
 35c:	ff3631        	l32r	a3, 34 <.text.at_dns_found+0x34>	35c: R_XTENSA_SLOT0_OP	.text.at_dns_found+0x34
 35f:	000322        	l8ui	a2, a3, 0
 362:	221b      	addi.n	a2, a2, 1
 364:	004322        	s8i	a2, a3, 0
 367:	ff5101        	l32r	a0, ac <.text.at_dns_found+0xac>	367: R_XTENSA_SLOT0_OP	.text.at_dns_found+0xac
	367: R_XTENSA_ASM_EXPAND	at_get_sys_msg_mask
 36a:	0000c0        	callx0	a0
 36d:	386217        	bbci	a2, 1, 3a9 <.text.at_dns_found+0x3a9>	36d: R_XTENSA_SLOT0_OP	.text.at_dns_found+0x3a9
 370:	7c28      	l32i.n	a2, a12, 28
 372:	020c42        	l8ui	a4, a12, 2
 375:	2228      	l32i.n	a2, a2, 8
 377:	1238      	l32i.n	a3, a2, 4
 379:	0d0272        	l8ui	a7, a2, 13
 37c:	0c0262        	l8ui	a6, a2, 12
 37f:	3139      	s32i.n	a3, a1, 12
 381:	0238      	l32i.n	a3, a2, 0
 383:	2139      	s32i.n	a3, a1, 8
 385:	0f0232        	l8ui	a3, a2, 15
 388:	1139      	s32i.n	a3, a1, 4
 38a:	0e0222        	l8ui	a2, a2, 14
 38d:	ff2b31        	l32r	a3, 3c <.text.at_dns_found+0x3c>	38d: R_XTENSA_SLOT0_OP	.text.at_dns_found+0x3c
 390:	0129      	s32i.n	a2, a1, 0
 392:	3c58      	l32i.n	a5, a12, 12
 394:	10c122        	addi	a2, a1, 16
 397:	ff4601        	l32r	a0, b0 <.text.at_dns_found+0xb0>	397: R_XTENSA_SLOT0_OP	.text.at_dns_found+0xb0
	397: R_XTENSA_ASM_EXPAND	ets_sprintf
 39a:	0000c0        	callx0	a0
 39d:	10c122        	addi	a2, a1, 16
 3a0:	ff4501        	l32r	a0, b4 <.text.at_dns_found+0xb4>	3a0: R_XTENSA_SLOT0_OP	.text.at_dns_found+0xb4
	3a0: R_XTENSA_ASM_EXPAND	at_port_print
 3a3:	0000c0        	callx0	a0
 3a6:	000706        	j	3c6 <.text.at_dns_found+0x3c6>	3a6: R_XTENSA_SLOT0_OP	.text.at_dns_found+0x3c6
 3a9:	ff1e21        	l32r	a2, 24 <.text.at_dns_found+0x24>	3a9: R_XTENSA_SLOT0_OP	.text.at_dns_found+0x24
 3ac:	ff2641        	l32r	a4, 44 <.text.at_dns_found+0x44>	3ac: R_XTENSA_SLOT0_OP	.text.at_dns_found+0x44
 3af:	000222        	l8ui	a2, a2, 0
 3b2:	ff2531        	l32r	a3, 48 <.text.at_dns_found+0x48>	3b2: R_XTENSA_SLOT0_OP	.text.at_dns_found+0x48
 3b5:	428c      	beqz.n	a2, 3bd <.text.at_dns_found+0x3bd>	3b5: R_XTENSA_SLOT0_OP	.text.at_dns_found+0x3bd
 3b7:	020c42        	l8ui	a4, a12, 2
 3ba:	ff2131        	l32r	a3, 40 <.text.at_dns_found+0x40>	3ba: R_XTENSA_SLOT0_OP	.text.at_dns_found+0x40
 3bd:	10c122        	addi	a2, a1, 16
 3c0:	ff3e01        	l32r	a0, b8 <.text.at_dns_found+0xb8>	3c0: R_XTENSA_SLOT0_OP	.text.at_dns_found+0xb8
	3c0: R_XTENSA_ASM_EXPAND	ets_sprintf
 3c3:	0000c0        	callx0	a0
 3c6:	10c122        	addi	a2, a1, 16
 3c9:	ff3c01        	l32r	a0, bc <.text.at_dns_found+0xbc>	3c9: R_XTENSA_SLOT0_OP	.text.at_dns_found+0xbc
	3c9: R_XTENSA_ASM_EXPAND	at_port_print
 3cc:	0000c0        	callx0	a0
 3cf:	ff3c01        	l32r	a0, c0 <.text.at_dns_found+0xc0>	3cf: R_XTENSA_SLOT0_OP	.text.at_dns_found+0xc0
	3cf: R_XTENSA_ASM_EXPAND	at_response_ok
 3d2:	0000c0        	callx0	a0
 3d5:	1b2102        	l32i	a0, a1, 108
 3d8:	1a21c2        	l32i	a12, a1, 104
 3db:	1921d2        	l32i	a13, a1, 100
 3de:	1821e2        	l32i	a14, a1, 96
 3e1:	1721f2        	l32i	a15, a1, 92
 3e4:	70c112        	addi	a1, a1, 112
 3e7:	f00d      	ret.n

Disassembly of section .text.at_tcpserver_listen:

00000000 <.text.at_tcpserver_listen>:
   0:	be 02 00 00 		0: R_XTENSA_32	.irom.text
	...
	4: R_XTENSA_32	.bss.pTcpServer
	8: R_XTENSA_32	.bss.at_server_max_conn
	c: R_XTENSA_32	.data.at_linkMax
	10: R_XTENSA_32	pLink
	14: R_XTENSA_32	sendingID
	18: R_XTENSA_32	at_state
	1c: R_XTENSA_32	mdState
	20: R_XTENSA_32	.bss.at_linkNum
	24: R_XTENSA_32	at_tcpclient_recv
  28:	8c 00 00 00 		28: R_XTENSA_32	.text.at_tcpserver_recon_cb
  2c:	9c 00 00 00 		2c: R_XTENSA_32	.text.at_tcpserver_discon_cb
  30:	3c 00 00 00 		30: R_XTENSA_32	.text.at_tcpclient_sent_cb
	...
	34: R_XTENSA_32	espconn_connect
	38: R_XTENSA_32	espconn_disconnect
	3c: R_XTENSA_32	espconn_sent
  40:	7b 01 00 00 		40: R_XTENSA_32	.rodata.str1.1
  44:	00 00 00 00 		44: R_XTENSA_32	at_ipMux
  48:	61 01 00 00 		48: R_XTENSA_32	.rodata.str1.1
  4c:	b4 02 00 00 		4c: R_XTENSA_32	.irom.text
	...
	50: R_XTENSA_32	ets_bzero
	54: R_XTENSA_32	os_printf_plus
	58: R_XTENSA_32	espconn_get_connection_info
	5c: R_XTENSA_32	espconn_regist_recvcb
	60: R_XTENSA_32	espconn_regist_reconcb
	64: R_XTENSA_32	espconn_regist_disconcb
	68: R_XTENSA_32	espconn_regist_sentcb
	6c: R_XTENSA_32	espconn_set_opt
	70: R_XTENSA_32	at_get_sys_msg_mask
	74: R_XTENSA_32	ets_sprintf
	78: R_XTENSA_32	ets_sprintf
	7c: R_XTENSA_32	at_port_print
	80: R_XTENSA_32	espconn_disconnect
  84:	80c112        	addi	a1, a1, -128
  87:	1e61c2        	s32i	a12, a1, 120
  8a:	20c220        	or	a12, a2, a2
  8d:	020c      	movi.n	a2, 0
  8f:	1f6102        	s32i	a0, a1, 124
  92:	1d61d2        	s32i	a13, a1, 116
  95:	1c61e2        	s32i	a14, a1, 112
  98:	1b61f2        	s32i	a15, a1, 108
  9b:	146122        	s32i	a2, a1, 80
  9e:	029c27        	bne	a12, a2, a4 <.text.at_tcpserver_listen+0xa4>	9e: R_XTENSA_SLOT0_OP	.text.at_tcpserver_listen+0xa4
  a1:	0065c6        	j	23c <.text.at_tcpserver_listen+0x23c>	a1: R_XTENSA_SLOT0_OP	.text.at_tcpserver_listen+0x23c
  a4:	40a032        	movi	a3, 64
  a7:	10c122        	addi	a2, a1, 16
  aa:	ffe901        	l32r	a0, 50 <.text.at_tcpserver_listen+0x50>	aa: R_XTENSA_SLOT0_OP	.text.at_tcpserver_listen+0x50
	aa: R_XTENSA_ASM_EXPAND	ets_bzero
  ad:	0000c0        	callx0	a0
  b0:	ffd421        	l32r	a2, 0 <.text.at_tcpserver_listen>	b0: R_XTENSA_SLOT0_OP	.text.at_tcpserver_listen
  b3:	ffe801        	l32r	a0, 54 <.text.at_tcpserver_listen+0x54>	b3: R_XTENSA_SLOT0_OP	.text.at_tcpserver_listen+0x54
	b3: R_XTENSA_ASM_EXPAND	os_printf_plus
  b6:	0000c0        	callx0	a0
  b9:	ffd2d1        	l32r	a13, 4 <.text.at_tcpserver_listen+0x4>	b9: R_XTENSA_SLOT0_OP	.text.at_tcpserver_listen+0x4
  bc:	040c      	movi.n	a4, 0
  be:	0d28      	l32i.n	a2, a13, 0
  c0:	50c132        	addi	a3, a1, 80
  c3:	066c42        	s32i	a4, a12, 24
  c6:	ffe401        	l32r	a0, 58 <.text.at_tcpserver_listen+0x58>	c6: R_XTENSA_SLOT0_OP	.text.at_tcpserver_listen+0x58
	c6: R_XTENSA_ASM_EXPAND	espconn_get_connection_info
  c9:	0000c0        	callx0	a0
  cc:	0d28      	l32i.n	a2, a13, 0
  ce:	ffce31        	l32r	a3, 8 <.text.at_tcpserver_listen+0x8>	ce: R_XTENSA_SLOT0_OP	.text.at_tcpserver_listen+0x8
  d1:	140222        	l8ui	a2, a2, 20
  d4:	000332        	l8ui	a3, a3, 0
  d7:	02b327        	bgeu	a3, a2, dd <.text.at_tcpserver_listen+0xdd>	d7: R_XTENSA_SLOT0_OP	.text.at_tcpserver_listen+0xdd
  da:	005586        	j	234 <.text.at_tcpserver_listen+0x234>	da: R_XTENSA_SLOT0_OP	.text.at_tcpserver_listen+0x234
  dd:	ffcce1        	l32r	a14, 10 <.text.at_tcpserver_listen+0x10>	dd: R_XTENSA_SLOT0_OP	.text.at_tcpserver_listen+0x10
  e0:	ffcb21        	l32r	a2, c <.text.at_tcpserver_listen+0xc>	e0: R_XTENSA_SLOT0_OP	.text.at_tcpserver_listen+0xc
  e3:	0e58      	l32i.n	a5, a14, 0
  e5:	000242        	l8ui	a4, a2, 0
  e8:	0f0c      	movi.n	a15, 0
  ea:	052d      	mov.n	a2, a5
  ec:	381f47        	beq	a15, a4, 128 <.text.at_tcpserver_listen+0x128>	ec: R_XTENSA_SLOT0_OP	.text.at_tcpserver_listen+0x128
  ef:	000232        	l8ui	a3, a2, 0
  f2:	c0d250        	sub	a13, a2, a5
  f5:	43ec      	bnez.n	a3, 11d <.text.at_tcpserver_listen+0x11d>	f5: R_XTENSA_SLOT0_OP	.text.at_tcpserver_listen+0x11d
  f7:	1238      	l32i.n	a3, a2, 4
  f9:	03ec      	bnez.n	a3, 11d <.text.at_tcpserver_listen+0x11d>	f9: R_XTENSA_SLOT0_OP	.text.at_tcpserver_listen+0x11d
  fb:	130c      	movi.n	a3, 1
  fd:	004232        	s8i	a3, a2, 0
 100:	030c      	movi.n	a3, 0
 102:	014232        	s8i	a3, a2, 1
 105:	104232        	s8i	a3, a2, 16
 108:	ffc331        	l32r	a3, 14 <.text.at_tcpserver_listen+0x14>	108: R_XTENSA_SLOT0_OP	.text.at_tcpserver_listen+0x14
 10b:	140c      	movi.n	a4, 1
 10d:	000332        	l8ui	a3, a3, 0
 110:	0242f2        	s8i	a15, a2, 2
 113:	3249      	s32i.n	a4, a2, 12
 115:	72c9      	s32i.n	a12, a2, 28
 117:	1e13f7        	beq	a3, a15, 139 <.text.at_tcpserver_listen+0x139>	117: R_XTENSA_SLOT0_OP	.text.at_tcpserver_listen+0x139
 11a:	000ac6        	j	149 <.text.at_tcpserver_listen+0x149>	11a: R_XTENSA_SLOT0_OP	.text.at_tcpserver_listen+0x149
 11d:	ff1b      	addi.n	a15, a15, 1
 11f:	74f0f0        	extui	a15, a15, 0, 8
 122:	4cc222        	addi	a2, a2, 76
 125:	fff0c6        	j	ec <.text.at_tcpserver_listen+0xec>	125: R_XTENSA_SLOT0_OP	.text.at_tcpserver_listen+0xec
 128:	b03440        	addx8	a3, a4, a4
 12b:	902340        	addx2	a2, a3, a4
 12e:	a02250        	addx4	a2, a2, a5
 131:	030c      	movi.n	a3, 0
 133:	004232        	s8i	a3, a2, 0
 136:	003e86        	j	234 <.text.at_tcpserver_listen+0x234>	136: R_XTENSA_SLOT0_OP	.text.at_tcpserver_listen+0x234
 139:	ffb731        	l32r	a3, 18 <.text.at_tcpserver_listen+0x18>	139: R_XTENSA_SLOT0_OP	.text.at_tcpserver_listen+0x18
 13c:	0338      	l32i.n	a3, a3, 0
 13e:	fdc332        	addi	a3, a3, -3
 141:	0423f6        	bgeui	a3, 2, 149 <.text.at_tcpserver_listen+0x149>	141: R_XTENSA_SLOT0_OP	.text.at_tcpserver_listen+0x149
 144:	930c      	movi.n	a3, 9
 146:	000046        	j	14b <.text.at_tcpserver_listen+0x14b>	146: R_XTENSA_SLOT0_OP	.text.at_tcpserver_listen+0x14b
 149:	230c      	movi.n	a3, 2
 14b:	1239      	s32i.n	a3, a2, 4
 14d:	ffb331        	l32r	a3, 1c <.text.at_tcpserver_listen+0x1c>	14d: R_XTENSA_SLOT0_OP	.text.at_tcpserver_listen+0x1c
 150:	340c      	movi.n	a4, 3
 152:	0349      	s32i.n	a4, a3, 0
 154:	ffb341        	l32r	a4, 20 <.text.at_tcpserver_listen+0x20>	154: R_XTENSA_SLOT0_OP	.text.at_tcpserver_listen+0x20
 157:	6c29      	s32i.n	a2, a12, 24
 159:	000432        	l8ui	a3, a4, 0
 15c:	0c2d      	mov.n	a2, a12
 15e:	331b      	addi.n	a3, a3, 1
 160:	004432        	s8i	a3, a4, 0
 163:	ffb031        	l32r	a3, 24 <.text.at_tcpserver_listen+0x24>	163: R_XTENSA_SLOT0_OP	.text.at_tcpserver_listen+0x24
 166:	ffbd01        	l32r	a0, 5c <.text.at_tcpserver_listen+0x5c>	166: R_XTENSA_SLOT0_OP	.text.at_tcpserver_listen+0x5c
	166: R_XTENSA_ASM_EXPAND	espconn_regist_recvcb
 169:	0000c0        	callx0	a0
 16c:	742020        	extui	a2, a2, 0, 8
 16f:	e2ec      	bnez.n	a2, 1a1 <.text.at_tcpserver_listen+0x1a1>	16f: R_XTENSA_SLOT0_OP	.text.at_tcpserver_listen+0x1a1
 171:	ffad31        	l32r	a3, 28 <.text.at_tcpserver_listen+0x28>	171: R_XTENSA_SLOT0_OP	.text.at_tcpserver_listen+0x28
 174:	0c2d      	mov.n	a2, a12
 176:	ffba01        	l32r	a0, 60 <.text.at_tcpserver_listen+0x60>	176: R_XTENSA_SLOT0_OP	.text.at_tcpserver_listen+0x60
	176: R_XTENSA_ASM_EXPAND	espconn_regist_reconcb
 179:	0000c0        	callx0	a0
 17c:	742020        	extui	a2, a2, 0, 8
 17f:	e2dc      	bnez.n	a2, 1a1 <.text.at_tcpserver_listen+0x1a1>	17f: R_XTENSA_SLOT0_OP	.text.at_tcpserver_listen+0x1a1
 181:	ffaa31        	l32r	a3, 2c <.text.at_tcpserver_listen+0x2c>	181: R_XTENSA_SLOT0_OP	.text.at_tcpserver_listen+0x2c
 184:	0c2d      	mov.n	a2, a12
 186:	ffb701        	l32r	a0, 64 <.text.at_tcpserver_listen+0x64>	186: R_XTENSA_SLOT0_OP	.text.at_tcpserver_listen+0x64
	186: R_XTENSA_ASM_EXPAND	espconn_regist_disconcb
 189:	0000c0        	callx0	a0
 18c:	742020        	extui	a2, a2, 0, 8
 18f:	e2cc      	bnez.n	a2, 1a1 <.text.at_tcpserver_listen+0x1a1>	18f: R_XTENSA_SLOT0_OP	.text.at_tcpserver_listen+0x1a1
 191:	ffa731        	l32r	a3, 30 <.text.at_tcpserver_listen+0x30>	191: R_XTENSA_SLOT0_OP	.text.at_tcpserver_listen+0x30
 194:	0c2d      	mov.n	a2, a12
 196:	ffb401        	l32r	a0, 68 <.text.at_tcpserver_listen+0x68>	196: R_XTENSA_SLOT0_OP	.text.at_tcpserver_listen+0x68
	196: R_XTENSA_ASM_EXPAND	espconn_regist_sentcb
 199:	0000c0        	callx0	a0
 19c:	742020        	extui	a2, a2, 0, 8
 19f:	a28c      	beqz.n	a2, 1ad <.text.at_tcpserver_listen+0x1ad>	19f: R_XTENSA_SLOT0_OP	.text.at_tcpserver_listen+0x1ad
 1a1:	0e28      	l32i.n	a2, a14, 0
 1a3:	d2da      	add.n	a13, a2, a13
 1a5:	020c      	movi.n	a2, 0
 1a7:	004d22        	s8i	a2, a13, 0
 1aa:	002186        	j	234 <.text.at_tcpserver_listen+0x234>	1aa: R_XTENSA_SLOT0_OP	.text.at_tcpserver_listen+0x234
 1ad:	0e28      	l32i.n	a2, a14, 0
 1af:	ffa131        	l32r	a3, 34 <.text.at_tcpserver_listen+0x34>	1af: R_XTENSA_SLOT0_OP	.text.at_tcpserver_listen+0x34
 1b2:	22da      	add.n	a2, a2, a13
 1b4:	106232        	s32i	a3, a2, 64
 1b7:	ffa031        	l32r	a3, 38 <.text.at_tcpserver_listen+0x38>	1b7: R_XTENSA_SLOT0_OP	.text.at_tcpserver_listen+0x38
 1ba:	116232        	s32i	a3, a2, 68
 1bd:	ff9f31        	l32r	a3, 3c <.text.at_tcpserver_listen+0x3c>	1bd: R_XTENSA_SLOT0_OP	.text.at_tcpserver_listen+0x3c
 1c0:	126232        	s32i	a3, a2, 72
 1c3:	031c      	movi.n	a3, 16
 1c5:	0c2d      	mov.n	a2, a12
 1c7:	ffa901        	l32r	a0, 6c <.text.at_tcpserver_listen+0x6c>	1c7: R_XTENSA_SLOT0_OP	.text.at_tcpserver_listen+0x6c
	1c7: R_XTENSA_ASM_EXPAND	espconn_set_opt
 1ca:	0000c0        	callx0	a0
 1cd:	ffa801        	l32r	a0, 70 <.text.at_tcpserver_listen+0x70>	1cd: R_XTENSA_SLOT0_OP	.text.at_tcpserver_listen+0x70
	1cd: R_XTENSA_ASM_EXPAND	at_get_sys_msg_mask
 1d0:	0000c0        	callx0	a0
 1d3:	316217        	bbci	a2, 1, 208 <.text.at_tcpserver_listen+0x208>	1d3: R_XTENSA_SLOT0_OP	.text.at_tcpserver_listen+0x208
 1d6:	0e28      	l32i.n	a2, a14, 0
 1d8:	d2da      	add.n	a13, a2, a13
 1da:	2c28      	l32i.n	a2, a12, 8
 1dc:	020d42        	l8ui	a4, a13, 2
 1df:	1238      	l32i.n	a3, a2, 4
 1e1:	0d0272        	l8ui	a7, a2, 13
 1e4:	0c0262        	l8ui	a6, a2, 12
 1e7:	3139      	s32i.n	a3, a1, 12
 1e9:	0238      	l32i.n	a3, a2, 0
 1eb:	2139      	s32i.n	a3, a1, 8
 1ed:	0f0232        	l8ui	a3, a2, 15
 1f0:	1139      	s32i.n	a3, a1, 4
 1f2:	0e0222        	l8ui	a2, a2, 14
 1f5:	ff9231        	l32r	a3, 40 <.text.at_tcpserver_listen+0x40>	1f5: R_XTENSA_SLOT0_OP	.text.at_tcpserver_listen+0x40
 1f8:	0129      	s32i.n	a2, a1, 0
 1fa:	3d58      	l32i.n	a5, a13, 12
 1fc:	10c122        	addi	a2, a1, 16
 1ff:	ff9d01        	l32r	a0, 74 <.text.at_tcpserver_listen+0x74>	1ff: R_XTENSA_SLOT0_OP	.text.at_tcpserver_listen+0x74
	1ff: R_XTENSA_ASM_EXPAND	ets_sprintf
 202:	0000c0        	callx0	a0
 205:	0005c6        	j	220 <.text.at_tcpserver_listen+0x220>	205: R_XTENSA_SLOT0_OP	.text.at_tcpserver_listen+0x220
 208:	ff8f21        	l32r	a2, 44 <.text.at_tcpserver_listen+0x44>	208: R_XTENSA_SLOT0_OP	.text.at_tcpserver_listen+0x44
 20b:	000222        	l8ui	a2, a2, 0
 20e:	016216        	beqz	a2, 228 <.text.at_tcpserver_listen+0x228>	20e: R_XTENSA_SLOT0_OP	.text.at_tcpserver_listen+0x228
 211:	ff8d31        	l32r	a3, 48 <.text.at_tcpserver_listen+0x48>	211: R_XTENSA_SLOT0_OP	.text.at_tcpserver_listen+0x48
 214:	204ff0        	or	a4, a15, a15
 217:	10c122        	addi	a2, a1, 16
 21a:	ff9701        	l32r	a0, 78 <.text.at_tcpserver_listen+0x78>	21a: R_XTENSA_SLOT0_OP	.text.at_tcpserver_listen+0x78
	21a: R_XTENSA_ASM_EXPAND	ets_sprintf
 21d:	0000c0        	callx0	a0
 220:	10c122        	addi	a2, a1, 16
 223:	000106        	j	22b <.text.at_tcpserver_listen+0x22b>	223: R_XTENSA_SLOT0_OP	.text.at_tcpserver_listen+0x22b
 226:	00          	.byte 00
 227:	00          	.byte 00
 228:	ff8921        	l32r	a2, 4c <.text.at_tcpserver_listen+0x4c>	228: R_XTENSA_SLOT0_OP	.text.at_tcpserver_listen+0x4c
 22b:	ff9401        	l32r	a0, 7c <.text.at_tcpserver_listen+0x7c>	22b: R_XTENSA_SLOT0_OP	.text.at_tcpserver_listen+0x7c
	22b: R_XTENSA_ASM_EXPAND	at_port_print
 22e:	0000c0        	callx0	a0
 231:	0001c6        	j	23c <.text.at_tcpserver_listen+0x23c>	231: R_XTENSA_SLOT0_OP	.text.at_tcpserver_listen+0x23c
 234:	0c2d      	mov.n	a2, a12
 236:	ff9201        	l32r	a0, 80 <.text.at_tcpserver_listen+0x80>	236: R_XTENSA_SLOT0_OP	.text.at_tcpserver_listen+0x80
	236: R_XTENSA_ASM_EXPAND	espconn_disconnect
 239:	0000c0        	callx0	a0
 23c:	1f2102        	l32i	a0, a1, 124
 23f:	80a092        	movi	a9, 128
 242:	1e21c2        	l32i	a12, a1, 120
 245:	1d21d2        	l32i	a13, a1, 116
 248:	1c21e2        	l32i	a14, a1, 112
 24b:	1b21f2        	l32i	a15, a1, 108
 24e:	119a      	add.n	a1, a1, a9
 250:	f00d      	ret.n

Disassembly of section .text.at_tcpclient_connect_cb:

00000000 <.text.at_tcpclient_connect_cb>:
   0:	a9 06 00 00 		0: R_XTENSA_32	.irom.text
   4:	9b 06 00 00 		4: R_XTENSA_32	.irom.text
	...
	8: R_XTENSA_32	at_sslclient_recv
	c: R_XTENSA_32	at_tcpclient_recv
  10:	3c 00 00 00 		10: R_XTENSA_32	.text.at_tcpclient_sent_cb
  14:	38 00 00 00 		14: R_XTENSA_32	.text.at_tcpclient_write_cb
	...
	18: R_XTENSA_32	mdState
	1c: R_XTENSA_32	at_state
	20: R_XTENSA_32	pLink
  24:	aa 01 00 00 		24: R_XTENSA_32	.rodata.str1.1
  28:	7b 01 00 00 		28: R_XTENSA_32	.rodata.str1.1
  2c:	00 00 00 00 		2c: R_XTENSA_32	at_ipMux
  30:	61 01 00 00 		30: R_XTENSA_32	.rodata.str1.1
  34:	91 06 00 00 		34: R_XTENSA_32	.irom.text
	...
	38: R_XTENSA_32	specialAtState
	3c: R_XTENSA_32	ets_bzero
	40: R_XTENSA_32	os_printf_plus
	44: R_XTENSA_32	os_printf_plus
	48: R_XTENSA_32	espconn_set_opt
	4c: R_XTENSA_32	espconn_regist_recvcb
	50: R_XTENSA_32	espconn_regist_sentcb
	54: R_XTENSA_32	espconn_regist_write_finish
	58: R_XTENSA_32	espconn_set_opt
	5c: R_XTENSA_32	espconn_set_opt
	60: R_XTENSA_32	espconn_set_keepalive
	64: R_XTENSA_32	espconn_set_keepalive
	68: R_XTENSA_32	espconn_set_keepalive
	6c: R_XTENSA_32	espconn_clear_opt
	70: R_XTENSA_32	espconn_set_opt
	74: R_XTENSA_32	at_get_sys_msg_mask
	78: R_XTENSA_32	ets_sprintf
	7c: R_XTENSA_32	ets_sprintf
	80: R_XTENSA_32	at_port_print
	84: R_XTENSA_32	at_response_ok
  88:	90c112        	addi	a1, a1, -112
  8b:	1961d2        	s32i	a13, a1, 100
  8e:	02dd      	mov.n	a13, a2
  90:	020c      	movi.n	a2, 0
  92:	1b6102        	s32i	a0, a1, 108
  95:	1a61c2        	s32i	a12, a1, 104
  98:	1861e2        	s32i	a14, a1, 96
  9b:	146122        	s32i	a2, a1, 80
  9e:	029d27        	bne	a13, a2, a4 <.text.at_tcpclient_connect_cb+0xa4>	9e: R_XTENSA_SLOT0_OP	.text.at_tcpclient_connect_cb+0xa4
  a1:	0064c6        	j	238 <.text.at_tcpclient_connect_cb+0x238>	a1: R_XTENSA_SLOT0_OP	.text.at_tcpclient_connect_cb+0x238
  a4:	034c      	movi.n	a3, 64
  a6:	10c122        	addi	a2, a1, 16
  a9:	6dc8      	l32i.n	a12, a13, 24
  ab:	ffe401        	l32r	a0, 3c <.text.at_tcpclient_connect_cb+0x3c>	ab: R_XTENSA_SLOT0_OP	.text.at_tcpclient_connect_cb+0x3c
	ab: R_XTENSA_ASM_EXPAND	ets_bzero
  ae:	0000c0        	callx0	a0
  b1:	ffd321        	l32r	a2, 0 <.text.at_tcpclient_connect_cb>	b1: R_XTENSA_SLOT0_OP	.text.at_tcpclient_connect_cb
  b4:	ffe301        	l32r	a0, 40 <.text.at_tcpclient_connect_cb+0x40>	b4: R_XTENSA_SLOT0_OP	.text.at_tcpclient_connect_cb+0x40
	b4: R_XTENSA_ASM_EXPAND	os_printf_plus
  b7:	0000c0        	callx0	a0
  ba:	ffd221        	l32r	a2, 4 <.text.at_tcpclient_connect_cb+0x4>	ba: R_XTENSA_SLOT0_OP	.text.at_tcpclient_connect_cb+0x4
  bd:	203dd0        	or	a3, a13, a13
  c0:	ffe101        	l32r	a0, 44 <.text.at_tcpclient_connect_cb+0x44>	c0: R_XTENSA_SLOT0_OP	.text.at_tcpclient_connect_cb+0x44
	c0: R_XTENSA_ASM_EXPAND	os_printf_plus
  c3:	0000c0        	callx0	a0
  c6:	120c      	movi.n	a2, 1
  c8:	004c22        	s8i	a2, a12, 0
  cb:	020c      	movi.n	a2, 0
  cd:	3c29      	s32i.n	a2, a12, 12
  cf:	104c22        	s8i	a2, a12, 16
  d2:	220c      	movi.n	a2, 2
  d4:	1c29      	s32i.n	a2, a12, 4
  d6:	030c22        	l8ui	a2, a12, 3
  d9:	ffcb31        	l32r	a3, 8 <.text.at_tcpclient_connect_cb+0x8>	d9: R_XTENSA_SLOT0_OP	.text.at_tcpclient_connect_cb+0x8
  dc:	c2cc      	bnez.n	a2, ec <.text.at_tcpclient_connect_cb+0xec>	dc: R_XTENSA_SLOT0_OP	.text.at_tcpclient_connect_cb+0xec
  de:	031c      	movi.n	a3, 16
  e0:	202dd0        	or	a2, a13, a13
  e3:	ffd901        	l32r	a0, 48 <.text.at_tcpclient_connect_cb+0x48>	e3: R_XTENSA_SLOT0_OP	.text.at_tcpclient_connect_cb+0x48
	e3: R_XTENSA_ASM_EXPAND	espconn_set_opt
  e6:	0000c0        	callx0	a0
  e9:	ffc831        	l32r	a3, c <.text.at_tcpclient_connect_cb+0xc>	e9: R_XTENSA_SLOT0_OP	.text.at_tcpclient_connect_cb+0xc
  ec:	0d2d      	mov.n	a2, a13
  ee:	ffd701        	l32r	a0, 4c <.text.at_tcpclient_connect_cb+0x4c>	ee: R_XTENSA_SLOT0_OP	.text.at_tcpclient_connect_cb+0x4c
	ee: R_XTENSA_ASM_EXPAND	espconn_regist_recvcb
  f1:	0000c0        	callx0	a0
  f4:	ffc731        	l32r	a3, 10 <.text.at_tcpclient_connect_cb+0x10>	f4: R_XTENSA_SLOT0_OP	.text.at_tcpclient_connect_cb+0x10
  f7:	202dd0        	or	a2, a13, a13
  fa:	ffd501        	l32r	a0, 50 <.text.at_tcpclient_connect_cb+0x50>	fa: R_XTENSA_SLOT0_OP	.text.at_tcpclient_connect_cb+0x50
	fa: R_XTENSA_ASM_EXPAND	espconn_regist_sentcb
  fd:	0000c0        	callx0	a0
 100:	ffc531        	l32r	a3, 14 <.text.at_tcpclient_connect_cb+0x14>	100: R_XTENSA_SLOT0_OP	.text.at_tcpclient_connect_cb+0x14
 103:	202dd0        	or	a2, a13, a13
 106:	ffd301        	l32r	a0, 54 <.text.at_tcpclient_connect_cb+0x54>	106: R_XTENSA_SLOT0_OP	.text.at_tcpclient_connect_cb+0x54
	106: R_XTENSA_ASM_EXPAND	espconn_regist_write_finish
 109:	0000c0        	callx0	a0
 10c:	7c28      	l32i.n	a2, a12, 28
 10e:	130c      	movi.n	a3, 1
 110:	ffd201        	l32r	a0, 58 <.text.at_tcpclient_connect_cb+0x58>	110: R_XTENSA_SLOT0_OP	.text.at_tcpclient_connect_cb+0x58
	110: R_XTENSA_ASM_EXPAND	espconn_set_opt
 113:	0000c0        	callx0	a0
 116:	9c28      	l32i.n	a2, a12, 36
 118:	042216        	beqz	a2, 15e <.text.at_tcpclient_connect_cb+0x15e>	118: R_XTENSA_SLOT0_OP	.text.at_tcpclient_connect_cb+0x15e
 11b:	146122        	s32i	a2, a1, 80
 11e:	7c28      	l32i.n	a2, a12, 28
 120:	08a032        	movi	a3, 8
 123:	ffce01        	l32r	a0, 5c <.text.at_tcpclient_connect_cb+0x5c>	123: R_XTENSA_SLOT0_OP	.text.at_tcpclient_connect_cb+0x5c
	123: R_XTENSA_ASM_EXPAND	espconn_set_opt
 126:	0000c0        	callx0	a0
 129:	7c28      	l32i.n	a2, a12, 28
 12b:	50c142        	addi	a4, a1, 80
 12e:	030c      	movi.n	a3, 0
 130:	ffcc01        	l32r	a0, 60 <.text.at_tcpclient_connect_cb+0x60>	130: R_XTENSA_SLOT0_OP	.text.at_tcpclient_connect_cb+0x60
	130: R_XTENSA_ASM_EXPAND	espconn_set_keepalive
 133:	0000c0        	callx0	a0
 136:	7c28      	l32i.n	a2, a12, 28
 138:	130c      	movi.n	a3, 1
 13a:	50c142        	addi	a4, a1, 80
 13d:	146132        	s32i	a3, a1, 80
 140:	ffc901        	l32r	a0, 64 <.text.at_tcpclient_connect_cb+0x64>	140: R_XTENSA_SLOT0_OP	.text.at_tcpclient_connect_cb+0x64
	140: R_XTENSA_ASM_EXPAND	espconn_set_keepalive
 143:	0000c0        	callx0	a0
 146:	320c      	movi.n	a2, 3
 148:	146122        	s32i	a2, a1, 80
 14b:	7c28      	l32i.n	a2, a12, 28
 14d:	50c142        	addi	a4, a1, 80
 150:	230c      	movi.n	a3, 2
 152:	ffc501        	l32r	a0, 68 <.text.at_tcpclient_connect_cb+0x68>	152: R_XTENSA_SLOT0_OP	.text.at_tcpclient_connect_cb+0x68
	152: R_XTENSA_ASM_EXPAND	espconn_set_keepalive
 155:	0000c0        	callx0	a0
 158:	000306        	j	168 <.text.at_tcpclient_connect_cb+0x168>	158: R_XTENSA_SLOT0_OP	.text.at_tcpclient_connect_cb+0x168
 15b:	00          	.byte 00
 15c:	00          	.byte 00
 15d:	00          	.byte 00
 15e:	7c28      	l32i.n	a2, a12, 28
 160:	830c      	movi.n	a3, 8
 162:	ffc201        	l32r	a0, 6c <.text.at_tcpclient_connect_cb+0x6c>	162: R_XTENSA_SLOT0_OP	.text.at_tcpclient_connect_cb+0x6c
	162: R_XTENSA_ASM_EXPAND	espconn_clear_opt
 165:	0000c0        	callx0	a0
 168:	ffac21        	l32r	a2, 18 <.text.at_tcpclient_connect_cb+0x18>	168: R_XTENSA_SLOT0_OP	.text.at_tcpclient_connect_cb+0x18
 16b:	fface1        	l32r	a14, 1c <.text.at_tcpclient_connect_cb+0x1c>	16b: R_XTENSA_SLOT0_OP	.text.at_tcpclient_connect_cb+0x1c
 16e:	330c      	movi.n	a3, 3
 170:	0239      	s32i.n	a3, a2, 0
 172:	0e28      	l32i.n	a2, a14, 0
 174:	fbc222        	addi	a2, a2, -5
 177:	19b237        	bgeu	a2, a3, 194 <.text.at_tcpclient_connect_cb+0x194>	177: R_XTENSA_SLOT0_OP	.text.at_tcpclient_connect_cb+0x194
 17a:	020c      	movi.n	a2, 0
 17c:	014c22        	s8i	a2, a12, 1
 17f:	ffa821        	l32r	a2, 20 <.text.at_tcpclient_connect_cb+0x20>	17f: R_XTENSA_SLOT0_OP	.text.at_tcpclient_connect_cb+0x20
 182:	430c      	movi.n	a3, 4
 184:	002222        	l32i	a2, a2, 0
 187:	072222        	l32i	a2, a2, 28
 18a:	ffb901        	l32r	a0, 70 <.text.at_tcpclient_connect_cb+0x70>	18a: R_XTENSA_SLOT0_OP	.text.at_tcpclient_connect_cb+0x70
	18a: R_XTENSA_ASM_EXPAND	espconn_set_opt
 18d:	0000c0        	callx0	a0
 190:	002906        	j	238 <.text.at_tcpclient_connect_cb+0x238>	190: R_XTENSA_SLOT0_OP	.text.at_tcpclient_connect_cb+0x238
 193:	00          	.byte 00
 194:	ffb801        	l32r	a0, 74 <.text.at_tcpclient_connect_cb+0x74>	194: R_XTENSA_SLOT0_OP	.text.at_tcpclient_connect_cb+0x74
	194: R_XTENSA_ASM_EXPAND	at_get_sys_msg_mask
 197:	0000c0        	callx0	a0
 19a:	576217        	bbci	a2, 1, 1f5 <.text.at_tcpclient_connect_cb+0x1f5>	19a: R_XTENSA_SLOT0_OP	.text.at_tcpclient_connect_cb+0x1f5
 19d:	7c28      	l32i.n	a2, a12, 28
 19f:	030c52        	l8ui	a5, a12, 3
 1a2:	2228      	l32i.n	a2, a2, 8
 1a4:	2d38      	l32i.n	a3, a13, 8
 1a6:	020c42        	l8ui	a4, a12, 2
 1a9:	0d0272        	l8ui	a7, a2, 13
 1ac:	0c0262        	l8ui	a6, a2, 12
 1af:	859c      	beqz.n	a5, 1cb <.text.at_tcpclient_connect_cb+0x1cb>	1af: R_XTENSA_SLOT0_OP	.text.at_tcpclient_connect_cb+0x1cb
 1b1:	1358      	l32i.n	a5, a3, 4
 1b3:	3159      	s32i.n	a5, a1, 12
 1b5:	0338      	l32i.n	a3, a3, 0
 1b7:	2139      	s32i.n	a3, a1, 8
 1b9:	0f0232        	l8ui	a3, a2, 15
 1bc:	1139      	s32i.n	a3, a1, 4
 1be:	0e0222        	l8ui	a2, a2, 14
 1c1:	ff9831        	l32r	a3, 24 <.text.at_tcpclient_connect_cb+0x24>	1c1: R_XTENSA_SLOT0_OP	.text.at_tcpclient_connect_cb+0x24
 1c4:	0129      	s32i.n	a2, a1, 0
 1c6:	3c58      	l32i.n	a5, a12, 12
 1c8:	0005c6        	j	1e3 <.text.at_tcpclient_connect_cb+0x1e3>	1c8: R_XTENSA_SLOT0_OP	.text.at_tcpclient_connect_cb+0x1e3
 1cb:	1358      	l32i.n	a5, a3, 4
 1cd:	3159      	s32i.n	a5, a1, 12
 1cf:	0338      	l32i.n	a3, a3, 0
 1d1:	2139      	s32i.n	a3, a1, 8
 1d3:	0f0232        	l8ui	a3, a2, 15
 1d6:	1139      	s32i.n	a3, a1, 4
 1d8:	0e0222        	l8ui	a2, a2, 14
 1db:	ff9331        	l32r	a3, 28 <.text.at_tcpclient_connect_cb+0x28>	1db: R_XTENSA_SLOT0_OP	.text.at_tcpclient_connect_cb+0x28
 1de:	0129      	s32i.n	a2, a1, 0
 1e0:	032c52        	l32i	a5, a12, 12
 1e3:	10c122        	addi	a2, a1, 16
 1e6:	ffa401        	l32r	a0, 78 <.text.at_tcpclient_connect_cb+0x78>	1e6: R_XTENSA_SLOT0_OP	.text.at_tcpclient_connect_cb+0x78
	1e6: R_XTENSA_ASM_EXPAND	ets_sprintf
 1e9:	0000c0        	callx0	a0
 1ec:	10c122        	addi	a2, a1, 16
 1ef:	000806        	j	213 <.text.at_tcpclient_connect_cb+0x213>	1ef: R_XTENSA_SLOT0_OP	.text.at_tcpclient_connect_cb+0x213
 1f2:	00          	.byte 00
 1f3:	00          	.byte 00
 1f4:	00          	.byte 00
 1f5:	ff8d21        	l32r	a2, 2c <.text.at_tcpclient_connect_cb+0x2c>	1f5: R_XTENSA_SLOT0_OP	.text.at_tcpclient_connect_cb+0x2c
 1f8:	000222        	l8ui	a2, a2, 0
 1fb:	129c      	beqz.n	a2, 210 <.text.at_tcpclient_connect_cb+0x210>	1fb: R_XTENSA_SLOT0_OP	.text.at_tcpclient_connect_cb+0x210
 1fd:	020c42        	l8ui	a4, a12, 2
 200:	ff8c31        	l32r	a3, 30 <.text.at_tcpclient_connect_cb+0x30>	200: R_XTENSA_SLOT0_OP	.text.at_tcpclient_connect_cb+0x30
 203:	10c122        	addi	a2, a1, 16
 206:	ff9d01        	l32r	a0, 7c <.text.at_tcpclient_connect_cb+0x7c>	206: R_XTENSA_SLOT0_OP	.text.at_tcpclient_connect_cb+0x7c
	206: R_XTENSA_ASM_EXPAND	ets_sprintf
 209:	0000c0        	callx0	a0
 20c:	fff706        	j	1ec <.text.at_tcpclient_connect_cb+0x1ec>	20c: R_XTENSA_SLOT0_OP	.text.at_tcpclient_connect_cb+0x1ec
 20f:	00          	.byte 00
 210:	ff8921        	l32r	a2, 34 <.text.at_tcpclient_connect_cb+0x34>	210: R_XTENSA_SLOT0_OP	.text.at_tcpclient_connect_cb+0x34
 213:	ff9b01        	l32r	a0, 80 <.text.at_tcpclient_connect_cb+0x80>	213: R_XTENSA_SLOT0_OP	.text.at_tcpclient_connect_cb+0x80
	213: R_XTENSA_ASM_EXPAND	at_port_print
 216:	0000c0        	callx0	a0
 219:	010c22        	l8ui	a2, a12, 1
 21c:	181266        	bnei	a2, 1, 238 <.text.at_tcpclient_connect_cb+0x238>	21c: R_XTENSA_SLOT0_OP	.text.at_tcpclient_connect_cb+0x238
 21f:	ff9901        	l32r	a0, 84 <.text.at_tcpclient_connect_cb+0x84>	21f: R_XTENSA_SLOT0_OP	.text.at_tcpclient_connect_cb+0x84
	21f: R_XTENSA_ASM_EXPAND	at_response_ok
 222:	0000c0        	callx0	a0
 225:	020c      	movi.n	a2, 0
 227:	014c22        	s8i	a2, a12, 1
 22a:	ff8321        	l32r	a2, 38 <.text.at_tcpclient_connect_cb+0x38>	22a: R_XTENSA_SLOT0_OP	.text.at_tcpclient_connect_cb+0x38
 22d:	130c      	movi.n	a3, 1
 22f:	004232        	s8i	a3, a2, 0
 232:	00a022        	movi	a2, 0
 235:	006e22        	s32i	a2, a14, 0
 238:	1b2102        	l32i	a0, a1, 108
 23b:	1a21c2        	l32i	a12, a1, 104
 23e:	1921d2        	l32i	a13, a1, 100
 241:	1821e2        	l32i	a14, a1, 96
 244:	70c112        	addi	a1, a1, 112
 247:	f00d      	ret.n

Disassembly of section .text.at_udpsend_dns_found:

00000000 <.text.at_udpsend_dns_found>:
	...
	0: R_XTENSA_32	specialAtState
	4: R_XTENSA_32	at_state
	8: R_XTENSA_32	pDataLine
	c: R_XTENSA_32	at_dataLine
  10:	d9 01 00 00 		10: R_XTENSA_32	.rodata.str1.1
	...
	14: R_XTENSA_32	at_response_error
	18: R_XTENSA_32	ets_memcpy
	1c: R_XTENSA_32	espconn_clear_opt
	20: R_XTENSA_32	at_response_ok
	24: R_XTENSA_32	at_port_print
  28:	f0c112        	addi	a1, a1, -16
  2b:	11d9      	s32i.n	a13, a1, 4
  2d:	3109      	s32i.n	a0, a1, 12
  2f:	21c9      	s32i.n	a12, a1, 8
  31:	fff4d1        	l32r	a13, 4 <.text.at_udpsend_dns_found+0x4>	31: R_XTENSA_SLOT0_OP	.text.at_udpsend_dns_found+0x4
  34:	448c      	beqz.n	a4, 3c <.text.at_udpsend_dns_found+0x3c>	34: R_XTENSA_SLOT0_OP	.text.at_udpsend_dns_found+0x3c
  36:	238c      	beqz.n	a3, 3c <.text.at_udpsend_dns_found+0x3c>	36: R_XTENSA_SLOT0_OP	.text.at_udpsend_dns_found+0x3c
  38:	0328      	l32i.n	a2, a3, 0
  3a:	42dc      	bnez.n	a2, 52 <.text.at_udpsend_dns_found+0x52>	3a: R_XTENSA_SLOT0_OP	.text.at_udpsend_dns_found+0x52
  3c:	fff601        	l32r	a0, 14 <.text.at_udpsend_dns_found+0x14>	3c: R_XTENSA_SLOT0_OP	.text.at_udpsend_dns_found+0x14
	3c: R_XTENSA_ASM_EXPAND	at_response_error
  3f:	0000c0        	callx0	a0
  42:	ffef21        	l32r	a2, 0 <.text.at_udpsend_dns_found>	42: R_XTENSA_SLOT0_OP	.text.at_udpsend_dns_found
  45:	130c      	movi.n	a3, 1
  47:	004232        	s8i	a3, a2, 0
  4a:	020c      	movi.n	a2, 0
  4c:	0d29      	s32i.n	a2, a13, 0
  4e:	000f86        	j	90 <.text.at_udpsend_dns_found+0x90>	4e: R_XTENSA_SLOT0_OP	.text.at_udpsend_dns_found+0x90
  51:	00          	.byte 00
  52:	64c8      	l32i.n	a12, a4, 24
  54:	7c28      	l32i.n	a2, a12, 28
  56:	6c58      	l32i.n	a5, a12, 24
  58:	2248      	l32i.n	a4, a2, 8
  5a:	0459      	s32i.n	a5, a4, 0
  5c:	2228      	l32i.n	a2, a2, 8
  5e:	440c      	movi.n	a4, 4
  60:	0cc222        	addi	a2, a2, 12
  63:	ffed01        	l32r	a0, 18 <.text.at_udpsend_dns_found+0x18>	63: R_XTENSA_SLOT0_OP	.text.at_udpsend_dns_found+0x18
	63: R_XTENSA_ASM_EXPAND	ets_memcpy
  66:	0000c0        	callx0	a0
  69:	320c      	movi.n	a2, 3
  6b:	ffe841        	l32r	a4, c <.text.at_udpsend_dns_found+0xc>	6b: R_XTENSA_SLOT0_OP	.text.at_udpsend_dns_found+0xc
  6e:	ffe631        	l32r	a3, 8 <.text.at_udpsend_dns_found+0x8>	6e: R_XTENSA_SLOT0_OP	.text.at_udpsend_dns_found+0x8
  71:	1c29      	s32i.n	a2, a12, 4
  73:	0d29      	s32i.n	a2, a13, 0
  75:	7c28      	l32i.n	a2, a12, 28
  77:	0349      	s32i.n	a4, a3, 0
  79:	430c      	movi.n	a3, 4
  7b:	ffe801        	l32r	a0, 1c <.text.at_udpsend_dns_found+0x1c>	7b: R_XTENSA_SLOT0_OP	.text.at_udpsend_dns_found+0x1c
	7b: R_XTENSA_ASM_EXPAND	espconn_clear_opt
  7e:	0000c0        	callx0	a0
  81:	ffe701        	l32r	a0, 20 <.text.at_udpsend_dns_found+0x20>	81: R_XTENSA_SLOT0_OP	.text.at_udpsend_dns_found+0x20
	81: R_XTENSA_ASM_EXPAND	at_response_ok
  84:	0000c0        	callx0	a0
  87:	ffe221        	l32r	a2, 10 <.text.at_udpsend_dns_found+0x10>	87: R_XTENSA_SLOT0_OP	.text.at_udpsend_dns_found+0x10
  8a:	ffe601        	l32r	a0, 24 <.text.at_udpsend_dns_found+0x24>	8a: R_XTENSA_SLOT0_OP	.text.at_udpsend_dns_found+0x24
	8a: R_XTENSA_ASM_EXPAND	at_port_print
  8d:	0000c0        	callx0	a0
  90:	3108      	l32i.n	a0, a1, 12
  92:	21c8      	l32i.n	a12, a1, 8
  94:	11d8      	l32i.n	a13, a1, 4
  96:	10c112        	addi	a1, a1, 16
  99:	f00d      	ret.n

Disassembly of section .text.at_trans_dns_found:

00000000 <.text.at_trans_dns_found>:
	...
	0: R_XTENSA_32	at_state
	4: R_XTENSA_32	at_transmit_check_ip_timer
	8: R_XTENSA_32	.bss.host_ip
	c: R_XTENSA_32	pLink
	10: R_XTENSA_32	at_udpclient_recv
  14:	0b 0f 00 00 	
  18:	3c 07 00 00 		18: R_XTENSA_32	.irom.text
  1c:	0c 0f 00 00 	
	...
	20: R_XTENSA_32	.bss.at_linkNum
	24: R_XTENSA_32	ets_timer_arm_new
	28: R_XTENSA_32	ets_memcpy
	2c: R_XTENSA_32	ets_memcpy
	30: R_XTENSA_32	espconn_port
	34: R_XTENSA_32	espconn_regist_recvcb
	38: R_XTENSA_32	vPortFree
	3c: R_XTENSA_32	vPortFree
  40:	fff021        	l32r	a2, 0 <.text.at_trans_dns_found>	40: R_XTENSA_SLOT0_OP	.text.at_trans_dns_found
  43:	f0c112        	addi	a1, a1, -16
  46:	0228      	l32i.n	a2, a2, 0
  48:	11d9      	s32i.n	a13, a1, 4
  4a:	01e9      	s32i.n	a14, a1, 0
  4c:	3109      	s32i.n	a0, a1, 12
  4e:	21c9      	s32i.n	a12, a1, 8
  50:	03ed      	mov.n	a14, a3
  52:	04dd      	mov.n	a13, a4
  54:	025226        	beqi	a2, 5, 5a <.text.at_trans_dns_found+0x5a>	54: R_XTENSA_SLOT0_OP	.text.at_trans_dns_found+0x5a
  57:	003646        	j	134 <.text.at_trans_dns_found+0x134>	57: R_XTENSA_SLOT0_OP	.text.at_trans_dns_found+0x134
  5a:	64c8      	l32i.n	a12, a4, 24
  5c:	038c      	beqz.n	a3, 60 <.text.at_trans_dns_found+0x60>	5c: R_XTENSA_SLOT0_OP	.text.at_trans_dns_found+0x60
  5e:	4cdc      	bnez.n	a12, 76 <.text.at_trans_dns_found+0x76>	5e: R_XTENSA_SLOT0_OP	.text.at_trans_dns_found+0x76
  60:	150c      	movi.n	a5, 1
  62:	ffe821        	l32r	a2, 4 <.text.at_trans_dns_found+0x4>	62: R_XTENSA_SLOT0_OP	.text.at_trans_dns_found+0x4
  65:	054d      	mov.n	a4, a5
  67:	64a032        	movi	a3, 100
  6a:	ffee01        	l32r	a0, 24 <.text.at_trans_dns_found+0x24>	6a: R_XTENSA_SLOT0_OP	.text.at_trans_dns_found+0x24
	6a: R_XTENSA_ASM_EXPAND	ets_timer_arm_new
  6d:	0000c0        	callx0	a0
  70:	003006        	j	134 <.text.at_trans_dns_found+0x134>	70: R_XTENSA_SLOT0_OP	.text.at_trans_dns_found+0x134
  73:	00          	.byte 00
  74:	00          	.byte 00
  75:	00          	.byte 00
  76:	1c28      	l32i.n	a2, a12, 4
  78:	fe4256        	bnez	a2, 60 <.text.at_trans_dns_found+0x60>	78: R_XTENSA_SLOT0_OP	.text.at_trans_dns_found+0x60
  7b:	ffe321        	l32r	a2, 8 <.text.at_trans_dns_found+0x8>	7b: R_XTENSA_SLOT0_OP	.text.at_trans_dns_found+0x8
  7e:	0228      	l32i.n	a2, a2, 0
  80:	0b0256        	bnez	a2, 134 <.text.at_trans_dns_found+0x134>	80: R_XTENSA_SLOT0_OP	.text.at_trans_dns_found+0x134
  83:	0328      	l32i.n	a2, a3, 0
  85:	0ab216        	beqz	a2, 134 <.text.at_trans_dns_found+0x134>	85: R_XTENSA_SLOT0_OP	.text.at_trans_dns_found+0x134
  88:	2428      	l32i.n	a2, a4, 8
  8a:	440c      	movi.n	a4, 4
  8c:	22cb      	addi.n	a2, a2, 12
  8e:	ffe601        	l32r	a0, 28 <.text.at_trans_dns_found+0x28>	8e: R_XTENSA_SLOT0_OP	.text.at_trans_dns_found+0x28
	8e: R_XTENSA_ASM_EXPAND	ets_memcpy
  91:	0000c0        	callx0	a0
  94:	440c      	movi.n	a4, 4
  96:	203ee0        	or	a3, a14, a14
  99:	12cc22        	addi	a2, a12, 18
  9c:	ffe401        	l32r	a0, 2c <.text.at_trans_dns_found+0x2c>	9c: R_XTENSA_SLOT0_OP	.text.at_trans_dns_found+0x2c
	9c: R_XTENSA_ASM_EXPAND	ets_memcpy
  9f:	0000c0        	callx0	a0
  a2:	0d28      	l32i.n	a2, a13, 0
  a4:	31b266        	bnei	a2, 16, d9 <.text.at_trans_dns_found+0xd9>	a4: R_XTENSA_SLOT0_OP	.text.at_trans_dns_found+0xd9
  a7:	110c22        	l8ui	a2, a12, 17
  aa:	121266        	bnei	a2, 1, c0 <.text.at_trans_dns_found+0xc0>	aa: R_XTENSA_SLOT0_OP	.text.at_trans_dns_found+0xc0
  ad:	ffd721        	l32r	a2, c <.text.at_trans_dns_found+0xc>	ad: R_XTENSA_SLOT0_OP	.text.at_trans_dns_found+0xc
  b0:	0228      	l32i.n	a2, a2, 0
  b2:	072222        	l32i	a2, a2, 28
  b5:	0222e2        	l32i	a14, a2, 8
  b8:	ffde01        	l32r	a0, 30 <.text.at_trans_dns_found+0x30>	b8: R_XTENSA_SLOT0_OP	.text.at_trans_dns_found+0x30
	b8: R_XTENSA_ASM_EXPAND	espconn_port
  bb:	0000c0        	callx0	a0
  be:	1e29      	s32i.n	a2, a14, 4
  c0:	102c32        	l32i	a3, a12, 64
  c3:	0d2d      	mov.n	a2, a13
  c5:	0003c0        	callx0	a3
  c8:	742020        	extui	a2, a2, 0, 8
  cb:	32cc      	bnez.n	a2, d2 <.text.at_trans_dns_found+0xd2>	cb: R_XTENSA_SLOT0_OP	.text.at_trans_dns_found+0xd2
  cd:	120c      	movi.n	a2, 1
  cf:	000046        	j	d4 <.text.at_trans_dns_found+0xd4>	cf: R_XTENSA_SLOT0_OP	.text.at_trans_dns_found+0xd4
  d2:	020c      	movi.n	a2, 0
  d4:	1c29      	s32i.n	a2, a12, 4
  d6:	ffe186        	j	60 <.text.at_trans_dns_found+0x60>	d6: R_XTENSA_SLOT0_OP	.text.at_trans_dns_found+0x60
  d9:	83c266        	bnei	a2, 32, 60 <.text.at_trans_dns_found+0x60>	d9: R_XTENSA_SLOT0_OP	.text.at_trans_dns_found+0x60
  dc:	120c      	movi.n	a2, 1
  de:	004c22        	s8i	a2, a12, 0
  e1:	ffcb31        	l32r	a3, 10 <.text.at_trans_dns_found+0x10>	e1: R_XTENSA_SLOT0_OP	.text.at_trans_dns_found+0x10
  e4:	020c      	movi.n	a2, 0
  e6:	3c29      	s32i.n	a2, a12, 12
  e8:	104c22        	s8i	a2, a12, 16
  eb:	202dd0        	or	a2, a13, a13
  ee:	ffd101        	l32r	a0, 34 <.text.at_trans_dns_found+0x34>	ee: R_XTENSA_SLOT0_OP	.text.at_trans_dns_found+0x34
	ee: R_XTENSA_ASM_EXPAND	espconn_regist_recvcb
  f1:	0000c0        	callx0	a0
  f4:	102c32        	l32i	a3, a12, 64
  f7:	0d2d      	mov.n	a2, a13
  f9:	0003c0        	callx0	a3
  fc:	742020        	extui	a2, a2, 0, 8
  ff:	f5d216        	beqz	a2, 60 <.text.at_trans_dns_found+0x60>	ff: R_XTENSA_SLOT0_OP	.text.at_trans_dns_found+0x60
 102:	020c      	movi.n	a2, 0
 104:	004c22        	s8i	a2, a12, 0
 107:	7c28      	l32i.n	a2, a12, 28
 109:	ffc3d1        	l32r	a13, 18 <.text.at_trans_dns_found+0x18>	109: R_XTENSA_SLOT0_OP	.text.at_trans_dns_found+0x18
 10c:	ffc241        	l32r	a4, 14 <.text.at_trans_dns_found+0x14>	10c: R_XTENSA_SLOT0_OP	.text.at_trans_dns_found+0x14
 10f:	2228      	l32i.n	a2, a2, 8
 111:	0d3d      	mov.n	a3, a13
 113:	ffc901        	l32r	a0, 38 <.text.at_trans_dns_found+0x38>	113: R_XTENSA_SLOT0_OP	.text.at_trans_dns_found+0x38
	113: R_XTENSA_ASM_EXPAND	vPortFree
 116:	0000c0        	callx0	a0
 119:	072c22        	l32i	a2, a12, 28
 11c:	ffc041        	l32r	a4, 1c <.text.at_trans_dns_found+0x1c>	11c: R_XTENSA_SLOT0_OP	.text.at_trans_dns_found+0x1c
 11f:	203dd0        	or	a3, a13, a13
 122:	ffc601        	l32r	a0, 3c <.text.at_trans_dns_found+0x3c>	122: R_XTENSA_SLOT0_OP	.text.at_trans_dns_found+0x3c
	122: R_XTENSA_ASM_EXPAND	vPortFree
 125:	0000c0        	callx0	a0
 128:	ffbe31        	l32r	a3, 20 <.text.at_trans_dns_found+0x20>	128: R_XTENSA_SLOT0_OP	.text.at_trans_dns_found+0x20
 12b:	000322        	l8ui	a2, a3, 0
 12e:	ffc222        	addi	a2, a2, -1
 131:	004322        	s8i	a2, a3, 0
 134:	3108      	l32i.n	a0, a1, 12
 136:	21c8      	l32i.n	a12, a1, 8
 138:	11d8      	l32i.n	a13, a1, 4
 13a:	01e8      	l32i.n	a14, a1, 0
 13c:	10c112        	addi	a1, a1, 16
 13f:	f00d      	ret.n

Disassembly of section .text.at_transmit_check_ip:

00000000 <at_transmit_check_ip-0x30>:
	...
	0: R_XTENSA_32	at_transmit_check_ip_timer
	4: R_XTENSA_32	pLink
   8:	40 00 00 00 		8: R_XTENSA_32	.text.at_trans_dns_found
	...
	c: R_XTENSA_32	.bss.host_ip
	10: R_XTENSA_32	ets_timer_disarm
	14: R_XTENSA_32	ets_memcmp
	18: R_XTENSA_32	ets_memset
	1c: R_XTENSA_32	at_read_param_from_flash
	20: R_XTENSA_32	ets_strlen
	24: R_XTENSA_32	espconn_gethostbyname
	28: R_XTENSA_32	espconn_port
	2c: R_XTENSA_32	ets_timer_arm_new

00000030 <at_transmit_check_ip>:
  30:	a0c112        	addi	a1, a1, -96
  33:	1561d2        	s32i	a13, a1, 84
  36:	fff2d1        	l32r	a13, 0 <at_transmit_check_ip-0x30>	36: R_XTENSA_SLOT0_OP	.text.at_transmit_check_ip
  39:	1661c2        	s32i	a12, a1, 88
  3c:	0d2d      	mov.n	a2, a13
  3e:	176102        	s32i	a0, a1, 92
  41:	1461e2        	s32i	a14, a1, 80
  44:	fff301        	l32r	a0, 10 <at_transmit_check_ip-0x20>	44: R_XTENSA_SLOT0_OP	.text.at_transmit_check_ip+0x10
	44: R_XTENSA_ASM_EXPAND	ets_timer_disarm
  47:	0000c0        	callx0	a0
  4a:	ffeec1        	l32r	a12, 4 <at_transmit_check_ip-0x2c>	4a: R_XTENSA_SLOT0_OP	.text.at_transmit_check_ip+0x4
  4d:	0c28      	l32i.n	a2, a12, 0
  4f:	7238      	l32i.n	a3, a2, 28
  51:	097316        	beqz	a3, ec <at_transmit_check_ip+0xbc>	51: R_XTENSA_SLOT0_OP	.text.at_transmit_check_ip+0xec
  54:	0338      	l32i.n	a3, a3, 0
  56:	02b326        	beqi	a3, 16, 5c <at_transmit_check_ip+0x2c>	56: R_XTENSA_SLOT0_OP	.text.at_transmit_check_ip+0x5c
  59:	002006        	j	dd <at_transmit_check_ip+0xad>	59: R_XTENSA_SLOT0_OP	.text.at_transmit_check_ip+0xdd
  5c:	1238      	l32i.n	a3, a2, 4
  5e:	07b356        	bnez	a3, dd <at_transmit_check_ip+0xad>	5e: R_XTENSA_SLOT0_OP	.text.at_transmit_check_ip+0xdd
  61:	f37c      	movi.n	a3, -1
  63:	106132        	s32i	a3, a1, 64
  66:	440c      	movi.n	a4, 4
  68:	40c132        	addi	a3, a1, 64
  6b:	12c222        	addi	a2, a2, 18
  6e:	ffe901        	l32r	a0, 14 <at_transmit_check_ip-0x1c>	6e: R_XTENSA_SLOT0_OP	.text.at_transmit_check_ip+0x14
	6e: R_XTENSA_ASM_EXPAND	ets_memcmp
  71:	0000c0        	callx0	a0
  74:	82fc      	bnez.n	a2, b0 <at_transmit_check_ip+0x80>	74: R_XTENSA_SLOT0_OP	.text.at_transmit_check_ip+0xb0
  76:	044c      	movi.n	a4, 64
  78:	030c      	movi.n	a3, 0
  7a:	012d      	mov.n	a2, a1
  7c:	ffe701        	l32r	a0, 18 <at_transmit_check_ip-0x18>	7c: R_XTENSA_SLOT0_OP	.text.at_transmit_check_ip+0x18
	7c: R_XTENSA_ASM_EXPAND	ets_memset
  7f:	0000c0        	callx0	a0
  82:	012d      	mov.n	a2, a1
  84:	60a042        	movi	a4, 96
  87:	40a032        	movi	a3, 64
  8a:	ffe401        	l32r	a0, 1c <at_transmit_check_ip-0x14>	8a: R_XTENSA_SLOT0_OP	.text.at_transmit_check_ip+0x1c
	8a: R_XTENSA_ASM_EXPAND	at_read_param_from_flash
  8d:	0000c0        	callx0	a0
  90:	012d      	mov.n	a2, a1
  92:	ffe301        	l32r	a0, 20 <at_transmit_check_ip-0x10>	92: R_XTENSA_SLOT0_OP	.text.at_transmit_check_ip+0x20
	92: R_XTENSA_ASM_EXPAND	ets_strlen
  95:	0000c0        	callx0	a0
  98:	050216        	beqz	a2, ec <at_transmit_check_ip+0xbc>	98: R_XTENSA_SLOT0_OP	.text.at_transmit_check_ip+0xec
  9b:	0c28      	l32i.n	a2, a12, 0
  9d:	ffda51        	l32r	a5, 8 <at_transmit_check_ip-0x28>	9d: R_XTENSA_SLOT0_OP	.text.at_transmit_check_ip+0x8
  a0:	ffdb41        	l32r	a4, c <at_transmit_check_ip-0x24>	a0: R_XTENSA_SLOT0_OP	.text.at_transmit_check_ip+0xc
  a3:	7228      	l32i.n	a2, a2, 28
  a5:	013d      	mov.n	a3, a1
  a7:	ffdf01        	l32r	a0, 24 <at_transmit_check_ip-0xc>	a7: R_XTENSA_SLOT0_OP	.text.at_transmit_check_ip+0x24
	a7: R_XTENSA_ASM_EXPAND	espconn_gethostbyname
  aa:	0000c0        	callx0	a0
  ad:	000ec6        	j	ec <at_transmit_check_ip+0xbc>	ad: R_XTENSA_SLOT0_OP	.text.at_transmit_check_ip+0xec
  b0:	0c28      	l32i.n	a2, a12, 0
  b2:	7238      	l32i.n	a3, a2, 28
  b4:	23e8      	l32i.n	a14, a3, 8
  b6:	3eac      	beqz.n	a14, dd <at_transmit_check_ip+0xad>	b6: R_XTENSA_SLOT0_OP	.text.at_transmit_check_ip+0xdd
  b8:	110222        	l8ui	a2, a2, 17
  bb:	071266        	bnei	a2, 1, c6 <at_transmit_check_ip+0x96>	bb: R_XTENSA_SLOT0_OP	.text.at_transmit_check_ip+0xc6
  be:	ffda01        	l32r	a0, 28 <at_transmit_check_ip-0x8>	be: R_XTENSA_SLOT0_OP	.text.at_transmit_check_ip+0x28
	be: R_XTENSA_ASM_EXPAND	espconn_port
  c1:	0000c0        	callx0	a0
  c4:	1e29      	s32i.n	a2, a14, 4
  c6:	0c28      	l32i.n	a2, a12, 0
  c8:	102232        	l32i	a3, a2, 64
  cb:	072222        	l32i	a2, a2, 28
  ce:	0003c0        	callx0	a3
  d1:	742020        	extui	a2, a2, 0, 8
  d4:	52cc      	bnez.n	a2, dd <at_transmit_check_ip+0xad>	d4: R_XTENSA_SLOT0_OP	.text.at_transmit_check_ip+0xdd
  d6:	0c28      	l32i.n	a2, a12, 0
  d8:	130c      	movi.n	a3, 1
  da:	016232        	s32i	a3, a2, 4
  dd:	150c      	movi.n	a5, 1
  df:	054d      	mov.n	a4, a5
  e1:	64a032        	movi	a3, 100
  e4:	0d2d      	mov.n	a2, a13
  e6:	ffd101        	l32r	a0, 2c <at_transmit_check_ip-0x4>	e6: R_XTENSA_SLOT0_OP	.text.at_transmit_check_ip+0x2c
	e6: R_XTENSA_ASM_EXPAND	ets_timer_arm_new
  e9:	0000c0        	callx0	a0
  ec:	172102        	l32i	a0, a1, 92
  ef:	1621c2        	l32i	a12, a1, 88
  f2:	1521d2        	l32i	a13, a1, 84
  f5:	1421e2        	l32i	a14, a1, 80
  f8:	60c112        	addi	a1, a1, 96
  fb:	f00d      	ret.n

Disassembly of section .text.at_enter_special_state:

00000000 <at_enter_special_state-0x4>:
   0:	00 00 00 00 		0: R_XTENSA_32	specialAtState

00000004 <at_enter_special_state>:
   4:	ffff21        	l32r	a2, 0 <at_enter_special_state-0x4>	4: R_XTENSA_SLOT0_OP	.text.at_enter_special_state
   7:	030c      	movi.n	a3, 0
   9:	004232        	s8i	a3, a2, 0
   c:	f00d      	ret.n

Disassembly of section .text.at_leave_special_state:

00000000 <at_leave_special_state-0x8>:
	...
	0: R_XTENSA_32	specialAtState
	4: R_XTENSA_32	at_state

00000008 <at_leave_special_state>:
   8:	fffe21        	l32r	a2, 0 <at_leave_special_state-0x8>	8: R_XTENSA_SLOT0_OP	.text.at_leave_special_state
   b:	130c      	movi.n	a3, 1
   d:	004232        	s8i	a3, a2, 0
  10:	fffd21        	l32r	a2, 4 <at_leave_special_state-0x4>	10: R_XTENSA_SLOT0_OP	.text.at_leave_special_state+0x4
  13:	030c      	movi.n	a3, 0
  15:	0239      	s32i.n	a3, a2, 0
  17:	f00d      	ret.n

Disassembly of section .text.at_get_version:

00000000 <at_get_version-0x4>:
   0:	00 06 07 01 	

00000004 <at_get_version>:
   4:	ffff21        	l32r	a2, 0 <at_get_version-0x4>	4: R_XTENSA_SLOT0_OP	.text.at_get_version
   7:	f00d      	ret.n

Disassembly of section .text.at_get_next_int_dec:

00000000 <at_get_next_int_dec-0x10>:
   0:	2a 07 00 00 		0: R_XTENSA_32	.irom.text
   4:	12 07 00 00 		4: R_XTENSA_32	.irom.text
	...
	8: R_XTENSA_32	os_printf_plus
	c: R_XTENSA_32	os_printf_plus

00000010 <at_get_next_int_dec>:
  10:	d0c112        	addi	a1, a1, -48
  13:	91d9      	s32i.n	a13, a1, 36
  15:	03dd      	mov.n	a13, a3
  17:	030c      	movi.n	a3, 0
  19:	81e9      	s32i.n	a14, a1, 32
  1b:	71f9      	s32i.n	a15, a1, 28
  1d:	02ed      	mov.n	a14, a2
  1f:	04fd      	mov.n	a15, a4
  21:	120c      	movi.n	a2, 1
  23:	034d      	mov.n	a4, a3
  25:	8342d0        	moveqz	a4, a2, a13
  28:	9323f0        	movnez	a2, a3, a15
  2b:	b109      	s32i.n	a0, a1, 44
  2d:	a1c9      	s32i.n	a12, a1, 40
  2f:	202420        	or	a2, a4, a2
  32:	021237        	beq	a2, a3, 38 <at_get_next_int_dec+0x28>	32: R_XTENSA_SLOT0_OP	.text.at_get_next_int_dec+0x38
  35:	002d06        	j	ed <at_get_next_int_dec+0xdd>	35: R_XTENSA_SLOT0_OP	.text.at_get_next_int_dec+0xed
  38:	029e37        	bne	a14, a3, 3e <at_get_next_int_dec+0x2e>	38: R_XTENSA_SLOT0_OP	.text.at_get_next_int_dec+0x3e
  3b:	002b86        	j	ed <at_get_next_int_dec+0xdd>	3b: R_XTENSA_SLOT0_OP	.text.at_get_next_int_dec+0xed
  3e:	0d39      	s32i.n	a3, a13, 0
  40:	03cd      	mov.n	a12, a3
  42:	0f39      	s32i.n	a3, a15, 0
  44:	140c      	movi.n	a4, 1
  46:	b50c      	movi.n	a5, 11
  48:	f62c      	movi.n	a6, 47
  4a:	cc1b      	addi.n	a12, a12, 1
  4c:	681c57        	beq	a12, a5, b8 <at_get_next_int_dec+0xa8>	4c: R_XTENSA_SLOT0_OP	.text.at_get_next_int_dec+0xb8
  4f:	0e28      	l32i.n	a2, a14, 0
  51:	000222        	l8ui	a2, a2, 0
  54:	2db627        	bgeu	a6, a2, 85 <at_get_next_int_dec+0x75>	54: R_XTENSA_SLOT0_OP	.text.at_get_next_int_dec+0x85
  57:	933c      	movi.n	a3, 57
  59:	10b327        	bgeu	a3, a2, 6d <at_get_next_int_dec+0x5d>	59: R_XTENSA_SLOT0_OP	.text.at_get_next_int_dec+0x6d
  5c:	4c9c66        	bnei	a12, 10, ac <at_get_next_int_dec+0x9c>	5c: R_XTENSA_SLOT0_OP	.text.at_get_next_int_dec+0xac
  5f:	ffe921        	l32r	a2, 4 <at_get_next_int_dec-0xc>	5f: R_XTENSA_SLOT0_OP	.text.at_get_next_int_dec+0x4
  62:	ffe901        	l32r	a0, 8 <at_get_next_int_dec-0x8>	62: R_XTENSA_SLOT0_OP	.text.at_get_next_int_dec+0x8
	62: R_XTENSA_ASM_EXPAND	os_printf_plus
  65:	0000c0        	callx0	a0
  68:	220c      	movi.n	a2, 2
  6a:	001486        	j	c0 <at_get_next_int_dec+0xb0>	6a: R_XTENSA_SLOT0_OP	.text.at_get_next_int_dec+0xc0
  6d:	0d38      	l32i.n	a3, a13, 0
  6f:	d0c222        	addi	a2, a2, -48
  72:	a03330        	addx4	a3, a3, a3
  75:	902320        	addx2	a2, a3, a2
  78:	0d29      	s32i.n	a2, a13, 0
  7a:	0e28      	l32i.n	a2, a14, 0
  7c:	221b      	addi.n	a2, a2, 1
  7e:	0e29      	s32i.n	a2, a14, 0
  80:	fff186        	j	4a <at_get_next_int_dec+0x3a>	80: R_XTENSA_SLOT0_OP	.text.at_get_next_int_dec+0x4a
  83:	00          	.byte 00
  84:	00          	.byte 00
  85:	d32c      	movi.n	a3, 45
  87:	d19237        	bne	a2, a3, 5c <at_get_next_int_dec+0x4c>	87: R_XTENSA_SLOT0_OP	.text.at_get_next_int_dec+0x5c
  8a:	171c26        	beqi	a12, 1, a5 <at_get_next_int_dec+0x95>	8a: R_XTENSA_SLOT0_OP	.text.at_get_next_int_dec+0xa5
  8d:	ffdc21        	l32r	a2, 0 <at_get_next_int_dec-0x10>	8d: R_XTENSA_SLOT0_OP	.text.at_get_next_int_dec
  90:	0149      	s32i.n	a4, a1, 0
  92:	1159      	s32i.n	a5, a1, 4
  94:	2169      	s32i.n	a6, a1, 8
  96:	ffdd01        	l32r	a0, c <at_get_next_int_dec-0x4>	96: R_XTENSA_SLOT0_OP	.text.at_get_next_int_dec+0xc
	96: R_XTENSA_ASM_EXPAND	os_printf_plus
  99:	0000c0        	callx0	a0
  9c:	0148      	l32i.n	a4, a1, 0
  9e:	1158      	l32i.n	a5, a1, 4
  a0:	2168      	l32i.n	a6, a1, 8
  a2:	fff506        	j	7a <at_get_next_int_dec+0x6a>	a2: R_XTENSA_SLOT0_OP	.text.at_get_next_int_dec+0x7a
  a5:	040c      	movi.n	a4, 0
  a7:	fff3c6        	j	7a <at_get_next_int_dec+0x6a>	a7: R_XTENSA_SLOT0_OP	.text.at_get_next_int_dec+0x7a
  aa:	00          	.byte 00
  ab:	00          	.byte 00
  ac:	081c66        	bnei	a12, 1, b8 <at_get_next_int_dec+0xa8>	ac: R_XTENSA_SLOT0_OP	.text.at_get_next_int_dec+0xb8
  af:	120c      	movi.n	a2, 1
  b1:	0f29      	s32i.n	a2, a15, 0
  b3:	000e06        	j	ef <at_get_next_int_dec+0xdf>	b3: R_XTENSA_SLOT0_OP	.text.at_get_next_int_dec+0xef
  b6:	00          	.byte 00
  b7:	00          	.byte 00
  b8:	091426        	beqi	a4, 1, c5 <at_get_next_int_dec+0xb5>	b8: R_XTENSA_SLOT0_OP	.text.at_get_next_int_dec+0xc5
  bb:	062c66        	bnei	a12, 2, c5 <at_get_next_int_dec+0xb5>	bb: R_XTENSA_SLOT0_OP	.text.at_get_next_int_dec+0xc5
  be:	320c      	movi.n	a2, 3
  c0:	0f29      	s32i.n	a2, a15, 0
  c2:	0009c6        	j	ed <at_get_next_int_dec+0xdd>	c2: R_XTENSA_SLOT0_OP	.text.at_get_next_int_dec+0xed
  c5:	54cc      	bnez.n	a4, ce <at_get_next_int_dec+0xbe>	c5: R_XTENSA_SLOT0_OP	.text.at_get_next_int_dec+0xce
  c7:	0d28      	l32i.n	a2, a13, 0
  c9:	602020        	neg	a2, a2
  cc:	0d29      	s32i.n	a2, a13, 0
  ce:	0e28      	l32i.n	a2, a14, 0
  d0:	060c      	movi.n	a6, 0
  d2:	000232        	l8ui	a3, a2, 0
  d5:	150c      	movi.n	a5, 1
  d7:	062d      	mov.n	a2, a6
  d9:	832530        	moveqz	a2, a5, a3
  dc:	f3c342        	addi	a4, a3, -13
  df:	063d      	mov.n	a3, a6
  e1:	833540        	moveqz	a3, a5, a4
  e4:	203230        	or	a3, a2, a3
  e7:	302530        	xor	a2, a5, a3
  ea:	000046        	j	ef <at_get_next_int_dec+0xdf>	ea: R_XTENSA_SLOT0_OP	.text.at_get_next_int_dec+0xef
  ed:	020c      	movi.n	a2, 0
  ef:	b108      	l32i.n	a0, a1, 44
  f1:	a1c8      	l32i.n	a12, a1, 40
  f3:	91d8      	l32i.n	a13, a1, 36
  f5:	81e8      	l32i.n	a14, a1, 32
  f7:	71f8      	l32i.n	a15, a1, 28
  f9:	30c112        	addi	a1, a1, 48
  fc:	f00d      	ret.n

Disassembly of section .text.at_alloc_linkconn:

00000000 <at_alloc_linkconn-0x30>:
	...
	0: R_XTENSA_32	at_customLinkMax
	4: R_XTENSA_32	.data.at_linkMax
   8:	3c 07 00 00 		8: R_XTENSA_32	.irom.text
	...
	c: R_XTENSA_32	pLink
	10: R_XTENSA_32	.bss.at_server_max_conn
	14: R_XTENSA_32	pvPortZalloc
	18: R_XTENSA_32	system_restart
	1c: R_XTENSA_32	create_tcp_block_counting
	20: R_XTENSA_32	espconn_tcp_set_max_con
	24: R_XTENSA_32	espconn_tcp_set_max_syn
	28: R_XTENSA_32	espconn_tcp_set_max_retran
	2c: R_XTENSA_32	wifi_station_dhcpc_set_maxtry

00000030 <at_alloc_linkconn>:
  30:	f0c112        	addi	a1, a1, -16
  33:	fff321        	l32r	a2, 0 <at_alloc_linkconn-0x30>	33: R_XTENSA_SLOT0_OP	.text.at_alloc_linkconn
  36:	21c9      	s32i.n	a12, a1, 8
  38:	3109      	s32i.n	a0, a1, 12
  3a:	000222        	l8ui	a2, a2, 0
  3d:	fff1c1        	l32r	a12, 4 <at_alloc_linkconn-0x2c>	3d: R_XTENSA_SLOT0_OP	.text.at_alloc_linkconn+0x4
  40:	128c      	beqz.n	a2, 45 <at_alloc_linkconn+0x15>	40: R_XTENSA_SLOT0_OP	.text.at_alloc_linkconn+0x45
  42:	004c22        	s8i	a2, a12, 0
  45:	000c32        	l8ui	a3, a12, 0
  48:	e0a042        	movi	a4, 224
  4b:	b02330        	addx8	a2, a3, a3
  4e:	902230        	addx2	a2, a2, a3
  51:	ffed31        	l32r	a3, 8 <at_alloc_linkconn-0x28>	51: R_XTENSA_SLOT0_OP	.text.at_alloc_linkconn+0x8
  54:	1122e0        	slli	a2, a2, 2
  57:	ffef01        	l32r	a0, 14 <at_alloc_linkconn-0x1c>	57: R_XTENSA_SLOT0_OP	.text.at_alloc_linkconn+0x14
	57: R_XTENSA_ASM_EXPAND	pvPortZalloc
  5a:	0000c0        	callx0	a0
  5d:	ffeb31        	l32r	a3, c <at_alloc_linkconn-0x24>	5d: R_XTENSA_SLOT0_OP	.text.at_alloc_linkconn+0xc
  60:	006322        	s32i	a2, a3, 0
  63:	005256        	bnez	a2, 6c <at_alloc_linkconn+0x3c>	63: R_XTENSA_SLOT0_OP	.text.at_alloc_linkconn+0x6c
  66:	ffec01        	l32r	a0, 18 <at_alloc_linkconn-0x18>	66: R_XTENSA_SLOT0_OP	.text.at_alloc_linkconn+0x18
	66: R_XTENSA_ASM_EXPAND	system_restart
  69:	0000c0        	callx0	a0
  6c:	ffe931        	l32r	a3, 10 <at_alloc_linkconn-0x20>	6c: R_XTENSA_SLOT0_OP	.text.at_alloc_linkconn+0x10
  6f:	000c22        	l8ui	a2, a12, 0
  72:	004322        	s8i	a2, a3, 0
  75:	ffe901        	l32r	a0, 1c <at_alloc_linkconn-0x14>	75: R_XTENSA_SLOT0_OP	.text.at_alloc_linkconn+0x1c
	75: R_XTENSA_ASM_EXPAND	create_tcp_block_counting
  78:	0000c0        	callx0	a0
  7b:	000c22        	l8ui	a2, a12, 0
  7e:	ffe801        	l32r	a0, 20 <at_alloc_linkconn-0x10>	7e: R_XTENSA_SLOT0_OP	.text.at_alloc_linkconn+0x20
	7e: R_XTENSA_ASM_EXPAND	espconn_tcp_set_max_con
  81:	0000c0        	callx0	a0
  84:	320c      	movi.n	a2, 3
  86:	ffe701        	l32r	a0, 24 <at_alloc_linkconn-0xc>	86: R_XTENSA_SLOT0_OP	.text.at_alloc_linkconn+0x24
	86: R_XTENSA_ASM_EXPAND	espconn_tcp_set_max_syn
  89:	0000c0        	callx0	a0
  8c:	320c      	movi.n	a2, 3
  8e:	ffe601        	l32r	a0, 28 <at_alloc_linkconn-0x8>	8e: R_XTENSA_SLOT0_OP	.text.at_alloc_linkconn+0x28
	8e: R_XTENSA_ASM_EXPAND	espconn_tcp_set_max_retran
  91:	0000c0        	callx0	a0
  94:	520c      	movi.n	a2, 5
  96:	ffe501        	l32r	a0, 2c <at_alloc_linkconn-0x4>	96: R_XTENSA_SLOT0_OP	.text.at_alloc_linkconn+0x2c
	96: R_XTENSA_ASM_EXPAND	wifi_station_dhcpc_set_maxtry
  99:	0000c0        	callx0	a0
  9c:	3108      	l32i.n	a0, a1, 12
  9e:	21c8      	l32i.n	a12, a1, 8
  a0:	10c112        	addi	a1, a1, 16
  a3:	f00d      	ret.n

Disassembly of section .text.at_testCmdCifsr:

00000000 <at_testCmdCifsr-0x4>:
   0:	00 00 00 00 		0: R_XTENSA_32	at_response_ok

00000004 <at_testCmdCifsr>:
   4:	f0c112        	addi	a1, a1, -16
   7:	036102        	s32i	a0, a1, 12
   a:	fffd01        	l32r	a0, 0 <at_testCmdCifsr-0x4>	a: R_XTENSA_SLOT0_OP	.text.at_testCmdCifsr
	a: R_XTENSA_ASM_EXPAND	at_response_ok
   d:	0000c0        	callx0	a0
  10:	3108      	l32i.n	a0, a1, 12
  12:	10c112        	addi	a1, a1, 16
  15:	f00d      	ret.n

Disassembly of section .text.at_setupCmdCifsr:

00000000 <at_setupCmdCifsr-0x40>:
   0:	00 00 00 00 		0: R_XTENSA_32	at_wifiMode
   4:	dc 01 00 00 		4: R_XTENSA_32	.rodata.str1.1
   8:	04 07 00 00 		8: R_XTENSA_32	.irom.text
	...
	c: R_XTENSA_32	ets_bzero
	10: R_XTENSA_32	ets_memset
	14: R_XTENSA_32	at_data_str_copy
	18: R_XTENSA_32	at_response
	1c: R_XTENSA_32	at_response_error
	20: R_XTENSA_32	wifi_get_ip_info
	24: R_XTENSA_32	ipaddr_addr
	28: R_XTENSA_32	os_printf_plus
	2c: R_XTENSA_32	wifi_softap_dhcps_status
	30: R_XTENSA_32	wifi_softap_dhcps_stop
	34: R_XTENSA_32	wifi_set_ip_info
	38: R_XTENSA_32	wifi_softap_dhcps_start
	3c: R_XTENSA_32	at_response_ok

00000040 <at_setupCmdCifsr>:
  40:	90c112        	addi	a1, a1, -112
  43:	1b6102        	s32i	a0, a1, 108
  46:	1a61c2        	s32i	a12, a1, 104
  49:	146132        	s32i	a3, a1, 80
  4c:	049316        	beqz	a3, 99 <at_setupCmdCifsr+0x59>	4c: R_XTENSA_SLOT0_OP	.text.at_setupCmdCifsr+0x99
  4f:	034c      	movi.n	a3, 64
  51:	012d      	mov.n	a2, a1
  53:	ffee01        	l32r	a0, c <at_setupCmdCifsr-0x34>	53: R_XTENSA_SLOT0_OP	.text.at_setupCmdCifsr+0xc
	53: R_XTENSA_ASM_EXPAND	ets_bzero
  56:	0000c0        	callx0	a0
  59:	0ca042        	movi	a4, 12
  5c:	00a032        	movi	a3, 0
  5f:	40c122        	addi	a2, a1, 64
  62:	ffeb01        	l32r	a0, 10 <at_setupCmdCifsr-0x30>	62: R_XTENSA_SLOT0_OP	.text.at_setupCmdCifsr+0x10
	62: R_XTENSA_ASM_EXPAND	ets_memset
  65:	0000c0        	callx0	a0
  68:	ffe621        	l32r	a2, 0 <at_setupCmdCifsr-0x40>	68: R_XTENSA_SLOT0_OP	.text.at_setupCmdCifsr
  6b:	000222        	l8ui	a2, a2, 0
  6e:	271226        	beqi	a2, 1, 99 <at_setupCmdCifsr+0x59>	6e: R_XTENSA_SLOT0_OP	.text.at_setupCmdCifsr+0x99
  71:	142122        	l32i	a2, a1, 80
  74:	042c      	movi.n	a4, 32
  76:	01c222        	addi	a2, a2, 1
  79:	146122        	s32i	a2, a1, 80
  7c:	50c132        	addi	a3, a1, 80
  7f:	202110        	or	a2, a1, a1
  82:	ffe401        	l32r	a0, 14 <at_setupCmdCifsr-0x2c>	82: R_XTENSA_SLOT0_OP	.text.at_setupCmdCifsr+0x14
	82: R_XTENSA_ASM_EXPAND	at_data_str_copy
  85:	0000c0        	callx0	a0
  88:	221b      	addi.n	a2, a2, 1
  8a:	742020        	extui	a2, a2, 0, 8
  8d:	1322f6        	bgeui	a2, 2, a4 <at_setupCmdCifsr+0x64>	8d: R_XTENSA_SLOT0_OP	.text.at_setupCmdCifsr+0xa4
  90:	ffdd21        	l32r	a2, 4 <at_setupCmdCifsr-0x3c>	90: R_XTENSA_SLOT0_OP	.text.at_setupCmdCifsr+0x4
  93:	ffe101        	l32r	a0, 18 <at_setupCmdCifsr-0x28>	93: R_XTENSA_SLOT0_OP	.text.at_setupCmdCifsr+0x18
	93: R_XTENSA_ASM_EXPAND	at_response
  96:	0000c0        	callx0	a0
  99:	ffe001        	l32r	a0, 1c <at_setupCmdCifsr-0x24>	99: R_XTENSA_SLOT0_OP	.text.at_setupCmdCifsr+0x1c
	99: R_XTENSA_ASM_EXPAND	at_response_error
  9c:	0000c0        	callx0	a0
  9f:	001bc6        	j	112 <at_setupCmdCifsr+0xd2>	9f: R_XTENSA_SLOT0_OP	.text.at_setupCmdCifsr+0x112
  a2:	00          	.byte 00
  a3:	00          	.byte 00
  a4:	142122        	l32i	a2, a1, 80
  a7:	000232        	l8ui	a3, a2, 0
  aa:	d20c      	movi.n	a2, 13
  ac:	e99327        	bne	a3, a2, 99 <at_setupCmdCifsr+0x59>	ac: R_XTENSA_SLOT0_OP	.text.at_setupCmdCifsr+0x99
  af:	40c132        	addi	a3, a1, 64
  b2:	120c      	movi.n	a2, 1
  b4:	ffdb01        	l32r	a0, 20 <at_setupCmdCifsr-0x20>	b4: R_XTENSA_SLOT0_OP	.text.at_setupCmdCifsr+0x20
	b4: R_XTENSA_ASM_EXPAND	wifi_get_ip_info
  b7:	0000c0        	callx0	a0
  ba:	012d      	mov.n	a2, a1
  bc:	ffda01        	l32r	a0, 24 <at_setupCmdCifsr-0x1c>	bc: R_XTENSA_SLOT0_OP	.text.at_setupCmdCifsr+0x24
	bc: R_XTENSA_ASM_EXPAND	ipaddr_addr
  bf:	0000c0        	callx0	a0
  c2:	106122        	s32i	a2, a1, 64
  c5:	d37c      	movi.n	a3, -3
  c7:	220b      	addi.n	a2, a2, -1
  c9:	cc3327        	bltu	a3, a2, 99 <at_setupCmdCifsr+0x59>	c9: R_XTENSA_SLOT0_OP	.text.at_setupCmdCifsr+0x99
  cc:	430162        	l8ui	a6, a1, 67
  cf:	420152        	l8ui	a5, a1, 66
  d2:	410142        	l8ui	a4, a1, 65
  d5:	400132        	l8ui	a3, a1, 64
  d8:	ffcc21        	l32r	a2, 8 <at_setupCmdCifsr-0x38>	d8: R_XTENSA_SLOT0_OP	.text.at_setupCmdCifsr+0x8
  db:	ffd301        	l32r	a0, 28 <at_setupCmdCifsr-0x18>	db: R_XTENSA_SLOT0_OP	.text.at_setupCmdCifsr+0x28
	db: R_XTENSA_ASM_EXPAND	os_printf_plus
  de:	0000c0        	callx0	a0
  e1:	ffd201        	l32r	a0, 2c <at_setupCmdCifsr-0x14>	e1: R_XTENSA_SLOT0_OP	.text.at_setupCmdCifsr+0x2c
	e1: R_XTENSA_ASM_EXPAND	wifi_softap_dhcps_status
  e4:	0000c0        	callx0	a0
  e7:	02cd      	mov.n	a12, a2
  e9:	051266        	bnei	a2, 1, f2 <at_setupCmdCifsr+0xb2>	e9: R_XTENSA_SLOT0_OP	.text.at_setupCmdCifsr+0xf2
  ec:	ffd101        	l32r	a0, 30 <at_setupCmdCifsr-0x10>	ec: R_XTENSA_SLOT0_OP	.text.at_setupCmdCifsr+0x30
	ec: R_XTENSA_ASM_EXPAND	wifi_softap_dhcps_stop
  ef:	0000c0        	callx0	a0
  f2:	40c132        	addi	a3, a1, 64
  f5:	120c      	movi.n	a2, 1
  f7:	ffcf01        	l32r	a0, 34 <at_setupCmdCifsr-0xc>	f7: R_XTENSA_SLOT0_OP	.text.at_setupCmdCifsr+0x34
	f7: R_XTENSA_ASM_EXPAND	wifi_set_ip_info
  fa:	0000c0        	callx0	a0
  fd:	b2cc      	bnez.n	a2, 10c <at_setupCmdCifsr+0xcc>	fd: R_XTENSA_SLOT0_OP	.text.at_setupCmdCifsr+0x10c
  ff:	961c66        	bnei	a12, 1, 99 <at_setupCmdCifsr+0x59>	ff: R_XTENSA_SLOT0_OP	.text.at_setupCmdCifsr+0x99
 102:	ffcd01        	l32r	a0, 38 <at_setupCmdCifsr-0x8>	102: R_XTENSA_SLOT0_OP	.text.at_setupCmdCifsr+0x38
	102: R_XTENSA_ASM_EXPAND	wifi_softap_dhcps_start
 105:	0000c0        	callx0	a0
 108:	ffe346        	j	99 <at_setupCmdCifsr+0x59>	108: R_XTENSA_SLOT0_OP	.text.at_setupCmdCifsr+0x99
 10b:	00          	.byte 00
 10c:	ffcc01        	l32r	a0, 3c <at_setupCmdCifsr-0x4>	10c: R_XTENSA_SLOT0_OP	.text.at_setupCmdCifsr+0x3c
	10c: R_XTENSA_ASM_EXPAND	at_response_ok
 10f:	0000c0        	callx0	a0
 112:	1b2102        	l32i	a0, a1, 108
 115:	1a21c2        	l32i	a12, a1, 104
 118:	70c112        	addi	a1, a1, 112
 11b:	f00d      	ret.n

Disassembly of section .text.at_exeCmdCifsr:

00000000 <at_exeCmdCifsr-0x88>:
	...
	0: R_XTENSA_32	at_wifiMode
	4: R_XTENSA_32	at_fun
   8:	e7 01 00 00 		8: R_XTENSA_32	.rodata.str1.1
   c:	f0 01 00 00 		c: R_XTENSA_32	.rodata.str1.1
  10:	00 02 00 00 		10: R_XTENSA_32	.rodata.str1.1
  14:	0a 02 00 00 		14: R_XTENSA_32	.rodata.str1.1
  18:	2c 02 00 00 		18: R_XTENSA_32	.rodata.str1.1
  1c:	36 02 00 00 		1c: R_XTENSA_32	.rodata.str1.1
	...
	20: R_XTENSA_32	ets_bzero
	24: R_XTENSA_32	ets_bzero
	28: R_XTENSA_32	ets_memset
	2c: R_XTENSA_32	wifi_get_ip_info
	30: R_XTENSA_32	ets_sprintf
	34: R_XTENSA_32	at_response
	38: R_XTENSA_32	ets_sprintf
	3c: R_XTENSA_32	at_response
	40: R_XTENSA_32	ets_sprintf
	44: R_XTENSA_32	at_response
	48: R_XTENSA_32	wifi_get_macaddr
	4c: R_XTENSA_32	ets_sprintf
	50: R_XTENSA_32	at_response
	54: R_XTENSA_32	wifi_station_get_connect_status
	58: R_XTENSA_32	wifi_get_ip_info
	5c: R_XTENSA_32	ets_memset
	60: R_XTENSA_32	ets_sprintf
	64: R_XTENSA_32	at_response
	68: R_XTENSA_32	ets_sprintf
	6c: R_XTENSA_32	at_port_print
	70: R_XTENSA_32	ets_sprintf
	74: R_XTENSA_32	at_port_print
	78: R_XTENSA_32	wifi_get_macaddr
	7c: R_XTENSA_32	ets_sprintf
	80: R_XTENSA_32	at_port_print
	84: R_XTENSA_32	at_response_ok

00000088 <at_exeCmdCifsr>:
  88:	80c112        	addi	a1, a1, -128
  8b:	1e61c2        	s32i	a12, a1, 120
  8e:	034c      	movi.n	a3, 64
  90:	74c020        	extui	a12, a2, 0, 8
  93:	10c122        	addi	a2, a1, 16
  96:	1f6102        	s32i	a0, a1, 124
  99:	1c61e2        	s32i	a14, a1, 112
  9c:	1d61d2        	s32i	a13, a1, 116
  9f:	ffe001        	l32r	a0, 20 <at_exeCmdCifsr-0x68>	9f: R_XTENSA_SLOT0_OP	.text.at_exeCmdCifsr+0x20
	9f: R_XTENSA_ASM_EXPAND	ets_bzero
  a2:	0000c0        	callx0	a0
  a5:	630c      	movi.n	a3, 6
  a7:	5cc122        	addi	a2, a1, 92
  aa:	ffde01        	l32r	a0, 24 <at_exeCmdCifsr-0x64>	aa: R_XTENSA_SLOT0_OP	.text.at_exeCmdCifsr+0x24
	aa: R_XTENSA_ASM_EXPAND	ets_bzero
  ad:	0000c0        	callx0	a0
  b0:	030c      	movi.n	a3, 0
  b2:	c40c      	movi.n	a4, 12
  b4:	50c122        	addi	a2, a1, 80
  b7:	ffdc01        	l32r	a0, 28 <at_exeCmdCifsr-0x60>	b7: R_XTENSA_SLOT0_OP	.text.at_exeCmdCifsr+0x28
	b7: R_XTENSA_ASM_EXPAND	ets_memset
  ba:	0000c0        	callx0	a0
  bd:	ffd031        	l32r	a3, 0 <at_exeCmdCifsr-0x88>	bd: R_XTENSA_SLOT0_OP	.text.at_exeCmdCifsr
  c0:	000322        	l8ui	a2, a3, 0
  c3:	03ed      	mov.n	a14, a3
  c5:	fec222        	addi	a2, a2, -2
  c8:	742020        	extui	a2, a2, 0, 8
  cb:	0222b6        	bltui	a2, 2, d1 <at_exeCmdCifsr+0x49>	cb: R_XTENSA_SLOT0_OP	.text.at_exeCmdCifsr+0xd1
  ce:	0026c6        	j	16d <at_exeCmdCifsr+0xe5>	ce: R_XTENSA_SLOT0_OP	.text.at_exeCmdCifsr+0x16d
  d1:	50c132        	addi	a3, a1, 80
  d4:	01a022        	movi	a2, 1
  d7:	ffd501        	l32r	a0, 2c <at_exeCmdCifsr-0x5c>	d7: R_XTENSA_SLOT0_OP	.text.at_exeCmdCifsr+0x2c
	d7: R_XTENSA_ASM_EXPAND	wifi_get_ip_info
  da:	0000c0        	callx0	a0
  dd:	ffc921        	l32r	a2, 4 <at_exeCmdCifsr-0x84>	dd: R_XTENSA_SLOT0_OP	.text.at_exeCmdCifsr+0x4
  e0:	90dcc0        	addx2	a13, a12, a12
  e3:	b0dd20        	addx8	a13, a13, a2
  e6:	0d48      	l32i.n	a4, a13, 0
  e8:	ffc831        	l32r	a3, 8 <at_exeCmdCifsr-0x80>	e8: R_XTENSA_SLOT0_OP	.text.at_exeCmdCifsr+0x8
  eb:	10c122        	addi	a2, a1, 16
  ee:	ffd001        	l32r	a0, 30 <at_exeCmdCifsr-0x58>	ee: R_XTENSA_SLOT0_OP	.text.at_exeCmdCifsr+0x30
	ee: R_XTENSA_ASM_EXPAND	ets_sprintf
  f1:	0000c0        	callx0	a0
  f4:	10c122        	addi	a2, a1, 16
  f7:	ffcf01        	l32r	a0, 34 <at_exeCmdCifsr-0x54>	f7: R_XTENSA_SLOT0_OP	.text.at_exeCmdCifsr+0x34
	f7: R_XTENSA_ASM_EXPAND	at_response
  fa:	0000c0        	callx0	a0
  fd:	530172        	l8ui	a7, a1, 83
 100:	520162        	l8ui	a6, a1, 82
 103:	510152        	l8ui	a5, a1, 81
 106:	500142        	l8ui	a4, a1, 80
 109:	ffc031        	l32r	a3, c <at_exeCmdCifsr-0x7c>	109: R_XTENSA_SLOT0_OP	.text.at_exeCmdCifsr+0xc
 10c:	10c122        	addi	a2, a1, 16
 10f:	ffca01        	l32r	a0, 38 <at_exeCmdCifsr-0x50>	10f: R_XTENSA_SLOT0_OP	.text.at_exeCmdCifsr+0x38
	10f: R_XTENSA_ASM_EXPAND	ets_sprintf
 112:	0000c0        	callx0	a0
 115:	10c122        	addi	a2, a1, 16
 118:	ffc901        	l32r	a0, 3c <at_exeCmdCifsr-0x4c>	118: R_XTENSA_SLOT0_OP	.text.at_exeCmdCifsr+0x3c
	118: R_XTENSA_ASM_EXPAND	at_response
 11b:	0000c0        	callx0	a0
 11e:	0d48      	l32i.n	a4, a13, 0
 120:	ffbc31        	l32r	a3, 10 <at_exeCmdCifsr-0x78>	120: R_XTENSA_SLOT0_OP	.text.at_exeCmdCifsr+0x10
 123:	10c122        	addi	a2, a1, 16
 126:	ffc601        	l32r	a0, 40 <at_exeCmdCifsr-0x48>	126: R_XTENSA_SLOT0_OP	.text.at_exeCmdCifsr+0x40
	126: R_XTENSA_ASM_EXPAND	ets_sprintf
 129:	0000c0        	callx0	a0
 12c:	10c122        	addi	a2, a1, 16
 12f:	ffc501        	l32r	a0, 44 <at_exeCmdCifsr-0x44>	12f: R_XTENSA_SLOT0_OP	.text.at_exeCmdCifsr+0x44
	12f: R_XTENSA_ASM_EXPAND	at_response
 132:	0000c0        	callx0	a0
 135:	5cc132        	addi	a3, a1, 92
 138:	01a022        	movi	a2, 1
 13b:	ffc301        	l32r	a0, 48 <at_exeCmdCifsr-0x40>	13b: R_XTENSA_SLOT0_OP	.text.at_exeCmdCifsr+0x48
	13b: R_XTENSA_ASM_EXPAND	wifi_get_macaddr
 13e:	0000c0        	callx0	a0
 141:	610122        	l8ui	a2, a1, 97
 144:	5f0172        	l8ui	a7, a1, 95
 147:	016122        	s32i	a2, a1, 4
 14a:	600122        	l8ui	a2, a1, 96
 14d:	5e0162        	l8ui	a6, a1, 94
 150:	5d0152        	l8ui	a5, a1, 93
 153:	5c0142        	l8ui	a4, a1, 92
 156:	ffaf31        	l32r	a3, 14 <at_exeCmdCifsr-0x74>	156: R_XTENSA_SLOT0_OP	.text.at_exeCmdCifsr+0x14
 159:	0129      	s32i.n	a2, a1, 0
 15b:	10c122        	addi	a2, a1, 16
 15e:	ffbb01        	l32r	a0, 4c <at_exeCmdCifsr-0x3c>	15e: R_XTENSA_SLOT0_OP	.text.at_exeCmdCifsr+0x4c
	15e: R_XTENSA_ASM_EXPAND	ets_sprintf
 161:	0000c0        	callx0	a0
 164:	10c122        	addi	a2, a1, 16
 167:	ffba01        	l32r	a0, 50 <at_exeCmdCifsr-0x38>	167: R_XTENSA_SLOT0_OP	.text.at_exeCmdCifsr+0x50
	167: R_XTENSA_ASM_EXPAND	at_response
 16a:	0000c0        	callx0	a0
 16d:	000e32        	l8ui	a3, a14, 0
 170:	fda022        	movi	a2, 253
 173:	102320        	and	a2, a3, a2
 176:	021226        	beqi	a2, 1, 17c <at_exeCmdCifsr+0xf4>	176: R_XTENSA_SLOT0_OP	.text.at_exeCmdCifsr+0x17c
 179:	002d06        	j	231 <at_exeCmdCifsr+0x1a9>	179: R_XTENSA_SLOT0_OP	.text.at_exeCmdCifsr+0x231
 17c:	ffb601        	l32r	a0, 54 <at_exeCmdCifsr-0x34>	17c: R_XTENSA_SLOT0_OP	.text.at_exeCmdCifsr+0x54
	17c: R_XTENSA_ASM_EXPAND	wifi_station_get_connect_status
 17f:	0000c0        	callx0	a0
 182:	0e5266        	bnei	a2, 5, 194 <at_exeCmdCifsr+0x10c>	182: R_XTENSA_SLOT0_OP	.text.at_exeCmdCifsr+0x194
 185:	50c132        	addi	a3, a1, 80
 188:	020c      	movi.n	a2, 0
 18a:	ffb301        	l32r	a0, 58 <at_exeCmdCifsr-0x30>	18a: R_XTENSA_SLOT0_OP	.text.at_exeCmdCifsr+0x58
	18a: R_XTENSA_ASM_EXPAND	wifi_get_ip_info
 18d:	0000c0        	callx0	a0
 190:	000346        	j	1a1 <at_exeCmdCifsr+0x119>	190: R_XTENSA_SLOT0_OP	.text.at_exeCmdCifsr+0x1a1
 193:	00          	.byte 00
 194:	c40c      	movi.n	a4, 12
 196:	030c      	movi.n	a3, 0
 198:	50c122        	addi	a2, a1, 80
 19b:	ffb001        	l32r	a0, 5c <at_exeCmdCifsr-0x2c>	19b: R_XTENSA_SLOT0_OP	.text.at_exeCmdCifsr+0x5c
	19b: R_XTENSA_ASM_EXPAND	ets_memset
 19e:	0000c0        	callx0	a0
 1a1:	ff9821        	l32r	a2, 4 <at_exeCmdCifsr-0x84>	1a1: R_XTENSA_SLOT0_OP	.text.at_exeCmdCifsr+0x4
 1a4:	90ccc0        	addx2	a12, a12, a12
 1a7:	b0cc20        	addx8	a12, a12, a2
 1aa:	0c48      	l32i.n	a4, a12, 0
 1ac:	ff9b31        	l32r	a3, 18 <at_exeCmdCifsr-0x70>	1ac: R_XTENSA_SLOT0_OP	.text.at_exeCmdCifsr+0x18
 1af:	10c122        	addi	a2, a1, 16
 1b2:	ffab01        	l32r	a0, 60 <at_exeCmdCifsr-0x28>	1b2: R_XTENSA_SLOT0_OP	.text.at_exeCmdCifsr+0x60
	1b2: R_XTENSA_ASM_EXPAND	ets_sprintf
 1b5:	0000c0        	callx0	a0
 1b8:	10c122        	addi	a2, a1, 16
 1bb:	ffaa01        	l32r	a0, 64 <at_exeCmdCifsr-0x24>	1bb: R_XTENSA_SLOT0_OP	.text.at_exeCmdCifsr+0x64
	1bb: R_XTENSA_ASM_EXPAND	at_response
 1be:	0000c0        	callx0	a0
 1c1:	530172        	l8ui	a7, a1, 83
 1c4:	520162        	l8ui	a6, a1, 82
 1c7:	510152        	l8ui	a5, a1, 81
 1ca:	500142        	l8ui	a4, a1, 80
 1cd:	ff8f31        	l32r	a3, c <at_exeCmdCifsr-0x7c>	1cd: R_XTENSA_SLOT0_OP	.text.at_exeCmdCifsr+0xc
 1d0:	10c122        	addi	a2, a1, 16
 1d3:	ffa501        	l32r	a0, 68 <at_exeCmdCifsr-0x20>	1d3: R_XTENSA_SLOT0_OP	.text.at_exeCmdCifsr+0x68
	1d3: R_XTENSA_ASM_EXPAND	ets_sprintf
 1d6:	0000c0        	callx0	a0
 1d9:	10c122        	addi	a2, a1, 16
 1dc:	ffa401        	l32r	a0, 6c <at_exeCmdCifsr-0x1c>	1dc: R_XTENSA_SLOT0_OP	.text.at_exeCmdCifsr+0x6c
	1dc: R_XTENSA_ASM_EXPAND	at_port_print
 1df:	0000c0        	callx0	a0
 1e2:	0c48      	l32i.n	a4, a12, 0
 1e4:	ff8e31        	l32r	a3, 1c <at_exeCmdCifsr-0x6c>	1e4: R_XTENSA_SLOT0_OP	.text.at_exeCmdCifsr+0x1c
 1e7:	10c122        	addi	a2, a1, 16
 1ea:	ffa101        	l32r	a0, 70 <at_exeCmdCifsr-0x18>	1ea: R_XTENSA_SLOT0_OP	.text.at_exeCmdCifsr+0x70
	1ea: R_XTENSA_ASM_EXPAND	ets_sprintf
 1ed:	0000c0        	callx0	a0
 1f0:	10c122        	addi	a2, a1, 16
 1f3:	ffa001        	l32r	a0, 74 <at_exeCmdCifsr-0x14>	1f3: R_XTENSA_SLOT0_OP	.text.at_exeCmdCifsr+0x74
	1f3: R_XTENSA_ASM_EXPAND	at_port_print
 1f6:	0000c0        	callx0	a0
 1f9:	5cc132        	addi	a3, a1, 92
 1fc:	00a022        	movi	a2, 0
 1ff:	ff9e01        	l32r	a0, 78 <at_exeCmdCifsr-0x10>	1ff: R_XTENSA_SLOT0_OP	.text.at_exeCmdCifsr+0x78
	1ff: R_XTENSA_ASM_EXPAND	wifi_get_macaddr
 202:	0000c0        	callx0	a0
 205:	610122        	l8ui	a2, a1, 97
 208:	5f0172        	l8ui	a7, a1, 95
 20b:	1129      	s32i.n	a2, a1, 4
 20d:	600122        	l8ui	a2, a1, 96
 210:	5e0162        	l8ui	a6, a1, 94
 213:	5d0152        	l8ui	a5, a1, 93
 216:	5c0142        	l8ui	a4, a1, 92
 219:	ff7e31        	l32r	a3, 14 <at_exeCmdCifsr-0x74>	219: R_XTENSA_SLOT0_OP	.text.at_exeCmdCifsr+0x14
 21c:	006122        	s32i	a2, a1, 0
 21f:	10c122        	addi	a2, a1, 16
 222:	ff9601        	l32r	a0, 7c <at_exeCmdCifsr-0xc>	222: R_XTENSA_SLOT0_OP	.text.at_exeCmdCifsr+0x7c
	222: R_XTENSA_ASM_EXPAND	ets_sprintf
 225:	0000c0        	callx0	a0
 228:	10c122        	addi	a2, a1, 16
 22b:	ff9501        	l32r	a0, 80 <at_exeCmdCifsr-0x8>	22b: R_XTENSA_SLOT0_OP	.text.at_exeCmdCifsr+0x80
	22b: R_XTENSA_ASM_EXPAND	at_port_print
 22e:	0000c0        	callx0	a0
 231:	ff9401        	l32r	a0, 84 <at_exeCmdCifsr-0x4>	231: R_XTENSA_SLOT0_OP	.text.at_exeCmdCifsr+0x84
	231: R_XTENSA_ASM_EXPAND	at_response_ok
 234:	0000c0        	callx0	a0
 237:	1f2102        	l32i	a0, a1, 124
 23a:	80a092        	movi	a9, 128
 23d:	1e21c2        	l32i	a12, a1, 120
 240:	1d21d2        	l32i	a13, a1, 116
 243:	1c21e2        	l32i	a14, a1, 112
 246:	119a      	add.n	a1, a1, a9
 248:	f00d      	ret.n

Disassembly of section .text.at_testCmdCipstatus:

00000000 <at_testCmdCipstatus-0x4>:
   0:	00 00 00 00 		0: R_XTENSA_32	at_response_ok

00000004 <at_testCmdCipstatus>:
   4:	f0c112        	addi	a1, a1, -16
   7:	036102        	s32i	a0, a1, 12
   a:	fffd01        	l32r	a0, 0 <at_testCmdCipstatus-0x4>	a: R_XTENSA_SLOT0_OP	.text.at_testCmdCipstatus
	a: R_XTENSA_ASM_EXPAND	at_response_ok
   d:	0000c0        	callx0	a0
  10:	3108      	l32i.n	a0, a1, 12
  12:	10c112        	addi	a1, a1, 16
  15:	f00d      	ret.n

Disassembly of section .text.at_exeCmdCipstatus:

00000000 <at_exeCmdCipstatus-0x3c>:
   0:	00 00 00 00 		0: R_XTENSA_32	mdState
   4:	41 02 00 00 		4: R_XTENSA_32	.rodata.str1.1
	...
	8: R_XTENSA_32	pLink
	c: R_XTENSA_32	at_fun
  10:	4d 02 00 00 		10: R_XTENSA_32	.rodata.str1.1
  14:	72 02 00 00 		14: R_XTENSA_32	.rodata.str1.1
  18:	97 02 00 00 		18: R_XTENSA_32	.rodata.str1.1
	...
	1c: R_XTENSA_32	.data.at_linkMax
	20: R_XTENSA_32	ets_bzero
	24: R_XTENSA_32	wifi_station_get_connect_status
	28: R_XTENSA_32	ets_sprintf
	2c: R_XTENSA_32	at_port_print
	30: R_XTENSA_32	ets_sprintf
	34: R_XTENSA_32	at_port_print
	38: R_XTENSA_32	at_response_ok

0000003c <at_exeCmdCipstatus>:
  3c:	90c112        	addi	a1, a1, -112
  3f:	034c      	movi.n	a3, 64
  41:	1961d2        	s32i	a13, a1, 100
  44:	74d020        	extui	a13, a2, 0, 8
  47:	20c122        	addi	a2, a1, 32
  4a:	1b6102        	s32i	a0, a1, 108
  4d:	1a61c2        	s32i	a12, a1, 104
  50:	fff401        	l32r	a0, 20 <at_exeCmdCipstatus-0x1c>	50: R_XTENSA_SLOT0_OP	.text.at_exeCmdCipstatus+0x20
	50: R_XTENSA_ASM_EXPAND	ets_bzero
  53:	0000c0        	callx0	a0
  56:	fff301        	l32r	a0, 24 <at_exeCmdCipstatus-0x18>	56: R_XTENSA_SLOT0_OP	.text.at_exeCmdCipstatus+0x24
	56: R_XTENSA_ASM_EXPAND	wifi_station_get_connect_status
  59:	0000c0        	callx0	a0
  5c:	ffe931        	l32r	a3, 0 <at_exeCmdCipstatus-0x3c>	5c: R_XTENSA_SLOT0_OP	.text.at_exeCmdCipstatus
  5f:	065226        	beqi	a2, 5, 69 <at_exeCmdCipstatus+0x2d>	5f: R_XTENSA_SLOT0_OP	.text.at_exeCmdCipstatus+0x69
  62:	520c      	movi.n	a2, 5
  64:	000206        	j	70 <at_exeCmdCipstatus+0x34>	64: R_XTENSA_SLOT0_OP	.text.at_exeCmdCipstatus+0x70
  67:	00          	.byte 00
  68:	00          	.byte 00
  69:	0328      	l32i.n	a2, a3, 0
  6b:	035266        	bnei	a2, 5, 72 <at_exeCmdCipstatus+0x36>	6b: R_XTENSA_SLOT0_OP	.text.at_exeCmdCipstatus+0x72
  6e:	220c      	movi.n	a2, 2
  70:	0329      	s32i.n	a2, a3, 0
  72:	0348      	l32i.n	a4, a3, 0
  74:	ffe431        	l32r	a3, 4 <at_exeCmdCipstatus-0x38>	74: R_XTENSA_SLOT0_OP	.text.at_exeCmdCipstatus+0x4
  77:	20c122        	addi	a2, a1, 32
  7a:	ffeb01        	l32r	a0, 28 <at_exeCmdCipstatus-0x14>	7a: R_XTENSA_SLOT0_OP	.text.at_exeCmdCipstatus+0x28
	7a: R_XTENSA_ASM_EXPAND	ets_sprintf
  7d:	0000c0        	callx0	a0
  80:	20c122        	addi	a2, a1, 32
  83:	ffea01        	l32r	a0, 2c <at_exeCmdCipstatus-0x10>	83: R_XTENSA_SLOT0_OP	.text.at_exeCmdCipstatus+0x2c
	83: R_XTENSA_ASM_EXPAND	at_port_print
  86:	0000c0        	callx0	a0
  89:	0c0c      	movi.n	a12, 0
  8b:	90ddd0        	addx2	a13, a13, a13
  8e:	ffe321        	l32r	a2, 1c <at_exeCmdCipstatus-0x20>	8e: R_XTENSA_SLOT0_OP	.text.at_exeCmdCipstatus+0x1c
  91:	000222        	l8ui	a2, a2, 0
  94:	023c27        	bltu	a12, a2, 9a <at_exeCmdCipstatus+0x5e>	94: R_XTENSA_SLOT0_OP	.text.at_exeCmdCipstatus+0x9a
  97:	002b86        	j	149 <at_exeCmdCipstatus+0x10d>	97: R_XTENSA_SLOT0_OP	.text.at_exeCmdCipstatus+0x149
  9a:	b03cc0        	addx8	a3, a12, a12
  9d:	9023c0        	addx2	a2, a3, a12
  a0:	ffda31        	l32r	a3, 8 <at_exeCmdCipstatus-0x34>	a0: R_XTENSA_SLOT0_OP	.text.at_exeCmdCipstatus+0x8
  a3:	0338      	l32i.n	a3, a3, 0
  a5:	a03230        	addx4	a3, a2, a3
  a8:	000322        	l8ui	a2, a3, 0
  ab:	092216        	beqz	a2, 141 <at_exeCmdCipstatus+0x105>	ab: R_XTENSA_SLOT0_OP	.text.at_exeCmdCipstatus+0x141
  ae:	7328      	l32i.n	a2, a3, 28
  b0:	020352        	l8ui	a5, a3, 2
  b3:	0268      	l32i.n	a6, a2, 0
  b5:	ffd541        	l32r	a4, c <at_exeCmdCipstatus-0x30>	b5: R_XTENSA_SLOT0_OP	.text.at_exeCmdCipstatus+0xc
  b8:	3388      	l32i.n	a8, a3, 12
  ba:	4db666        	bnei	a6, 16, 10b <at_exeCmdCipstatus+0xcf>	ba: R_XTENSA_SLOT0_OP	.text.at_exeCmdCipstatus+0x10b
  bd:	030362        	l8ui	a6, a3, 3
  c0:	2238      	l32i.n	a3, a2, 8
  c2:	0d0372        	l8ui	a7, a3, 13
  c5:	06ac      	beqz.n	a6, e9 <at_exeCmdCipstatus+0xad>	c5: R_XTENSA_SLOT0_OP	.text.at_exeCmdCipstatus+0xe9
  c7:	0c0362        	l8ui	a6, a3, 12
  ca:	4189      	s32i.n	a8, a1, 16
  cc:	1328      	l32i.n	a2, a3, 4
  ce:	b04d40        	addx8	a4, a13, a4
  d1:	3129      	s32i.n	a2, a1, 12
  d3:	0328      	l32i.n	a2, a3, 0
  d5:	2129      	s32i.n	a2, a1, 8
  d7:	0f0322        	l8ui	a2, a3, 15
  da:	1129      	s32i.n	a2, a1, 4
  dc:	0e0322        	l8ui	a2, a3, 14
  df:	ffcc31        	l32r	a3, 10 <at_exeCmdCipstatus-0x2c>	df: R_XTENSA_SLOT0_OP	.text.at_exeCmdCipstatus+0x10
  e2:	0129      	s32i.n	a2, a1, 0
  e4:	0448      	l32i.n	a4, a4, 0
  e6:	001146        	j	12f <at_exeCmdCipstatus+0xf3>	e6: R_XTENSA_SLOT0_OP	.text.at_exeCmdCipstatus+0x12f
  e9:	0c0362        	l8ui	a6, a3, 12
  ec:	4189      	s32i.n	a8, a1, 16
  ee:	1328      	l32i.n	a2, a3, 4
  f0:	b04d40        	addx8	a4, a13, a4
  f3:	3129      	s32i.n	a2, a1, 12
  f5:	0328      	l32i.n	a2, a3, 0
  f7:	2129      	s32i.n	a2, a1, 8
  f9:	0f0322        	l8ui	a2, a3, 15
  fc:	1129      	s32i.n	a2, a1, 4
  fe:	0e0322        	l8ui	a2, a3, 14
 101:	ffc431        	l32r	a3, 14 <at_exeCmdCipstatus-0x28>	101: R_XTENSA_SLOT0_OP	.text.at_exeCmdCipstatus+0x14
 104:	0129      	s32i.n	a2, a1, 0
 106:	0448      	l32i.n	a4, a4, 0
 108:	0008c6        	j	12f <at_exeCmdCipstatus+0xf3>	108: R_XTENSA_SLOT0_OP	.text.at_exeCmdCipstatus+0x12f
 10b:	2228      	l32i.n	a2, a2, 8
 10d:	b04d40        	addx8	a4, a13, a4
 110:	0d0272        	l8ui	a7, a2, 13
 113:	0c0262        	l8ui	a6, a2, 12
 116:	4189      	s32i.n	a8, a1, 16
 118:	1238      	l32i.n	a3, a2, 4
 11a:	3139      	s32i.n	a3, a1, 12
 11c:	0238      	l32i.n	a3, a2, 0
 11e:	2139      	s32i.n	a3, a1, 8
 120:	0f0232        	l8ui	a3, a2, 15
 123:	1139      	s32i.n	a3, a1, 4
 125:	0e0222        	l8ui	a2, a2, 14
 128:	ffbc31        	l32r	a3, 18 <at_exeCmdCipstatus-0x24>	128: R_XTENSA_SLOT0_OP	.text.at_exeCmdCipstatus+0x18
 12b:	0129      	s32i.n	a2, a1, 0
 12d:	0448      	l32i.n	a4, a4, 0
 12f:	20c122        	addi	a2, a1, 32
 132:	ffbf01        	l32r	a0, 30 <at_exeCmdCipstatus-0xc>	132: R_XTENSA_SLOT0_OP	.text.at_exeCmdCipstatus+0x30
	132: R_XTENSA_ASM_EXPAND	ets_sprintf
 135:	0000c0        	callx0	a0
 138:	20c122        	addi	a2, a1, 32
 13b:	ffbe01        	l32r	a0, 34 <at_exeCmdCipstatus-0x8>	13b: R_XTENSA_SLOT0_OP	.text.at_exeCmdCipstatus+0x34
	13b: R_XTENSA_ASM_EXPAND	at_port_print
 13e:	0000c0        	callx0	a0
 141:	cc1b      	addi.n	a12, a12, 1
 143:	74c0c0        	extui	a12, a12, 0, 8
 146:	ffd106        	j	8e <at_exeCmdCipstatus+0x52>	146: R_XTENSA_SLOT0_OP	.text.at_exeCmdCipstatus+0x8e
 149:	ffbb01        	l32r	a0, 38 <at_exeCmdCipstatus-0x4>	149: R_XTENSA_SLOT0_OP	.text.at_exeCmdCipstatus+0x38
	149: R_XTENSA_ASM_EXPAND	at_response_ok
 14c:	0000c0        	callx0	a0
 14f:	1b2102        	l32i	a0, a1, 108
 152:	1a21c2        	l32i	a12, a1, 104
 155:	1921d2        	l32i	a13, a1, 100
 158:	70c112        	addi	a1, a1, 112
 15b:	f00d      	ret.n

Disassembly of section .text.at_queryCmdCipIpdInfo:

00000000 <at_queryCmdCipIpdInfo-0x24>:
   0:	bc 02 00 00 		0: R_XTENSA_32	.rodata.str1.1
   4:	c1 02 00 00 		4: R_XTENSA_32	.rodata.str1.1
	...
	8: R_XTENSA_32	at_fun
	c: R_XTENSA_32	ipd_info_enable
  10:	c7 02 00 00 		10: R_XTENSA_32	.rodata.str1.1
	...
	14: R_XTENSA_32	ets_bzero
	18: R_XTENSA_32	ets_sprintf
	1c: R_XTENSA_32	at_port_print
	20: R_XTENSA_32	at_response_ok

00000024 <at_queryCmdCipIpdInfo>:
  24:	b0c112        	addi	a1, a1, -80
  27:	1261c2        	s32i	a12, a1, 72
  2a:	40a032        	movi	a3, 64
  2d:	74c020        	extui	a12, a2, 0, 8
  30:	202110        	or	a2, a1, a1
  33:	136102        	s32i	a0, a1, 76
  36:	fff701        	l32r	a0, 14 <at_queryCmdCipIpdInfo-0x10>	36: R_XTENSA_SLOT0_OP	.text.at_queryCmdCipIpdInfo+0x14
	36: R_XTENSA_ASM_EXPAND	ets_bzero
  39:	0000c0        	callx0	a0
  3c:	fff321        	l32r	a2, 8 <at_queryCmdCipIpdInfo-0x1c>	3c: R_XTENSA_SLOT0_OP	.text.at_queryCmdCipIpdInfo+0x8
  3f:	90ccc0        	addx2	a12, a12, a12
  42:	b0cc20        	addx8	a12, a12, a2
  45:	fff121        	l32r	a2, c <at_queryCmdCipIpdInfo-0x18>	45: R_XTENSA_SLOT0_OP	.text.at_queryCmdCipIpdInfo+0xc
  48:	ffef31        	l32r	a3, 4 <at_queryCmdCipIpdInfo-0x20>	48: R_XTENSA_SLOT0_OP	.text.at_queryCmdCipIpdInfo+0x4
  4b:	000252        	l8ui	a5, a2, 0
  4e:	ffec21        	l32r	a2, 0 <at_queryCmdCipIpdInfo-0x24>	4e: R_XTENSA_SLOT0_OP	.text.at_queryCmdCipIpdInfo
  51:	0c48      	l32i.n	a4, a12, 0
  53:	832350        	moveqz	a2, a3, a5
  56:	ffee31        	l32r	a3, 10 <at_queryCmdCipIpdInfo-0x14>	56: R_XTENSA_SLOT0_OP	.text.at_queryCmdCipIpdInfo+0x10
  59:	025d      	mov.n	a5, a2
  5b:	202110        	or	a2, a1, a1
  5e:	ffee01        	l32r	a0, 18 <at_queryCmdCipIpdInfo-0xc>	5e: R_XTENSA_SLOT0_OP	.text.at_queryCmdCipIpdInfo+0x18
	5e: R_XTENSA_ASM_EXPAND	ets_sprintf
  61:	0000c0        	callx0	a0
  64:	012d      	mov.n	a2, a1
  66:	ffed01        	l32r	a0, 1c <at_queryCmdCipIpdInfo-0x8>	66: R_XTENSA_SLOT0_OP	.text.at_queryCmdCipIpdInfo+0x1c
	66: R_XTENSA_ASM_EXPAND	at_port_print
  69:	0000c0        	callx0	a0
  6c:	ffed01        	l32r	a0, 20 <at_queryCmdCipIpdInfo-0x4>	6c: R_XTENSA_SLOT0_OP	.text.at_queryCmdCipIpdInfo+0x20
	6c: R_XTENSA_ASM_EXPAND	at_response_ok
  6f:	0000c0        	callx0	a0
  72:	132102        	l32i	a0, a1, 76
  75:	1221c2        	l32i	a12, a1, 72
  78:	50c112        	addi	a1, a1, 80
  7b:	f00d      	ret.n

Disassembly of section .text.at_setupCmdCipIpdInfo:

00000000 <at_setupCmdCipIpdInfo-0x10>:
	...
	0: R_XTENSA_32	ipd_info_enable
	4: R_XTENSA_32	at_response_error
	8: R_XTENSA_32	at_get_next_int_dec
	c: R_XTENSA_32	at_response_ok

00000010 <at_setupCmdCipIpdInfo>:
  10:	d0c112        	addi	a1, a1, -48
  13:	020c      	movi.n	a2, 0
  15:	b109      	s32i.n	a0, a1, 44
  17:	4139      	s32i.n	a3, a1, 16
  19:	1129      	s32i.n	a2, a1, 4
  1b:	0129      	s32i.n	a2, a1, 0
  1d:	089327        	bne	a3, a2, 29 <at_setupCmdCipIpdInfo+0x19>	1d: R_XTENSA_SLOT0_OP	.text.at_setupCmdCipIpdInfo+0x29
  20:	fff901        	l32r	a0, 4 <at_setupCmdCipIpdInfo-0xc>	20: R_XTENSA_SLOT0_OP	.text.at_setupCmdCipIpdInfo+0x4
	20: R_XTENSA_ASM_EXPAND	at_response_error
  23:	0000c0        	callx0	a0
  26:	000b86        	j	58 <at_setupCmdCipIpdInfo+0x48>	26: R_XTENSA_SLOT0_OP	.text.at_setupCmdCipIpdInfo+0x58
  29:	331b      	addi.n	a3, a3, 1
  2b:	4139      	s32i.n	a3, a1, 16
  2d:	204110        	or	a4, a1, a1
  30:	04c132        	addi	a3, a1, 4
  33:	10c122        	addi	a2, a1, 16
  36:	fff401        	l32r	a0, 8 <at_setupCmdCipIpdInfo-0x8>	36: R_XTENSA_SLOT0_OP	.text.at_setupCmdCipIpdInfo+0x8
	36: R_XTENSA_ASM_EXPAND	at_get_next_int_dec
  39:	0000c0        	callx0	a0
  3c:	fe0256        	bnez	a2, 20 <at_setupCmdCipIpdInfo+0x10>	3c: R_XTENSA_SLOT0_OP	.text.at_setupCmdCipIpdInfo+0x20
  3f:	1128      	l32i.n	a2, a1, 4
  41:	030c      	movi.n	a3, 0
  43:	005216        	beqz	a2, 4c <at_setupCmdCipIpdInfo+0x3c>	43: R_XTENSA_SLOT0_OP	.text.at_setupCmdCipIpdInfo+0x4c
  46:	d61266        	bnei	a2, 1, 20 <at_setupCmdCipIpdInfo+0x10>	46: R_XTENSA_SLOT0_OP	.text.at_setupCmdCipIpdInfo+0x20
  49:	01a032        	movi	a3, 1
  4c:	ffed21        	l32r	a2, 0 <at_setupCmdCipIpdInfo-0x10>	4c: R_XTENSA_SLOT0_OP	.text.at_setupCmdCipIpdInfo
  4f:	004232        	s8i	a3, a2, 0
  52:	ffee01        	l32r	a0, c <at_setupCmdCipIpdInfo-0x4>	52: R_XTENSA_SLOT0_OP	.text.at_setupCmdCipIpdInfo+0xc
	52: R_XTENSA_ASM_EXPAND	at_response_ok
  55:	0000c0        	callx0	a0
  58:	b108      	l32i.n	a0, a1, 44
  5a:	30c112        	addi	a1, a1, 48
  5d:	f00d      	ret.n

Disassembly of section .text.at_set_rx_buf_state:

00000000 <at_set_rx_buf_state-0x14>:
   0:	24 00 00 60 	
	...
	4: R_XTENSA_32	fake_uart_flag
	8: R_XTENSA_32	.data.at_linkMax
	c: R_XTENSA_32	pLink
	10: R_XTENSA_32	uart_set_rx_buf_state

00000014 <at_set_rx_buf_state>:
  14:	f0c112        	addi	a1, a1, -16
  17:	036102        	s32i	a0, a1, 12
  1a:	e2fc      	bnez.n	a2, 5c <at_set_rx_buf_state+0x48>	1a: R_XTENSA_SLOT0_OP	.text.at_set_rx_buf_state+0x5c
  1c:	fff921        	l32r	a2, 0 <at_set_rx_buf_state-0x14>	1c: R_XTENSA_SLOT0_OP	.text.at_set_rx_buf_state
  1f:	0020c0        	memw
  22:	002222        	l32i	a2, a2, 0
  25:	077277        	bbci	a2, 23, 30 <at_set_rx_buf_state+0x1c>	25: R_XTENSA_SLOT0_OP	.text.at_set_rx_buf_state+0x30
  28:	fff721        	l32r	a2, 4 <at_set_rx_buf_state-0x10>	28: R_XTENSA_SLOT0_OP	.text.at_set_rx_buf_state+0x4
  2b:	000222        	l8ui	a2, a2, 0
  2e:	02bc      	beqz.n	a2, 62 <at_set_rx_buf_state+0x4e>	2e: R_XTENSA_SLOT0_OP	.text.at_set_rx_buf_state+0x62
  30:	fff621        	l32r	a2, 8 <at_set_rx_buf_state-0xc>	30: R_XTENSA_SLOT0_OP	.text.at_set_rx_buf_state+0x8
  33:	000242        	l8ui	a4, a2, 0
  36:	fff521        	l32r	a2, c <at_set_rx_buf_state-0x8>	36: R_XTENSA_SLOT0_OP	.text.at_set_rx_buf_state+0xc
  39:	0238      	l32i.n	a3, a2, 0
  3b:	020c      	movi.n	a2, 0
  3d:	191247        	beq	a2, a4, 5a <at_set_rx_buf_state+0x46>	3d: R_XTENSA_SLOT0_OP	.text.at_set_rx_buf_state+0x5a
  40:	000352        	l8ui	a5, a3, 0
  43:	051566        	bnei	a5, 1, 4c <at_set_rx_buf_state+0x38>	43: R_XTENSA_SLOT0_OP	.text.at_set_rx_buf_state+0x4c
  46:	080352        	l8ui	a5, a3, 8
  49:	015556        	bnez	a5, 62 <at_set_rx_buf_state+0x4e>	49: R_XTENSA_SLOT0_OP	.text.at_set_rx_buf_state+0x62
  4c:	221b      	addi.n	a2, a2, 1
  4e:	742020        	extui	a2, a2, 0, 8
  51:	4cc332        	addi	a3, a3, 76
  54:	fff946        	j	3d <at_set_rx_buf_state+0x29>	54: R_XTENSA_SLOT0_OP	.text.at_set_rx_buf_state+0x3d
  57:	00          	.byte 00
  58:	00          	.byte 00
  59:	00          	.byte 00
  5a:	020c      	movi.n	a2, 0
  5c:	ffed01        	l32r	a0, 10 <at_set_rx_buf_state-0x4>	5c: R_XTENSA_SLOT0_OP	.text.at_set_rx_buf_state+0x10
	5c: R_XTENSA_ASM_EXPAND	uart_set_rx_buf_state
  5f:	0000c0        	callx0	a0
  62:	3108      	l32i.n	a0, a1, 12
  64:	10c112        	addi	a1, a1, 16
  67:	f00d      	ret.n

Disassembly of section .text.at_tcpclient_sent_cb:

00000000 <.text.at_tcpclient_sent_cb>:
	...
	0: R_XTENSA_32	IPMODE
	4: R_XTENSA_32	sendingID
	8: R_XTENSA_32	pLink
	c: R_XTENSA_32	at_ipMux
  10:	cd 02 00 00 		10: R_XTENSA_32	.rodata.str1.1
  14:	df 02 00 00 		14: R_XTENSA_32	.rodata.str1.1
	...
	18: R_XTENSA_32	specialAtState
	1c: R_XTENSA_32	at_state
  20:	be 06 00 00 		20: R_XTENSA_32	.irom.text
	...
	24: R_XTENSA_32	ets_bzero
	28: R_XTENSA_32	ets_sprintf
	2c: R_XTENSA_32	ets_sprintf
	30: R_XTENSA_32	at_port_print
	34: R_XTENSA_32	at_port_print
	38: R_XTENSA_32	at_set_rx_buf_state
  3c:	b0c112        	addi	a1, a1, -80
  3f:	1261c2        	s32i	a12, a1, 72
  42:	034c      	movi.n	a3, 64
  44:	02cd      	mov.n	a12, a2
  46:	012d      	mov.n	a2, a1
  48:	136102        	s32i	a0, a1, 76
  4b:	fff601        	l32r	a0, 24 <.text.at_tcpclient_sent_cb+0x24>	4b: R_XTENSA_SLOT0_OP	.text.at_tcpclient_sent_cb+0x24
	4b: R_XTENSA_ASM_EXPAND	ets_bzero
  4e:	0000c0        	callx0	a0
  51:	0b7c16        	beqz	a12, 10c <.text.at_tcpclient_sent_cb+0x10c>	51: R_XTENSA_SLOT0_OP	.text.at_tcpclient_sent_cb+0x10c
  54:	ffeb21        	l32r	a2, 0 <.text.at_tcpclient_sent_cb>	54: R_XTENSA_SLOT0_OP	.text.at_tcpclient_sent_cb
  57:	6cc8      	l32i.n	a12, a12, 24
  59:	000222        	l8ui	a2, a2, 0
  5c:	021266        	bnei	a2, 1, 62 <.text.at_tcpclient_sent_cb+0x62>	5c: R_XTENSA_SLOT0_OP	.text.at_tcpclient_sent_cb+0x62
  5f:	002a46        	j	10c <.text.at_tcpclient_sent_cb+0x10c>	5f: R_XTENSA_SLOT0_OP	.text.at_tcpclient_sent_cb+0x10c
  62:	220c      	movi.n	a2, 2
  64:	1c29      	s32i.n	a2, a12, 4
  66:	080c22        	l8ui	a2, a12, 8
  69:	7c3266        	bnei	a2, 3, e9 <.text.at_tcpclient_sent_cb+0xe9>	69: R_XTENSA_SLOT0_OP	.text.at_tcpclient_sent_cb+0xe9
  6c:	bc28      	l32i.n	a2, a12, 44
  6e:	321b      	addi.n	a3, a2, 1
  70:	bc39      	s32i.n	a3, a12, 44
  72:	23cc      	bnez.n	a3, 78 <.text.at_tcpclient_sent_cb+0x78>	72: R_XTENSA_SLOT0_OP	.text.at_tcpclient_sent_cb+0x78
  74:	222b      	addi.n	a2, a2, 2
  76:	bc29      	s32i.n	a2, a12, 44
  78:	ffe321        	l32r	a2, 4 <.text.at_tcpclient_sent_cb+0x4>	78: R_XTENSA_SLOT0_OP	.text.at_tcpclient_sent_cb+0x4
  7b:	000232        	l8ui	a3, a2, 0
  7e:	b02330        	addx8	a2, a3, a3
  81:	902230        	addx2	a2, a2, a3
  84:	ffe131        	l32r	a3, 8 <.text.at_tcpclient_sent_cb+0x8>	84: R_XTENSA_SLOT0_OP	.text.at_tcpclient_sent_cb+0x8
  87:	0338      	l32i.n	a3, a3, 0
  89:	a02230        	addx4	a2, a2, a3
  8c:	b248      	l32i.n	a4, a2, 44
  8e:	a238      	l32i.n	a3, a2, 40
  90:	c03340        	sub	a3, a3, a4
  93:	140c      	movi.n	a4, 1
  95:	401300        	ssl	a3
  98:	a13400        	sll	a3, a4
  9b:	d248      	l32i.n	a4, a2, 52
  9d:	203430        	or	a3, a4, a3
  a0:	d239      	s32i.n	a3, a2, 52
  a2:	ffda21        	l32r	a2, c <.text.at_tcpclient_sent_cb+0xc>	a2: R_XTENSA_SLOT0_OP	.text.at_tcpclient_sent_cb+0xc
  a5:	000222        	l8ui	a2, a2, 0
  a8:	429c      	beqz.n	a2, c0 <.text.at_tcpclient_sent_cb+0xc0>	a8: R_XTENSA_SLOT0_OP	.text.at_tcpclient_sent_cb+0xc0
  aa:	0b2c52        	l32i	a5, a12, 44
  ad:	020c42        	l8ui	a4, a12, 2
  b0:	ffd831        	l32r	a3, 10 <.text.at_tcpclient_sent_cb+0x10>	b0: R_XTENSA_SLOT0_OP	.text.at_tcpclient_sent_cb+0x10
  b3:	202110        	or	a2, a1, a1
  b6:	ffdc01        	l32r	a0, 28 <.text.at_tcpclient_sent_cb+0x28>	b6: R_XTENSA_SLOT0_OP	.text.at_tcpclient_sent_cb+0x28
	b6: R_XTENSA_ASM_EXPAND	ets_sprintf
  b9:	0000c0        	callx0	a0
  bc:	000346        	j	cd <.text.at_tcpclient_sent_cb+0xcd>	bc: R_XTENSA_SLOT0_OP	.text.at_tcpclient_sent_cb+0xcd
  bf:	00          	.byte 00
  c0:	bc48      	l32i.n	a4, a12, 44
  c2:	ffd431        	l32r	a3, 14 <.text.at_tcpclient_sent_cb+0x14>	c2: R_XTENSA_SLOT0_OP	.text.at_tcpclient_sent_cb+0x14
  c5:	012d      	mov.n	a2, a1
  c7:	ffd901        	l32r	a0, 2c <.text.at_tcpclient_sent_cb+0x2c>	c7: R_XTENSA_SLOT0_OP	.text.at_tcpclient_sent_cb+0x2c
	c7: R_XTENSA_ASM_EXPAND	ets_sprintf
  ca:	0000c0        	callx0	a0
  cd:	012d      	mov.n	a2, a1
  cf:	ffd801        	l32r	a0, 30 <.text.at_tcpclient_sent_cb+0x30>	cf: R_XTENSA_SLOT0_OP	.text.at_tcpclient_sent_cb+0x30
	cf: R_XTENSA_ASM_EXPAND	at_port_print
  d2:	0000c0        	callx0	a0
  d5:	bc28      	l32i.n	a2, a12, 44
  d7:	ac38      	l32i.n	a3, a12, 40
  d9:	cc29      	s32i.n	a2, a12, 48
  db:	259237        	bne	a2, a3, 104 <.text.at_tcpclient_sent_cb+0x104>	db: R_XTENSA_SLOT0_OP	.text.at_tcpclient_sent_cb+0x104
  de:	020c      	movi.n	a2, 0
  e0:	084c22        	s8i	a2, a12, 8
  e3:	000746        	j	104 <.text.at_tcpclient_sent_cb+0x104>	e3: R_XTENSA_SLOT0_OP	.text.at_tcpclient_sent_cb+0x104
  e6:	00          	.byte 00
  e7:	00          	.byte 00
  e8:	00          	.byte 00
  e9:	ffcb21        	l32r	a2, 18 <.text.at_tcpclient_sent_cb+0x18>	e9: R_XTENSA_SLOT0_OP	.text.at_tcpclient_sent_cb+0x18
  ec:	130c      	movi.n	a3, 1
  ee:	004232        	s8i	a3, a2, 0
  f1:	ffca31        	l32r	a3, 1c <.text.at_tcpclient_sent_cb+0x1c>	f1: R_XTENSA_SLOT0_OP	.text.at_tcpclient_sent_cb+0x1c
  f4:	020c      	movi.n	a2, 0
  f6:	0329      	s32i.n	a2, a3, 0
  f8:	084c22        	s8i	a2, a12, 8
  fb:	ffc921        	l32r	a2, 20 <.text.at_tcpclient_sent_cb+0x20>	fb: R_XTENSA_SLOT0_OP	.text.at_tcpclient_sent_cb+0x20
  fe:	ffcd01        	l32r	a0, 34 <.text.at_tcpclient_sent_cb+0x34>	fe: R_XTENSA_SLOT0_OP	.text.at_tcpclient_sent_cb+0x34
	fe: R_XTENSA_ASM_EXPAND	at_port_print
 101:	0000c0        	callx0	a0
 104:	020c      	movi.n	a2, 0
 106:	ffcc01        	l32r	a0, 38 <.text.at_tcpclient_sent_cb+0x38>	106: R_XTENSA_SLOT0_OP	.text.at_tcpclient_sent_cb+0x38
	106: R_XTENSA_ASM_EXPAND	at_set_rx_buf_state
 109:	0000c0        	callx0	a0
 10c:	132102        	l32i	a0, a1, 76
 10f:	1221c2        	l32i	a12, a1, 72
 112:	50c112        	addi	a1, a1, 80
 115:	f00d      	ret.n

Disassembly of section .text.at_sendbuf_disconnect:

00000000 <.text.at_sendbuf_disconnect>:
   0:	ca 06 00 00 		0: R_XTENSA_32	.irom.text
   4:	00 00 00 00 		4: R_XTENSA_32	at_ipMux
   8:	ee 02 00 00 		8: R_XTENSA_32	.rodata.str1.1
   c:	00 03 00 00 		c: R_XTENSA_32	.rodata.str1.1
	...
	10: R_XTENSA_32	ets_bzero
	14: R_XTENSA_32	os_printf_plus
	18: R_XTENSA_32	ets_sprintf
	1c: R_XTENSA_32	at_port_print
	20: R_XTENSA_32	ets_sprintf
	24: R_XTENSA_32	at_set_rx_buf_state
  28:	b0c112        	addi	a1, a1, -80
  2b:	1261c2        	s32i	a12, a1, 72
  2e:	034c      	movi.n	a3, 64
  30:	02cd      	mov.n	a12, a2
  32:	012d      	mov.n	a2, a1
  34:	136102        	s32i	a0, a1, 76
  37:	1161d2        	s32i	a13, a1, 68
  3a:	fff501        	l32r	a0, 10 <.text.at_sendbuf_disconnect+0x10>	3a: R_XTENSA_SLOT0_OP	.text.at_sendbuf_disconnect+0x10
	3a: R_XTENSA_ASM_EXPAND	ets_bzero
  3d:	0000c0        	callx0	a0
  40:	075c16        	beqz	a12, b9 <.text.at_sendbuf_disconnect+0xb9>	40: R_XTENSA_SLOT0_OP	.text.at_sendbuf_disconnect+0xb9
  43:	1c38      	l32i.n	a3, a12, 4
  45:	ffee21        	l32r	a2, 0 <.text.at_sendbuf_disconnect>	45: R_XTENSA_SLOT0_OP	.text.at_sendbuf_disconnect
  48:	fff301        	l32r	a0, 14 <.text.at_sendbuf_disconnect+0x14>	48: R_XTENSA_SLOT0_OP	.text.at_sendbuf_disconnect+0x14
	48: R_XTENSA_ASM_EXPAND	os_printf_plus
  4b:	0000c0        	callx0	a0
  4e:	1c28      	l32i.n	a2, a12, 4
  50:	ac38      	l32i.n	a3, a12, 40
  52:	fdc222        	addi	a2, a2, -3
  55:	03dd      	mov.n	a13, a3
  57:	2e22f6        	bgeui	a2, 2, 89 <.text.at_sendbuf_disconnect+0x89>	57: R_XTENSA_SLOT0_OP	.text.at_sendbuf_disconnect+0x89
  5a:	d30b      	addi.n	a13, a3, -1
  5c:	000a46        	j	89 <.text.at_sendbuf_disconnect+0x89>	5c: R_XTENSA_SLOT0_OP	.text.at_sendbuf_disconnect+0x89
  5f:	321b      	addi.n	a3, a2, 1
  61:	bc39      	s32i.n	a3, a12, 44
  63:	23cc      	bnez.n	a3, 69 <.text.at_sendbuf_disconnect+0x69>	63: R_XTENSA_SLOT0_OP	.text.at_sendbuf_disconnect+0x69
  65:	222b      	addi.n	a2, a2, 2
  67:	bc29      	s32i.n	a2, a12, 44
  69:	ffe631        	l32r	a3, 4 <.text.at_sendbuf_disconnect+0x4>	69: R_XTENSA_SLOT0_OP	.text.at_sendbuf_disconnect+0x4
  6c:	000322        	l8ui	a2, a3, 0
  6f:	f29c      	beqz.n	a2, 92 <.text.at_sendbuf_disconnect+0x92>	6f: R_XTENSA_SLOT0_OP	.text.at_sendbuf_disconnect+0x92
  71:	bc58      	l32i.n	a5, a12, 44
  73:	020c42        	l8ui	a4, a12, 2
  76:	ffe431        	l32r	a3, 8 <.text.at_sendbuf_disconnect+0x8>	76: R_XTENSA_SLOT0_OP	.text.at_sendbuf_disconnect+0x8
  79:	012d      	mov.n	a2, a1
  7b:	ffe701        	l32r	a0, 18 <.text.at_sendbuf_disconnect+0x18>	7b: R_XTENSA_SLOT0_OP	.text.at_sendbuf_disconnect+0x18
	7b: R_XTENSA_ASM_EXPAND	ets_sprintf
  7e:	0000c0        	callx0	a0
  81:	012d      	mov.n	a2, a1
  83:	ffe601        	l32r	a0, 1c <.text.at_sendbuf_disconnect+0x1c>	83: R_XTENSA_SLOT0_OP	.text.at_sendbuf_disconnect+0x1c
	83: R_XTENSA_ASM_EXPAND	at_port_print
  86:	0000c0        	callx0	a0
  89:	bc28      	l32i.n	a2, a12, 44
  8b:	d092d7        	bne	a2, a13, 5f <.text.at_sendbuf_disconnect+0x5f>	8b: R_XTENSA_SLOT0_OP	.text.at_sendbuf_disconnect+0x5f
  8e:	000446        	j	a3 <.text.at_sendbuf_disconnect+0xa3>	8e: R_XTENSA_SLOT0_OP	.text.at_sendbuf_disconnect+0xa3
  91:	00          	.byte 00
  92:	bc48      	l32i.n	a4, a12, 44
  94:	ffde31        	l32r	a3, c <.text.at_sendbuf_disconnect+0xc>	94: R_XTENSA_SLOT0_OP	.text.at_sendbuf_disconnect+0xc
  97:	202110        	or	a2, a1, a1
  9a:	ffe101        	l32r	a0, 20 <.text.at_sendbuf_disconnect+0x20>	9a: R_XTENSA_SLOT0_OP	.text.at_sendbuf_disconnect+0x20
	9a: R_XTENSA_ASM_EXPAND	ets_sprintf
  9d:	0000c0        	callx0	a0
  a0:	fff746        	j	81 <.text.at_sendbuf_disconnect+0x81>	a0: R_XTENSA_SLOT0_OP	.text.at_sendbuf_disconnect+0x81
  a3:	020c      	movi.n	a2, 0
  a5:	1c29      	s32i.n	a2, a12, 4
  a7:	ac28      	l32i.n	a2, a12, 40
  a9:	0c9d27        	bne	a13, a2, b9 <.text.at_sendbuf_disconnect+0xb9>	a9: R_XTENSA_SLOT0_OP	.text.at_sendbuf_disconnect+0xb9
  ac:	020c      	movi.n	a2, 0
  ae:	084c22        	s8i	a2, a12, 8
  b1:	020c      	movi.n	a2, 0
  b3:	ffdc01        	l32r	a0, 24 <.text.at_sendbuf_disconnect+0x24>	b3: R_XTENSA_SLOT0_OP	.text.at_sendbuf_disconnect+0x24
	b3: R_XTENSA_ASM_EXPAND	at_set_rx_buf_state
  b6:	0000c0        	callx0	a0
  b9:	132102        	l32i	a0, a1, 76
  bc:	1221c2        	l32i	a12, a1, 72
  bf:	1121d2        	l32i	a13, a1, 68
  c2:	50c112        	addi	a1, a1, 80
  c5:	f00d      	ret.n

Disassembly of section .text.at_setupCmdCipstart:

00000000 <at_setupCmdCipstart-0x1e4>:
   0:	00 00 00 00 		0: R_XTENSA_32	at_wifiMode
   4:	24 06 00 00 		4: R_XTENSA_32	.irom.text
	...
	8: R_XTENSA_32	at_ipMux
	c: R_XTENSA_32	.data.at_linkMax
  10:	19 06 00 00 		10: R_XTENSA_32	.irom.text
  14:	07 06 00 00 		14: R_XTENSA_32	.irom.text
  18:	0f 03 00 00 		18: R_XTENSA_32	.rodata.str1.1
  1c:	13 03 00 00 		1c: R_XTENSA_32	.rodata.str1.1
  20:	17 03 00 00 		20: R_XTENSA_32	.rodata.str1.1
  24:	f5 05 00 00 		24: R_XTENSA_32	.irom.text
  28:	ea 05 00 00 		28: R_XTENSA_32	.irom.text
  2c:	dc 05 00 00 		2c: R_XTENSA_32	.irom.text
  30:	ff ff 00 00 	
  34:	cb 05 00 00 		34: R_XTENSA_32	.irom.text
  38:	fe ff 00 00 	
  3c:	bb 05 00 00 		3c: R_XTENSA_32	.irom.text
  40:	aa 05 00 00 		40: R_XTENSA_32	.irom.text
  44:	9d 05 00 00 		44: R_XTENSA_32	.irom.text
  48:	20 1c 00 00 	
  4c:	00 00 00 00 		4c: R_XTENSA_32	pLink
  50:	89 05 00 00 		50: R_XTENSA_32	.irom.text
  54:	3c 07 00 00 		54: R_XTENSA_32	.irom.text
  58:	7a 05 00 00 		58: R_XTENSA_32	.irom.text
  5c:	68 05 00 00 		5c: R_XTENSA_32	.irom.text
	...
	60: R_XTENSA_32	espconn_secure_connect
	64: R_XTENSA_32	espconn_secure_disconnect
	68: R_XTENSA_32	espconn_secure_sent
	6c: R_XTENSA_32	at_ssl_cnt
  70:	58 05 00 00 		70: R_XTENSA_32	.irom.text
	...
	74: R_XTENSA_32	.bss.at_ssl_client_config
	78: R_XTENSA_32	espconn_connect
	7c: R_XTENSA_32	espconn_disconnect
	80: R_XTENSA_32	espconn_create
	84: R_XTENSA_32	espconn_delete
	88: R_XTENSA_32	espconn_sent
  8c:	88 00 00 00 		8c: R_XTENSA_32	.text.at_tcpclient_connect_cb
  90:	ac 00 00 00 		90: R_XTENSA_32	.text.at_tcpclient_recon_cb
  94:	b4 00 00 00 		94: R_XTENSA_32	.text.at_tcpclient_discon_cb
  98:	00 00 00 00 		98: R_XTENSA_32	specialAtState
  9c:	1b 03 00 00 		9c: R_XTENSA_32	.rodata.str1.1
  a0:	c4 00 00 00 		a0: R_XTENSA_32	.text.at_dns_found
  a4:	00 00 00 00 		a4: R_XTENSA_32	.bss.host_ip
  a8:	84 00 00 00 		a8: R_XTENSA_32	.rodata.str1.1
  ac:	b3 00 00 00 		ac: R_XTENSA_32	.rodata.str1.1
  b0:	e2 00 00 00 		b0: R_XTENSA_32	.rodata.str1.1
  b4:	f4 00 00 00 		b4: R_XTENSA_32	.rodata.str1.1
	...
	b8: R_XTENSA_32	.bss.at_linkNum
	bc: R_XTENSA_32	IPMODE
	c0: R_XTENSA_32	at_udpclient_recv
  c4:	3c 00 00 00 		c4: R_XTENSA_32	.text.at_tcpclient_sent_cb
  c8:	03 01 00 00 		c8: R_XTENSA_32	.rodata.str1.1
  cc:	32 01 00 00 		cc: R_XTENSA_32	.rodata.str1.1
  d0:	61 01 00 00 		d0: R_XTENSA_32	.rodata.str1.1
  d4:	6e 01 00 00 		d4: R_XTENSA_32	.rodata.str1.1
	...
	d8: R_XTENSA_32	ets_bzero
	dc: R_XTENSA_32	ets_bzero
	e0: R_XTENSA_32	wifi_station_get_connect_status
	e4: R_XTENSA_32	at_port_print
	e8: R_XTENSA_32	at_response_error
	ec: R_XTENSA_32	at_get_next_int_dec
	f0: R_XTENSA_32	at_data_str_copy
	f4: R_XTENSA_32	ets_strcmp
	f8: R_XTENSA_32	ets_strcmp
	fc: R_XTENSA_32	ets_strcmp
	100: R_XTENSA_32	at_data_str_copy
	104: R_XTENSA_32	at_get_next_int_dec
	108: R_XTENSA_32	os_printf_plus
	10c: R_XTENSA_32	at_get_next_int_dec
	110: R_XTENSA_32	espconn_port
	114: R_XTENSA_32	os_printf_plus
	118: R_XTENSA_32	at_get_next_int_dec
	11c: R_XTENSA_32	os_printf_plus
	120: R_XTENSA_32	at_get_next_int_dec
	124: R_XTENSA_32	espconn_port
	128: R_XTENSA_32	pvPortZalloc
	12c: R_XTENSA_32	system_partition_get_item
	130: R_XTENSA_32	espconn_secure_cert_req_enable
	134: R_XTENSA_32	espconn_secure_cert_req_disable
	138: R_XTENSA_32	system_partition_get_item
	13c: R_XTENSA_32	espconn_secure_ca_enable
	140: R_XTENSA_32	espconn_secure_ca_disable
	144: R_XTENSA_32	vPortFree
	148: R_XTENSA_32	ipaddr_addr
	14c: R_XTENSA_32	pvPortZalloc
	150: R_XTENSA_32	espconn_port
	154: R_XTENSA_32	ets_memcpy
	158: R_XTENSA_32	espconn_regist_connectcb
	15c: R_XTENSA_32	espconn_regist_reconcb
	160: R_XTENSA_32	espconn_regist_disconcb
	164: R_XTENSA_32	ets_memcmp
	168: R_XTENSA_32	at_get_sys_msg_mask
	16c: R_XTENSA_32	ets_sprintf
	170: R_XTENSA_32	ets_sprintf
	174: R_XTENSA_32	ets_sprintf
	178: R_XTENSA_32	at_port_print
	17c: R_XTENSA_32	vPortFree
	180: R_XTENSA_32	vPortFree
	184: R_XTENSA_32	pvPortZalloc
	188: R_XTENSA_32	espconn_port
	18c: R_XTENSA_32	espconn_port
	190: R_XTENSA_32	espconn_regist_recvcb
	194: R_XTENSA_32	espconn_regist_sentcb
	198: R_XTENSA_32	ets_memcpy
	19c: R_XTENSA_32	ipaddr_addr
	1a0: R_XTENSA_32	ets_memcpy
	1a4: R_XTENSA_32	ets_memcpy
	1a8: R_XTENSA_32	ets_memcmp
	1ac: R_XTENSA_32	espconn_gethostbyname
	1b0: R_XTENSA_32	at_get_sys_msg_mask
	1b4: R_XTENSA_32	ets_sprintf
	1b8: R_XTENSA_32	ets_sprintf
	1bc: R_XTENSA_32	ets_sprintf
	1c0: R_XTENSA_32	at_port_print
	1c4: R_XTENSA_32	vPortFree
	1c8: R_XTENSA_32	vPortFree
	1cc: R_XTENSA_32	at_get_sys_msg_mask
	1d0: R_XTENSA_32	ets_sprintf
	1d4: R_XTENSA_32	ets_sprintf
	1d8: R_XTENSA_32	ets_sprintf
	1dc: R_XTENSA_32	at_port_print
	1e0: R_XTENSA_32	at_response_ok

000001e4 <at_setupCmdCipstart>:
 1e4:	30a192        	movi	a9, 0x130
 1e7:	c01190        	sub	a1, a1, a9
 1ea:	00a022        	movi	a2, 0
 1ed:	4b6102        	s32i	a0, a1, 0x12c
 1f0:	4a61c2        	s32i	a12, a1, 0x128
 1f3:	4961d2        	s32i	a13, a1, 0x124
 1f6:	4861e2        	s32i	a14, a1, 0x120
 1f9:	4761f2        	s32i	a15, a1, 0x11c
 1fc:	406132        	s32i	a3, a1, 0x100
 1ff:	3d6122        	s32i	a2, a1, 244
 202:	3c6122        	s32i	a2, a1, 240
 205:	3b6122        	s32i	a2, a1, 236
 208:	3a6122        	s32i	a2, a1, 232
 20b:	396122        	s32i	a2, a1, 228
 20e:	386122        	s32i	a2, a1, 224
 211:	376122        	s32i	a2, a1, 220
 214:	381327        	beq	a3, a2, 250 <at_setupCmdCipstart+0x6c>	214: R_XTENSA_SLOT0_OP	.text.at_setupCmdCipstart+0x250
 217:	10c142        	addi	a4, a1, 16
 21a:	80a0c2        	movi	a12, 128
 21d:	8024c0        	add	a2, a4, a12
 220:	40a032        	movi	a3, 64
 223:	ffad01        	l32r	a0, d8 <at_setupCmdCipstart-0x10c>	223: R_XTENSA_SLOT0_OP	.text.at_setupCmdCipstart+0xd8
	223: R_XTENSA_ASM_EXPAND	ets_bzero
 226:	0000c0        	callx0	a0
 229:	10c122        	addi	a2, a1, 16
 22c:	203cc0        	or	a3, a12, a12
 22f:	ffab01        	l32r	a0, dc <at_setupCmdCipstart-0x108>	22f: R_XTENSA_SLOT0_OP	.text.at_setupCmdCipstart+0xdc
	22f: R_XTENSA_ASM_EXPAND	ets_bzero
 232:	0000c0        	callx0	a0
 235:	ff7221        	l32r	a2, 0 <at_setupCmdCipstart-0x1e4>	235: R_XTENSA_SLOT0_OP	.text.at_setupCmdCipstart
 238:	000222        	l8ui	a2, a2, 0
 23b:	1a1266        	bnei	a2, 1, 259 <at_setupCmdCipstart+0x75>	23b: R_XTENSA_SLOT0_OP	.text.at_setupCmdCipstart+0x259
 23e:	ffa801        	l32r	a0, e0 <at_setupCmdCipstart-0x104>	23e: R_XTENSA_SLOT0_OP	.text.at_setupCmdCipstart+0xe0
	23e: R_XTENSA_ASM_EXPAND	wifi_station_get_connect_status
 241:	0000c0        	callx0	a0
 244:	115226        	beqi	a2, 5, 259 <at_setupCmdCipstart+0x75>	244: R_XTENSA_SLOT0_OP	.text.at_setupCmdCipstart+0x259
 247:	ff6f21        	l32r	a2, 4 <at_setupCmdCipstart-0x1e0>	247: R_XTENSA_SLOT0_OP	.text.at_setupCmdCipstart+0x4
 24a:	ffa601        	l32r	a0, e4 <at_setupCmdCipstart-0x100>	24a: R_XTENSA_SLOT0_OP	.text.at_setupCmdCipstart+0xe4
	24a: R_XTENSA_ASM_EXPAND	at_port_print
 24d:	0000c0        	callx0	a0
 250:	ffa601        	l32r	a0, e8 <at_setupCmdCipstart-0xfc>	250: R_XTENSA_SLOT0_OP	.text.at_setupCmdCipstart+0xe8
	250: R_XTENSA_ASM_EXPAND	at_response_error
 253:	0000c0        	callx0	a0
 256:	0268c6        	j	bfd <at_setupCmdCipstart+0xa19>	256: R_XTENSA_SLOT0_OP	.text.at_setupCmdCipstart+0xbfd
 259:	402122        	l32i	a2, a1, 0x100
 25c:	221b      	addi.n	a2, a2, 1
 25e:	406122        	s32i	a2, a1, 0x100
 261:	ff6921        	l32r	a2, 8 <at_setupCmdCipstart-0x1dc>	261: R_XTENSA_SLOT0_OP	.text.at_setupCmdCipstart+0x8
 264:	000232        	l8ui	a3, a2, 0
 267:	73bc      	beqz.n	a3, 2a2 <at_setupCmdCipstart+0xbe>	267: R_XTENSA_SLOT0_OP	.text.at_setupCmdCipstart+0x2a2
 269:	10c152        	addi	a5, a1, 16
 26c:	d8a042        	movi	a4, 216
 26f:	d4a032        	movi	a3, 212
 272:	454a      	add.n	a4, a5, a4
 274:	803530        	add	a3, a5, a3
 277:	01d122        	addmi	a2, a1, 0x100
 27a:	ff9c01        	l32r	a0, ec <at_setupCmdCipstart-0xf8>	27a: R_XTENSA_SLOT0_OP	.text.at_setupCmdCipstart+0xec
	27a: R_XTENSA_ASM_EXPAND	at_get_next_int_dec
 27d:	0000c0        	callx0	a0
 280:	3a2142        	l32i	a4, a1, 232
 283:	313f40        	srai	a3, a4, 31
 286:	c03340        	sub	a3, a3, a4
 289:	fc3396        	bltz	a3, 250 <at_setupCmdCipstart+0x6c>	289: R_XTENSA_SLOT0_OP	.text.at_setupCmdCipstart+0x250
 28c:	fc0216        	beqz	a2, 250 <at_setupCmdCipstart+0x6c>	28c: R_XTENSA_SLOT0_OP	.text.at_setupCmdCipstart+0x250
 28f:	402122        	l32i	a2, a1, 0x100
 292:	321b      	addi.n	a3, a2, 1
 294:	406132        	s32i	a3, a1, 0x100
 297:	000232        	l8ui	a3, a2, 0
 29a:	c22c      	movi.n	a2, 44
 29c:	b09327        	bne	a3, a2, 250 <at_setupCmdCipstart+0x6c>	29c: R_XTENSA_SLOT0_OP	.text.at_setupCmdCipstart+0x250
 29f:	000106        	j	2a7 <at_setupCmdCipstart+0xc3>	29f: R_XTENSA_SLOT0_OP	.text.at_setupCmdCipstart+0x2a7
 2a2:	020c      	movi.n	a2, 0
 2a4:	396122        	s32i	a2, a1, 228
 2a7:	392122        	l32i	a2, a1, 228
 2aa:	008296        	bltz	a2, 2b6 <at_setupCmdCipstart+0xd2>	2aa: R_XTENSA_SLOT0_OP	.text.at_setupCmdCipstart+0x2b6
 2ad:	ff5731        	l32r	a3, c <at_setupCmdCipstart-0x1d8>	2ad: R_XTENSA_SLOT0_OP	.text.at_setupCmdCipstart+0xc
 2b0:	000332        	l8ui	a3, a3, 0
 2b3:	062237        	blt	a2, a3, 2bd <at_setupCmdCipstart+0xd9>	2b3: R_XTENSA_SLOT0_OP	.text.at_setupCmdCipstart+0x2bd
 2b6:	ff5621        	l32r	a2, 10 <at_setupCmdCipstart-0x1d4>	2b6: R_XTENSA_SLOT0_OP	.text.at_setupCmdCipstart+0x10
 2b9:	ffe346        	j	24a <at_setupCmdCipstart+0x66>	2b9: R_XTENSA_SLOT0_OP	.text.at_setupCmdCipstart+0x24a
 2bc:	00          	.byte 00
 2bd:	10c182        	addi	a8, a1, 16
 2c0:	80a0c2        	movi	a12, 128
 2c3:	640c      	movi.n	a4, 6
 2c5:	01d132        	addmi	a3, a1, 0x100
 2c8:	28ca      	add.n	a2, a8, a12
 2ca:	ff8901        	l32r	a0, f0 <at_setupCmdCipstart-0xf4>	2ca: R_XTENSA_SLOT0_OP	.text.at_setupCmdCipstart+0xf0
	2ca: R_XTENSA_ASM_EXPAND	at_data_str_copy
 2cd:	0000c0        	callx0	a0
 2d0:	221b      	addi.n	a2, a2, 1
 2d2:	742020        	extui	a2, a2, 0, 8
 2d5:	0722f6        	bgeui	a2, 2, 2e0 <at_setupCmdCipstart+0xfc>	2d5: R_XTENSA_SLOT0_OP	.text.at_setupCmdCipstart+0x2e0
 2d8:	ff4f21        	l32r	a2, 14 <at_setupCmdCipstart-0x1d0>	2d8: R_XTENSA_SLOT0_OP	.text.at_setupCmdCipstart+0x14
 2db:	ffdac6        	j	24a <at_setupCmdCipstart+0x66>	2db: R_XTENSA_SLOT0_OP	.text.at_setupCmdCipstart+0x24a
 2de:	00          	.byte 00
 2df:	00          	.byte 00
 2e0:	10c142        	addi	a4, a1, 16
 2e3:	ff4d31        	l32r	a3, 18 <at_setupCmdCipstart-0x1cc>	2e3: R_XTENSA_SLOT0_OP	.text.at_setupCmdCipstart+0x18
 2e6:	24ca      	add.n	a2, a4, a12
 2e8:	ff8301        	l32r	a0, f4 <at_setupCmdCipstart-0xf0>	2e8: R_XTENSA_SLOT0_OP	.text.at_setupCmdCipstart+0xf4
	2e8: R_XTENSA_ASM_EXPAND	ets_strcmp
 2eb:	0000c0        	callx0	a0
 2ee:	a2cc      	bnez.n	a2, 2fc <at_setupCmdCipstart+0x118>	2ee: R_XTENSA_SLOT0_OP	.text.at_setupCmdCipstart+0x2fc
 2f0:	120c      	movi.n	a2, 1
 2f2:	386122        	s32i	a2, a1, 224
 2f5:	0e0c      	movi.n	a14, 0
 2f7:	000d06        	j	32f <at_setupCmdCipstart+0x14b>	2f7: R_XTENSA_SLOT0_OP	.text.at_setupCmdCipstart+0x32f
 2fa:	00          	.byte 00
 2fb:	00          	.byte 00
 2fc:	80a0c2        	movi	a12, 128
 2ff:	10c152        	addi	a5, a1, 16
 302:	ff4631        	l32r	a3, 1c <at_setupCmdCipstart-0x1c8>	302: R_XTENSA_SLOT0_OP	.text.at_setupCmdCipstart+0x1c
 305:	25ca      	add.n	a2, a5, a12
 307:	ff7c01        	l32r	a0, f8 <at_setupCmdCipstart-0xec>	307: R_XTENSA_SLOT0_OP	.text.at_setupCmdCipstart+0xf8
	307: R_XTENSA_ASM_EXPAND	ets_strcmp
 30a:	0000c0        	callx0	a0
 30d:	82cc      	bnez.n	a2, 319 <at_setupCmdCipstart+0x135>	30d: R_XTENSA_SLOT0_OP	.text.at_setupCmdCipstart+0x319
 30f:	0e0c      	movi.n	a14, 0
 311:	3861e2        	s32i	a14, a1, 224
 314:	0f2c      	movi.n	a15, 32
 316:	000806        	j	33a <at_setupCmdCipstart+0x156>	316: R_XTENSA_SLOT0_OP	.text.at_setupCmdCipstart+0x33a
 319:	10c182        	addi	a8, a1, 16
 31c:	ff4131        	l32r	a3, 20 <at_setupCmdCipstart-0x1c4>	31c: R_XTENSA_SLOT0_OP	.text.at_setupCmdCipstart+0x20
 31f:	8028c0        	add	a2, a8, a12
 322:	ff7601        	l32r	a0, fc <at_setupCmdCipstart-0xe8>	322: R_XTENSA_SLOT0_OP	.text.at_setupCmdCipstart+0xfc
	322: R_XTENSA_ASM_EXPAND	ets_strcmp
 325:	0000c0        	callx0	a0
 328:	82cc      	bnez.n	a2, 334 <at_setupCmdCipstart+0x150>	328: R_XTENSA_SLOT0_OP	.text.at_setupCmdCipstart+0x334
 32a:	1e0c      	movi.n	a14, 1
 32c:	3861e2        	s32i	a14, a1, 224
 32f:	0f1c      	movi.n	a15, 16
 331:	000146        	j	33a <at_setupCmdCipstart+0x156>	331: R_XTENSA_SLOT0_OP	.text.at_setupCmdCipstart+0x33a
 334:	ff3c21        	l32r	a2, 24 <at_setupCmdCipstart-0x1c0>	334: R_XTENSA_SLOT0_OP	.text.at_setupCmdCipstart+0x24
 337:	ffc3c6        	j	24a <at_setupCmdCipstart+0x66>	337: R_XTENSA_SLOT0_OP	.text.at_setupCmdCipstart+0x24a
 33a:	402122        	l32i	a2, a1, 0x100
 33d:	321b      	addi.n	a3, a2, 1
 33f:	406132        	s32i	a3, a1, 0x100
 342:	000232        	l8ui	a3, a2, 0
 345:	c22c      	movi.n	a2, 44
 347:	021327        	beq	a3, a2, 34d <at_setupCmdCipstart+0x169>	347: R_XTENSA_SLOT0_OP	.text.at_setupCmdCipstart+0x34d
 34a:	ffc086        	j	250 <at_setupCmdCipstart+0x6c>	34a: R_XTENSA_SLOT0_OP	.text.at_setupCmdCipstart+0x250
 34d:	40a042        	movi	a4, 64
 350:	01d132        	addmi	a3, a1, 0x100
 353:	10c122        	addi	a2, a1, 16
 356:	ff6a01        	l32r	a0, 100 <at_setupCmdCipstart-0xe4>	356: R_XTENSA_SLOT0_OP	.text.at_setupCmdCipstart+0x100
	356: R_XTENSA_ASM_EXPAND	at_data_str_copy
 359:	0000c0        	callx0	a0
 35c:	221b      	addi.n	a2, a2, 1
 35e:	742020        	extui	a2, a2, 0, 8
 361:	0722f6        	bgeui	a2, 2, 36c <at_setupCmdCipstart+0x188>	361: R_XTENSA_SLOT0_OP	.text.at_setupCmdCipstart+0x36c
 364:	ff3121        	l32r	a2, 28 <at_setupCmdCipstart-0x1bc>	364: R_XTENSA_SLOT0_OP	.text.at_setupCmdCipstart+0x28
 367:	ffb7c6        	j	24a <at_setupCmdCipstart+0x66>	367: R_XTENSA_SLOT0_OP	.text.at_setupCmdCipstart+0x24a
 36a:	00          	.byte 00
 36b:	00          	.byte 00
 36c:	402122        	l32i	a2, a1, 0x100
 36f:	321b      	addi.n	a3, a2, 1
 371:	406132        	s32i	a3, a1, 0x100
 374:	000232        	l8ui	a3, a2, 0
 377:	c22c      	movi.n	a2, 44
 379:	071327        	beq	a3, a2, 384 <at_setupCmdCipstart+0x1a0>	379: R_XTENSA_SLOT0_OP	.text.at_setupCmdCipstart+0x384
 37c:	ff2c21        	l32r	a2, 2c <at_setupCmdCipstart-0x1b8>	37c: R_XTENSA_SLOT0_OP	.text.at_setupCmdCipstart+0x2c
 37f:	ffb1c6        	j	24a <at_setupCmdCipstart+0x66>	37f: R_XTENSA_SLOT0_OP	.text.at_setupCmdCipstart+0x24a
 382:	00          	.byte 00
 383:	00          	.byte 00
 384:	10c122        	addi	a2, a1, 16
 387:	d8a042        	movi	a4, 216
 38a:	e0a032        	movi	a3, 224
 38d:	804240        	add	a4, a2, a4
 390:	803230        	add	a3, a2, a3
 393:	01d122        	addmi	a2, a1, 0x100
 396:	ff5b01        	l32r	a0, 104 <at_setupCmdCipstart-0xe0>	396: R_XTENSA_SLOT0_OP	.text.at_setupCmdCipstart+0x104
	396: R_XTENSA_ASM_EXPAND	at_get_next_int_dec
 399:	0000c0        	callx0	a0
 39c:	3a2122        	l32i	a2, a1, 232
 39f:	0222a6        	blti	a2, 2, 3a5 <at_setupCmdCipstart+0x1c1>	39f: R_XTENSA_SLOT0_OP	.text.at_setupCmdCipstart+0x3a5
 3a2:	ffaa86        	j	250 <at_setupCmdCipstart+0x6c>	3a2: R_XTENSA_SLOT0_OP	.text.at_setupCmdCipstart+0x250
 3a5:	3c2132        	l32i	a3, a1, 240
 3a8:	ff2221        	l32r	a2, 30 <at_setupCmdCipstart-0x1b4>	3a8: R_XTENSA_SLOT0_OP	.text.at_setupCmdCipstart+0x30
 3ab:	02b237        	bgeu	a2, a3, 3b1 <at_setupCmdCipstart+0x1cd>	3ab: R_XTENSA_SLOT0_OP	.text.at_setupCmdCipstart+0x3b1
 3ae:	ffa786        	j	250 <at_setupCmdCipstart+0x6c>	3ae: R_XTENSA_SLOT0_OP	.text.at_setupCmdCipstart+0x250
 3b1:	02cf26        	beqi	a15, 32, 3b7 <at_setupCmdCipstart+0x1d3>	3b1: R_XTENSA_SLOT0_OP	.text.at_setupCmdCipstart+0x3b7
 3b4:	003706        	j	494 <at_setupCmdCipstart+0x2b0>	3b4: R_XTENSA_SLOT0_OP	.text.at_setupCmdCipstart+0x494
 3b7:	ff1f21        	l32r	a2, 34 <at_setupCmdCipstart-0x1b0>	3b7: R_XTENSA_SLOT0_OP	.text.at_setupCmdCipstart+0x34
 3ba:	ff5301        	l32r	a0, 108 <at_setupCmdCipstart-0xdc>	3ba: R_XTENSA_SLOT0_OP	.text.at_setupCmdCipstart+0x108
	3ba: R_XTENSA_ASM_EXPAND	os_printf_plus
 3bd:	0000c0        	callx0	a0
 3c0:	402122        	l32i	a2, a1, 0x100
 3c3:	c42c      	movi.n	a4, 44
 3c5:	000232        	l8ui	a3, a2, 0
 3c8:	021347        	beq	a3, a4, 3ce <at_setupCmdCipstart+0x1ea>	3c8: R_XTENSA_SLOT0_OP	.text.at_setupCmdCipstart+0x3ce
 3cb:	002a86        	j	479 <at_setupCmdCipstart+0x295>	3cb: R_XTENSA_SLOT0_OP	.text.at_setupCmdCipstart+0x479
 3ce:	10c132        	addi	a3, a1, 16
 3d1:	d8a042        	movi	a4, 216
 3d4:	221b      	addi.n	a2, a2, 1
 3d6:	434a      	add.n	a4, a3, a4
 3d8:	10c152        	addi	a5, a1, 16
 3db:	dca032        	movi	a3, 220
 3de:	406122        	s32i	a2, a1, 0x100
 3e1:	353a      	add.n	a3, a5, a3
 3e3:	01d122        	addmi	a2, a1, 0x100
 3e6:	ff4901        	l32r	a0, 10c <at_setupCmdCipstart-0xd8>	3e6: R_XTENSA_SLOT0_OP	.text.at_setupCmdCipstart+0x10c
	3e6: R_XTENSA_ASM_EXPAND	at_get_next_int_dec
 3e9:	0000c0        	callx0	a0
 3ec:	3a2122        	l32i	a2, a1, 232
 3ef:	0e12a6        	blti	a2, 1, 401 <at_setupCmdCipstart+0x21d>	3ef: R_XTENSA_SLOT0_OP	.text.at_setupCmdCipstart+0x401
 3f2:	021226        	beqi	a2, 1, 3f8 <at_setupCmdCipstart+0x214>	3f2: R_XTENSA_SLOT0_OP	.text.at_setupCmdCipstart+0x3f8
 3f5:	ff95c6        	j	250 <at_setupCmdCipstart+0x6c>	3f5: R_XTENSA_SLOT0_OP	.text.at_setupCmdCipstart+0x250
 3f8:	ff4601        	l32r	a0, 110 <at_setupCmdCipstart-0xd4>	3f8: R_XTENSA_SLOT0_OP	.text.at_setupCmdCipstart+0x110
	3f8: R_XTENSA_ASM_EXPAND	espconn_port
 3fb:	0000c0        	callx0	a0
 3fe:	3b6122        	s32i	a2, a1, 236
 401:	3b2132        	l32i	a3, a1, 236
 404:	ff0d41        	l32r	a4, 38 <at_setupCmdCipstart-0x1ac>	404: R_XTENSA_SLOT0_OP	.text.at_setupCmdCipstart+0x38
 407:	230b      	addi.n	a2, a3, -1
 409:	02b427        	bgeu	a4, a2, 40f <at_setupCmdCipstart+0x22b>	409: R_XTENSA_SLOT0_OP	.text.at_setupCmdCipstart+0x40f
 40c:	ff9006        	j	250 <at_setupCmdCipstart+0x6c>	40c: R_XTENSA_SLOT0_OP	.text.at_setupCmdCipstart+0x250
 40f:	ff0b21        	l32r	a2, 3c <at_setupCmdCipstart-0x1a8>	40f: R_XTENSA_SLOT0_OP	.text.at_setupCmdCipstart+0x3c
 412:	ff4001        	l32r	a0, 114 <at_setupCmdCipstart-0xd0>	412: R_XTENSA_SLOT0_OP	.text.at_setupCmdCipstart+0x114
	412: R_XTENSA_ASM_EXPAND	os_printf_plus
 415:	0000c0        	callx0	a0
 418:	402122        	l32i	a2, a1, 0x100
 41b:	c42c      	movi.n	a4, 44
 41d:	000232        	l8ui	a3, a2, 0
 420:	369347        	bne	a3, a4, 45a <at_setupCmdCipstart+0x276>	420: R_XTENSA_SLOT0_OP	.text.at_setupCmdCipstart+0x45a
 423:	10c182        	addi	a8, a1, 16
 426:	221b      	addi.n	a2, a2, 1
 428:	d8a042        	movi	a4, 216
 42b:	d0a032        	movi	a3, 208
 42e:	406122        	s32i	a2, a1, 0x100
 431:	803830        	add	a3, a8, a3
 434:	804840        	add	a4, a8, a4
 437:	01d122        	addmi	a2, a1, 0x100
 43a:	ff3701        	l32r	a0, 118 <at_setupCmdCipstart-0xcc>	43a: R_XTENSA_SLOT0_OP	.text.at_setupCmdCipstart+0x118
	43a: R_XTENSA_ASM_EXPAND	at_get_next_int_dec
 43d:	0000c0        	callx0	a0
 440:	402122        	l32i	a2, a1, 0x100
 443:	000232        	l8ui	a3, a2, 0
 446:	d20c      	movi.n	a2, 13
 448:	021327        	beq	a3, a2, 44e <at_setupCmdCipstart+0x26a>	448: R_XTENSA_SLOT0_OP	.text.at_setupCmdCipstart+0x44e
 44b:	ff8046        	j	250 <at_setupCmdCipstart+0x6c>	44b: R_XTENSA_SLOT0_OP	.text.at_setupCmdCipstart+0x250
 44e:	382122        	l32i	a2, a1, 224
 451:	0232b6        	bltui	a2, 3, 457 <at_setupCmdCipstart+0x273>	451: R_XTENSA_SLOT0_OP	.text.at_setupCmdCipstart+0x457
 454:	ff7e06        	j	250 <at_setupCmdCipstart+0x6c>	454: R_XTENSA_SLOT0_OP	.text.at_setupCmdCipstart+0x250
 457:	000346        	j	468 <at_setupCmdCipstart+0x284>	457: R_XTENSA_SLOT0_OP	.text.at_setupCmdCipstart+0x468
 45a:	d20c      	movi.n	a2, 13
 45c:	021327        	beq	a3, a2, 462 <at_setupCmdCipstart+0x27e>	45c: R_XTENSA_SLOT0_OP	.text.at_setupCmdCipstart+0x462
 45f:	ff7b46        	j	250 <at_setupCmdCipstart+0x6c>	45f: R_XTENSA_SLOT0_OP	.text.at_setupCmdCipstart+0x250
 462:	00a022        	movi	a2, 0
 465:	386122        	s32i	a2, a1, 224
 468:	382132        	l32i	a3, a1, 224
 46b:	fef521        	l32r	a2, 40 <at_setupCmdCipstart-0x1a4>	46b: R_XTENSA_SLOT0_OP	.text.at_setupCmdCipstart+0x40
 46e:	ff2b01        	l32r	a0, 11c <at_setupCmdCipstart-0xc8>	46e: R_XTENSA_SLOT0_OP	.text.at_setupCmdCipstart+0x11c
	46e: R_XTENSA_ASM_EXPAND	os_printf_plus
 471:	0000c0        	callx0	a0
 474:	001a06        	j	4e0 <at_setupCmdCipstart+0x2fc>	474: R_XTENSA_SLOT0_OP	.text.at_setupCmdCipstart+0x4e0
 477:	00          	.byte 00
 478:	00          	.byte 00
 479:	d20c      	movi.n	a2, 13
 47b:	021327        	beq	a3, a2, 481 <at_setupCmdCipstart+0x29d>	47b: R_XTENSA_SLOT0_OP	.text.at_setupCmdCipstart+0x481
 47e:	ff7386        	j	250 <at_setupCmdCipstart+0x6c>	47e: R_XTENSA_SLOT0_OP	.text.at_setupCmdCipstart+0x250
 481:	3c2122        	l32i	a2, a1, 240
 484:	428c      	beqz.n	a2, 48c <at_setupCmdCipstart+0x2a8>	484: R_XTENSA_SLOT0_OP	.text.at_setupCmdCipstart+0x48c
 486:	100122        	l8ui	a2, a1, 16
 489:	061256        	bnez	a2, 4ee <at_setupCmdCipstart+0x30a>	489: R_XTENSA_SLOT0_OP	.text.at_setupCmdCipstart+0x4ee
 48c:	feee21        	l32r	a2, 44 <at_setupCmdCipstart-0x1a0>	48c: R_XTENSA_SLOT0_OP	.text.at_setupCmdCipstart+0x44
 48f:	ff6dc6        	j	24a <at_setupCmdCipstart+0x66>	48f: R_XTENSA_SLOT0_OP	.text.at_setupCmdCipstart+0x24a
 492:	00          	.byte 00
 493:	00          	.byte 00
 494:	48bf66        	bnei	a15, 16, 4e0 <at_setupCmdCipstart+0x2fc>	494: R_XTENSA_SLOT0_OP	.text.at_setupCmdCipstart+0x4e0
 497:	402122        	l32i	a2, a1, 0x100
 49a:	c32c      	movi.n	a3, 44
 49c:	000242        	l8ui	a4, a2, 0
 49f:	2a9437        	bne	a4, a3, 4cd <at_setupCmdCipstart+0x2e9>	49f: R_XTENSA_SLOT0_OP	.text.at_setupCmdCipstart+0x4cd
 4a2:	221b      	addi.n	a2, a2, 1
 4a4:	406122        	s32i	a2, a1, 0x100
 4a7:	d8a042        	movi	a4, 216
 4aa:	10c122        	addi	a2, a1, 16
 4ad:	cca032        	movi	a3, 204
 4b0:	323a      	add.n	a3, a2, a3
 4b2:	424a      	add.n	a4, a2, a4
 4b4:	01d122        	addmi	a2, a1, 0x100
 4b7:	ff1a01        	l32r	a0, 120 <at_setupCmdCipstart-0xc4>	4b7: R_XTENSA_SLOT0_OP	.text.at_setupCmdCipstart+0x120
	4b7: R_XTENSA_ASM_EXPAND	at_get_next_int_dec
 4ba:	0000c0        	callx0	a0
 4bd:	372122        	l32i	a2, a1, 220
 4c0:	fee231        	l32r	a3, 48 <at_setupCmdCipstart-0x19c>	4c0: R_XTENSA_SLOT0_OP	.text.at_setupCmdCipstart+0x48
 4c3:	02b327        	bgeu	a3, a2, 4c9 <at_setupCmdCipstart+0x2e5>	4c3: R_XTENSA_SLOT0_OP	.text.at_setupCmdCipstart+0x4c9
 4c6:	ff6186        	j	250 <at_setupCmdCipstart+0x6c>	4c6: R_XTENSA_SLOT0_OP	.text.at_setupCmdCipstart+0x250
 4c9:	000146        	j	4d2 <at_setupCmdCipstart+0x2ee>	4c9: R_XTENSA_SLOT0_OP	.text.at_setupCmdCipstart+0x4d2
 4cc:	00          	.byte 00
 4cd:	020c      	movi.n	a2, 0
 4cf:	376122        	s32i	a2, a1, 220
 4d2:	ff1401        	l32r	a0, 124 <at_setupCmdCipstart-0xc0>	4d2: R_XTENSA_SLOT0_OP	.text.at_setupCmdCipstart+0x124
	4d2: R_XTENSA_ASM_EXPAND	espconn_port
 4d5:	0000c0        	callx0	a0
 4d8:	3b6122        	s32i	a2, a1, 236
 4db:	120c      	movi.n	a2, 1
 4dd:	386122        	s32i	a2, a1, 224
 4e0:	402122        	l32i	a2, a1, 0x100
 4e3:	000232        	l8ui	a3, a2, 0
 4e6:	d20c      	movi.n	a2, 13
 4e8:	021327        	beq	a3, a2, 4ee <at_setupCmdCipstart+0x30a>	4e8: R_XTENSA_SLOT0_OP	.text.at_setupCmdCipstart+0x4ee
 4eb:	ff5846        	j	250 <at_setupCmdCipstart+0x6c>	4eb: R_XTENSA_SLOT0_OP	.text.at_setupCmdCipstart+0x250
 4ee:	392152        	l32i	a5, a1, 228
 4f1:	fed6c1        	l32r	a12, 4c <at_setupCmdCipstart-0x198>	4f1: R_XTENSA_SLOT0_OP	.text.at_setupCmdCipstart+0x4c
 4f4:	b02550        	addx8	a2, a5, a5
 4f7:	902250        	addx2	a2, a2, a5
 4fa:	0c58      	l32i.n	a5, a12, 0
 4fc:	a0d250        	addx4	a13, a2, a5
 4ff:	000d22        	l8ui	a2, a13, 0
 502:	628c      	beqz.n	a2, 50c <at_setupCmdCipstart+0x328>	502: R_XTENSA_SLOT0_OP	.text.at_setupCmdCipstart+0x50c
 504:	fed321        	l32r	a2, 50 <at_setupCmdCipstart-0x194>	504: R_XTENSA_SLOT0_OP	.text.at_setupCmdCipstart+0x50
 507:	ff4fc6        	j	24a <at_setupCmdCipstart+0x66>	507: R_XTENSA_SLOT0_OP	.text.at_setupCmdCipstart+0x24a
 50a:	00          	.byte 00
 50b:	00          	.byte 00
 50c:	fed231        	l32r	a3, 54 <at_setupCmdCipstart-0x190>	50c: R_XTENSA_SLOT0_OP	.text.at_setupCmdCipstart+0x54
 50f:	84a542        	movi	a4, 0x584
 512:	c21c      	movi.n	a2, 28
 514:	ff0501        	l32r	a0, 128 <at_setupCmdCipstart-0xbc>	514: R_XTENSA_SLOT0_OP	.text.at_setupCmdCipstart+0x128
	514: R_XTENSA_ASM_EXPAND	pvPortZalloc
 517:	0000c0        	callx0	a0
 51a:	392132        	l32i	a3, a1, 228
 51d:	7d29      	s32i.n	a2, a13, 28
 51f:	0c48      	l32i.n	a4, a12, 0
 521:	b02330        	addx8	a2, a3, a3
 524:	902230        	addx2	a2, a2, a3
 527:	a02240        	addx4	a2, a2, a4
 52a:	7258      	l32i.n	a5, a2, 28
 52c:	fecad1        	l32r	a13, 54 <at_setupCmdCipstart-0x190>	52c: R_XTENSA_SLOT0_OP	.text.at_setupCmdCipstart+0x54
 52f:	55cc      	bnez.n	a5, 538 <at_setupCmdCipstart+0x354>	52f: R_XTENSA_SLOT0_OP	.text.at_setupCmdCipstart+0x538
 531:	fec921        	l32r	a2, 58 <at_setupCmdCipstart-0x18c>	531: R_XTENSA_SLOT0_OP	.text.at_setupCmdCipstart+0x58
 534:	ff4486        	j	24a <at_setupCmdCipstart+0x66>	534: R_XTENSA_SLOT0_OP	.text.at_setupCmdCipstart+0x24a
 537:	00          	.byte 00
 538:	040c      	movi.n	a4, 0
 53a:	05f9      	s32i.n	a15, a5, 0
 53c:	1549      	s32i.n	a4, a5, 4
 53e:	024232        	s8i	a3, a2, 2
 541:	372132        	l32i	a3, a1, 220
 544:	1249      	s32i.n	a4, a2, 4
 546:	9239      	s32i.n	a3, a2, 36
 548:	084242        	s8i	a4, a2, 8
 54b:	09bf26        	beqi	a15, 16, 558 <at_setupCmdCipstart+0x374>	54b: R_XTENSA_SLOT0_OP	.text.at_setupCmdCipstart+0x558
 54e:	061e47        	beq	a14, a4, 558 <at_setupCmdCipstart+0x374>	54e: R_XTENSA_SLOT0_OP	.text.at_setupCmdCipstart+0x558
 551:	fec221        	l32r	a2, 5c <at_setupCmdCipstart-0x188>	551: R_XTENSA_SLOT0_OP	.text.at_setupCmdCipstart+0x5c
 554:	ff3c86        	j	24a <at_setupCmdCipstart+0x66>	554: R_XTENSA_SLOT0_OP	.text.at_setupCmdCipstart+0x24a
 557:	00          	.byte 00
 558:	021e26        	beqi	a14, 1, 55e <at_setupCmdCipstart+0x37a>	558: R_XTENSA_SLOT0_OP	.text.at_setupCmdCipstart+0x55e
 55b:	002346        	j	5ec <at_setupCmdCipstart+0x408>	55b: R_XTENSA_SLOT0_OP	.text.at_setupCmdCipstart+0x5ec
 55e:	fec031        	l32r	a3, 60 <at_setupCmdCipstart-0x184>	55e: R_XTENSA_SLOT0_OP	.text.at_setupCmdCipstart+0x60
 561:	106232        	s32i	a3, a2, 64
 564:	fec031        	l32r	a3, 64 <at_setupCmdCipstart-0x180>	564: R_XTENSA_SLOT0_OP	.text.at_setupCmdCipstart+0x64
 567:	116232        	s32i	a3, a2, 68
 56a:	febf31        	l32r	a3, 68 <at_setupCmdCipstart-0x17c>	56a: R_XTENSA_SLOT0_OP	.text.at_setupCmdCipstart+0x68
 56d:	126232        	s32i	a3, a2, 72
 570:	130c      	movi.n	a3, 1
 572:	034232        	s8i	a3, a2, 3
 575:	febd21        	l32r	a2, 6c <at_setupCmdCipstart-0x178>	575: R_XTENSA_SLOT0_OP	.text.at_setupCmdCipstart+0x6c
 578:	000222        	l8ui	a2, a2, 0
 57b:	528c      	beqz.n	a2, 584 <at_setupCmdCipstart+0x3a0>	57b: R_XTENSA_SLOT0_OP	.text.at_setupCmdCipstart+0x584
 57d:	febc21        	l32r	a2, 70 <at_setupCmdCipstart-0x174>	57d: R_XTENSA_SLOT0_OP	.text.at_setupCmdCipstart+0x70
 580:	ff3186        	j	24a <at_setupCmdCipstart+0x66>	580: R_XTENSA_SLOT0_OP	.text.at_setupCmdCipstart+0x24a
 583:	00          	.byte 00
 584:	febce1        	l32r	a14, 74 <at_setupCmdCipstart-0x170>	584: R_XTENSA_SLOT0_OP	.text.at_setupCmdCipstart+0x74
 587:	0e28      	l32i.n	a2, a14, 0
 589:	236207        	bbci	a2, 0, 5b0 <at_setupCmdCipstart+0x3cc>	589: R_XTENSA_SLOT0_OP	.text.at_setupCmdCipstart+0x5b0
 58c:	c0a032        	movi	a3, 192
 58f:	10c142        	addi	a4, a1, 16
 592:	343a      	add.n	a3, a4, a3
 594:	820c      	movi.n	a2, 8
 596:	fee501        	l32r	a0, 12c <at_setupCmdCipstart-0xb8>	596: R_XTENSA_SLOT0_OP	.text.at_setupCmdCipstart+0x12c
	596: R_XTENSA_ASM_EXPAND	system_partition_get_item
 599:	0000c0        	callx0	a0
 59c:	cb0216        	beqz	a2, 250 <at_setupCmdCipstart+0x6c>	59c: R_XTENSA_SLOT0_OP	.text.at_setupCmdCipstart+0x250
 59f:	352132        	l32i	a3, a1, 212
 5a2:	120c      	movi.n	a2, 1
 5a4:	413c30        	srli	a3, a3, 12
 5a7:	fee201        	l32r	a0, 130 <at_setupCmdCipstart-0xb4>	5a7: R_XTENSA_SLOT0_OP	.text.at_setupCmdCipstart+0x130
	5a7: R_XTENSA_ASM_EXPAND	espconn_secure_cert_req_enable
 5aa:	0000c0        	callx0	a0
 5ad:	0001c6        	j	5b8 <at_setupCmdCipstart+0x3d4>	5ad: R_XTENSA_SLOT0_OP	.text.at_setupCmdCipstart+0x5b8
 5b0:	120c      	movi.n	a2, 1
 5b2:	fee001        	l32r	a0, 134 <at_setupCmdCipstart-0xb0>	5b2: R_XTENSA_SLOT0_OP	.text.at_setupCmdCipstart+0x134
	5b2: R_XTENSA_ASM_EXPAND	espconn_secure_cert_req_disable
 5b5:	0000c0        	callx0	a0
 5b8:	0e28      	l32i.n	a2, a14, 0
 5ba:	236217        	bbci	a2, 1, 5e1 <at_setupCmdCipstart+0x3fd>	5ba: R_XTENSA_SLOT0_OP	.text.at_setupCmdCipstart+0x5e1
 5bd:	c0a032        	movi	a3, 192
 5c0:	10c152        	addi	a5, a1, 16
 5c3:	353a      	add.n	a3, a5, a3
 5c5:	920c      	movi.n	a2, 9
 5c7:	fedc01        	l32r	a0, 138 <at_setupCmdCipstart-0xac>	5c7: R_XTENSA_SLOT0_OP	.text.at_setupCmdCipstart+0x138
	5c7: R_XTENSA_ASM_EXPAND	system_partition_get_item
 5ca:	0000c0        	callx0	a0
 5cd:	c7f216        	beqz	a2, 250 <at_setupCmdCipstart+0x6c>	5cd: R_XTENSA_SLOT0_OP	.text.at_setupCmdCipstart+0x250
 5d0:	352132        	l32i	a3, a1, 212
 5d3:	120c      	movi.n	a2, 1
 5d5:	413c30        	srli	a3, a3, 12
 5d8:	fed901        	l32r	a0, 13c <at_setupCmdCipstart-0xa8>	5d8: R_XTENSA_SLOT0_OP	.text.at_setupCmdCipstart+0x13c
	5d8: R_XTENSA_ASM_EXPAND	espconn_secure_ca_enable
 5db:	0000c0        	callx0	a0
 5de:	000c46        	j	613 <at_setupCmdCipstart+0x42f>	5de: R_XTENSA_SLOT0_OP	.text.at_setupCmdCipstart+0x613
 5e1:	120c      	movi.n	a2, 1
 5e3:	fed701        	l32r	a0, 140 <at_setupCmdCipstart-0xa4>	5e3: R_XTENSA_SLOT0_OP	.text.at_setupCmdCipstart+0x140
	5e3: R_XTENSA_ASM_EXPAND	espconn_secure_ca_disable
 5e6:	0000c0        	callx0	a0
 5e9:	000986        	j	613 <at_setupCmdCipstart+0x42f>	5e9: R_XTENSA_SLOT0_OP	.text.at_setupCmdCipstart+0x613
 5ec:	0cbf66        	bnei	a15, 16, 5fc <at_setupCmdCipstart+0x418>	5ec: R_XTENSA_SLOT0_OP	.text.at_setupCmdCipstart+0x5fc
 5ef:	fea231        	l32r	a3, 78 <at_setupCmdCipstart-0x16c>	5ef: R_XTENSA_SLOT0_OP	.text.at_setupCmdCipstart+0x78
 5f2:	106232        	s32i	a3, a2, 64
 5f5:	fea131        	l32r	a3, 7c <at_setupCmdCipstart-0x168>	5f5: R_XTENSA_SLOT0_OP	.text.at_setupCmdCipstart+0x7c
 5f8:	000246        	j	605 <at_setupCmdCipstart+0x421>	5f8: R_XTENSA_SLOT0_OP	.text.at_setupCmdCipstart+0x605
 5fb:	00          	.byte 00
 5fc:	fea131        	l32r	a3, 80 <at_setupCmdCipstart-0x164>	5fc: R_XTENSA_SLOT0_OP	.text.at_setupCmdCipstart+0x80
 5ff:	106232        	s32i	a3, a2, 64
 602:	fea031        	l32r	a3, 84 <at_setupCmdCipstart-0x160>	602: R_XTENSA_SLOT0_OP	.text.at_setupCmdCipstart+0x84
 605:	116232        	s32i	a3, a2, 68
 608:	fea031        	l32r	a3, 88 <at_setupCmdCipstart-0x15c>	608: R_XTENSA_SLOT0_OP	.text.at_setupCmdCipstart+0x88
 60b:	126232        	s32i	a3, a2, 72
 60e:	030c      	movi.n	a3, 0
 610:	034232        	s8i	a3, a2, 3
 613:	392122        	l32i	a2, a1, 228
 616:	0c48      	l32i.n	a4, a12, 0
 618:	b03220        	addx8	a3, a2, a2
 61b:	902320        	addx2	a2, a3, a2
 61e:	a02240        	addx4	a2, a2, a4
 621:	e228      	l32i.n	a2, a2, 56
 623:	d29c      	beqz.n	a2, 644 <at_setupCmdCipstart+0x460>	623: R_XTENSA_SLOT0_OP	.text.at_setupCmdCipstart+0x644
 625:	c7a542        	movi	a4, 0x5c7
 628:	0d3d      	mov.n	a3, a13
 62a:	fec601        	l32r	a0, 144 <at_setupCmdCipstart-0xa0>	62a: R_XTENSA_SLOT0_OP	.text.at_setupCmdCipstart+0x144
	62a: R_XTENSA_ASM_EXPAND	vPortFree
 62d:	0000c0        	callx0	a0
 630:	392122        	l32i	a2, a1, 228
 633:	0c48      	l32i.n	a4, a12, 0
 635:	b03220        	addx8	a3, a2, a2
 638:	902320        	addx2	a2, a3, a2
 63b:	a02240        	addx4	a2, a2, a4
 63e:	00a032        	movi	a3, 0
 641:	0e6232        	s32i	a3, a2, 56
 644:	392132        	l32i	a3, a1, 228
 647:	b02330        	addx8	a2, a3, a3
 64a:	902230        	addx2	a2, a2, a3
 64d:	0c38      	l32i.n	a3, a12, 0
 64f:	a02230        	addx4	a2, a2, a3
 652:	030c      	movi.n	a3, 0
 654:	f239      	s32i.n	a3, a2, 60
 656:	0abf26        	beqi	a15, 16, 664 <at_setupCmdCipstart+0x480>	656: R_XTENSA_SLOT0_OP	.text.at_setupCmdCipstart+0x664
 659:	02cf66        	bnei	a15, 32, 65f <at_setupCmdCipstart+0x47b>	659: R_XTENSA_SLOT0_OP	.text.at_setupCmdCipstart+0x65f
 65c:	00a346        	j	8ed <at_setupCmdCipstart+0x709>	65c: R_XTENSA_SLOT0_OP	.text.at_setupCmdCipstart+0x8ed
 65f:	016686        	j	bfd <at_setupCmdCipstart+0xa19>	65f: R_XTENSA_SLOT0_OP	.text.at_setupCmdCipstart+0xbfd
 662:	00          	.byte 00
 663:	00          	.byte 00
 664:	10c122        	addi	a2, a1, 16
 667:	feb801        	l32r	a0, 148 <at_setupCmdCipstart-0x9c>	667: R_XTENSA_SLOT0_OP	.text.at_setupCmdCipstart+0x148
	667: R_XTENSA_ASM_EXPAND	ipaddr_addr
 66a:	0000c0        	callx0	a0
 66d:	3d6122        	s32i	a2, a1, 244
 670:	392122        	l32i	a2, a1, 228
 673:	0c48      	l32i.n	a4, a12, 0
 675:	b03220        	addx8	a3, a2, a2
 678:	902320        	addx2	a2, a3, a2
 67b:	a02240        	addx4	a2, a2, a4
 67e:	72e8      	l32i.n	a14, a2, 28
 680:	cfa542        	movi	a4, 0x5cf
 683:	0d3d      	mov.n	a3, a13
 685:	022c      	movi.n	a2, 32
 687:	feb101        	l32r	a0, 14c <at_setupCmdCipstart-0x98>	687: R_XTENSA_SLOT0_OP	.text.at_setupCmdCipstart+0x14c
	687: R_XTENSA_ASM_EXPAND	pvPortZalloc
 68a:	0000c0        	callx0	a0
 68d:	3b2142        	l32i	a4, a1, 236
 690:	2e29      	s32i.n	a2, a14, 8
 692:	392122        	l32i	a2, a1, 228
 695:	94dc      	bnez.n	a4, 6b2 <at_setupCmdCipstart+0x4ce>	695: R_XTENSA_SLOT0_OP	.text.at_setupCmdCipstart+0x6b2
 697:	0c48      	l32i.n	a4, a12, 0
 699:	b03220        	addx8	a3, a2, a2
 69c:	902320        	addx2	a2, a3, a2
 69f:	a02240        	addx4	a2, a2, a4
 6a2:	7228      	l32i.n	a2, a2, 28
 6a4:	22e8      	l32i.n	a14, a2, 8
 6a6:	feaa01        	l32r	a0, 150 <at_setupCmdCipstart-0x94>	6a6: R_XTENSA_SLOT0_OP	.text.at_setupCmdCipstart+0x150
	6a6: R_XTENSA_ASM_EXPAND	espconn_port
 6a9:	0000c0        	callx0	a0
 6ac:	1e29      	s32i.n	a2, a14, 4
 6ae:	000446        	j	6c3 <at_setupCmdCipstart+0x4df>	6ae: R_XTENSA_SLOT0_OP	.text.at_setupCmdCipstart+0x6c3
 6b1:	00          	.byte 00
 6b2:	0c58      	l32i.n	a5, a12, 0
 6b4:	b03220        	addx8	a3, a2, a2
 6b7:	902320        	addx2	a2, a3, a2
 6ba:	a02250        	addx4	a2, a2, a5
 6bd:	7228      	l32i.n	a2, a2, 28
 6bf:	2228      	l32i.n	a2, a2, 8
 6c1:	1249      	s32i.n	a4, a2, 4
 6c3:	392132        	l32i	a3, a1, 228
 6c6:	3c2152        	l32i	a5, a1, 240
 6c9:	b02330        	addx8	a2, a3, a3
 6cc:	902230        	addx2	a2, a2, a3
 6cf:	0c38      	l32i.n	a3, a12, 0
 6d1:	10c182        	addi	a8, a1, 16
 6d4:	a02230        	addx4	a2, a2, a3
 6d7:	7238      	l32i.n	a3, a2, 28
 6d9:	2348      	l32i.n	a4, a3, 8
 6db:	0459      	s32i.n	a5, a4, 0
 6dd:	382142        	l32i	a4, a1, 224
 6e0:	114242        	s8i	a4, a2, 17
 6e3:	2328      	l32i.n	a2, a3, 8
 6e5:	e4a032        	movi	a3, 228
 6e8:	383a      	add.n	a3, a8, a3
 6ea:	440c      	movi.n	a4, 4
 6ec:	0cc222        	addi	a2, a2, 12
 6ef:	fe9901        	l32r	a0, 154 <at_setupCmdCipstart-0x90>	6ef: R_XTENSA_SLOT0_OP	.text.at_setupCmdCipstart+0x154
	6ef: R_XTENSA_ASM_EXPAND	ets_memcpy
 6f2:	0000c0        	callx0	a0
 6f5:	392132        	l32i	a3, a1, 228
 6f8:	b02330        	addx8	a2, a3, a3
 6fb:	902230        	addx2	a2, a2, a3
 6fe:	0c38      	l32i.n	a3, a12, 0
 700:	a03230        	addx4	a3, a2, a3
 703:	7328      	l32i.n	a2, a3, 28
 705:	6239      	s32i.n	a3, a2, 24
 707:	fe6131        	l32r	a3, 8c <at_setupCmdCipstart-0x158>	707: R_XTENSA_SLOT0_OP	.text.at_setupCmdCipstart+0x8c
 70a:	fe9301        	l32r	a0, 158 <at_setupCmdCipstart-0x8c>	70a: R_XTENSA_SLOT0_OP	.text.at_setupCmdCipstart+0x158
	70a: R_XTENSA_ASM_EXPAND	espconn_regist_connectcb
 70d:	0000c0        	callx0	a0
 710:	392122        	l32i	a2, a1, 228
 713:	0c48      	l32i.n	a4, a12, 0
 715:	b03220        	addx8	a3, a2, a2
 718:	902320        	addx2	a2, a3, a2
 71b:	a02240        	addx4	a2, a2, a4
 71e:	fe5c31        	l32r	a3, 90 <at_setupCmdCipstart-0x154>	71e: R_XTENSA_SLOT0_OP	.text.at_setupCmdCipstart+0x90
 721:	7228      	l32i.n	a2, a2, 28
 723:	fe8e01        	l32r	a0, 15c <at_setupCmdCipstart-0x88>	723: R_XTENSA_SLOT0_OP	.text.at_setupCmdCipstart+0x15c
	723: R_XTENSA_ASM_EXPAND	espconn_regist_reconcb
 726:	0000c0        	callx0	a0
 729:	392122        	l32i	a2, a1, 228
 72c:	002c42        	l32i	a4, a12, 0
 72f:	b03220        	addx8	a3, a2, a2
 732:	902320        	addx2	a2, a3, a2
 735:	a02240        	addx4	a2, a2, a4
 738:	fe5731        	l32r	a3, 94 <at_setupCmdCipstart-0x150>	738: R_XTENSA_SLOT0_OP	.text.at_setupCmdCipstart+0x94
 73b:	072222        	l32i	a2, a2, 28
 73e:	fe8801        	l32r	a0, 160 <at_setupCmdCipstart-0x84>	73e: R_XTENSA_SLOT0_OP	.text.at_setupCmdCipstart+0x160
	73e: R_XTENSA_ASM_EXPAND	espconn_regist_disconcb
 741:	0000c0        	callx0	a0
 744:	392132        	l32i	a3, a1, 228
 747:	fe54e1        	l32r	a14, 98 <at_setupCmdCipstart-0x14c>	747: R_XTENSA_SLOT0_OP	.text.at_setupCmdCipstart+0x98
 74a:	b02330        	addx8	a2, a3, a3
 74d:	902230        	addx2	a2, a2, a3
 750:	0c38      	l32i.n	a3, a12, 0
 752:	a02230        	addx4	a2, a2, a3
 755:	130c      	movi.n	a3, 1
 757:	014232        	s8i	a3, a2, 1
 75a:	030c      	movi.n	a3, 0
 75c:	004e32        	s8i	a3, a14, 0
 75f:	130c      	movi.n	a3, 1
 761:	016232        	s32i	a3, a2, 4
 764:	3d2122        	l32i	a2, a1, 244
 767:	110266        	bnei	a2, -1, 77c <at_setupCmdCipstart+0x598>	767: R_XTENSA_SLOT0_OP	.text.at_setupCmdCipstart+0x77c
 76a:	10a042        	movi	a4, 16
 76d:	fe4b31        	l32r	a3, 9c <at_setupCmdCipstart-0x148>	76d: R_XTENSA_SLOT0_OP	.text.at_setupCmdCipstart+0x9c
 770:	802140        	add	a2, a1, a4
 773:	fe7c01        	l32r	a0, 164 <at_setupCmdCipstart-0x80>	773: R_XTENSA_SLOT0_OP	.text.at_setupCmdCipstart+0x164
	773: R_XTENSA_ASM_EXPAND	ets_memcmp
 776:	0000c0        	callx0	a0
 779:	2d4256        	bnez	a2, a51 <at_setupCmdCipstart+0x86d>	779: R_XTENSA_SLOT0_OP	.text.at_setupCmdCipstart+0xa51
 77c:	392132        	l32i	a3, a1, 228
 77f:	b02330        	addx8	a2, a3, a3
 782:	902230        	addx2	a2, a2, a3
 785:	0c38      	l32i.n	a3, a12, 0
 787:	a02230        	addx4	a2, a2, a3
 78a:	030232        	l8ui	a3, a2, 3
 78d:	00b316        	beqz	a3, 79c <at_setupCmdCipstart+0x5b8>	78d: R_XTENSA_SLOT0_OP	.text.at_setupCmdCipstart+0x79c
 790:	fe3741        	l32r	a4, 6c <at_setupCmdCipstart-0x178>	790: R_XTENSA_SLOT0_OP	.text.at_setupCmdCipstart+0x6c
 793:	000432        	l8ui	a3, a4, 0
 796:	01c332        	addi	a3, a3, 1
 799:	004432        	s8i	a3, a4, 0
 79c:	102232        	l32i	a3, a2, 64
 79f:	7228      	l32i.n	a2, a2, 28
 7a1:	0003c0        	callx0	a3
 7a4:	742020        	extui	a2, a2, 0, 8
 7a7:	131216        	beqz	a2, 8dc <at_setupCmdCipstart+0x6f8>	7a7: R_XTENSA_SLOT0_OP	.text.at_setupCmdCipstart+0x8dc
 7aa:	392132        	l32i	a3, a1, 228
 7ad:	120c      	movi.n	a2, 1
 7af:	004e22        	s8i	a2, a14, 0
 7b2:	b02330        	addx8	a2, a3, a3
 7b5:	902230        	addx2	a2, a2, a3
 7b8:	0c38      	l32i.n	a3, a12, 0
 7ba:	a02230        	addx4	a2, a2, a3
 7bd:	00a032        	movi	a3, 0
 7c0:	016232        	s32i	a3, a2, 4
 7c3:	014232        	s8i	a3, a2, 1
 7c6:	fe6801        	l32r	a0, 168 <at_setupCmdCipstart-0x7c>	7c6: R_XTENSA_SLOT0_OP	.text.at_setupCmdCipstart+0x168
	7c6: R_XTENSA_ASM_EXPAND	at_get_sys_msg_mask
 7c9:	0000c0        	callx0	a0
 7cc:	646217        	bbci	a2, 1, 834 <at_setupCmdCipstart+0x650>	7cc: R_XTENSA_SLOT0_OP	.text.at_setupCmdCipstart+0x834
 7cf:	392132        	l32i	a3, a1, 228
 7d2:	b02330        	addx8	a2, a3, a3
 7d5:	902230        	addx2	a2, a2, a3
 7d8:	0c38      	l32i.n	a3, a12, 0
 7da:	a03230        	addx4	a3, a2, a3
 7dd:	7328      	l32i.n	a2, a3, 28
 7df:	030352        	l8ui	a5, a3, 3
 7e2:	2228      	l32i.n	a2, a2, 8
 7e4:	020342        	l8ui	a4, a3, 2
 7e7:	0d0272        	l8ui	a7, a2, 13
 7ea:	0c0262        	l8ui	a6, a2, 12
 7ed:	859c      	beqz.n	a5, 809 <at_setupCmdCipstart+0x625>	7ed: R_XTENSA_SLOT0_OP	.text.at_setupCmdCipstart+0x809
 7ef:	1258      	l32i.n	a5, a2, 4
 7f1:	3159      	s32i.n	a5, a1, 12
 7f3:	0258      	l32i.n	a5, a2, 0
 7f5:	2159      	s32i.n	a5, a1, 8
 7f7:	0f0252        	l8ui	a5, a2, 15
 7fa:	1159      	s32i.n	a5, a1, 4
 7fc:	0e0222        	l8ui	a2, a2, 14
 7ff:	0129      	s32i.n	a2, a1, 0
 801:	3358      	l32i.n	a5, a3, 12
 803:	fe2931        	l32r	a3, a8 <at_setupCmdCipstart-0x13c>	803: R_XTENSA_SLOT0_OP	.text.at_setupCmdCipstart+0xa8
 806:	0005c6        	j	821 <at_setupCmdCipstart+0x63d>	806: R_XTENSA_SLOT0_OP	.text.at_setupCmdCipstart+0x821
 809:	1258      	l32i.n	a5, a2, 4
 80b:	3159      	s32i.n	a5, a1, 12
 80d:	0258      	l32i.n	a5, a2, 0
 80f:	2159      	s32i.n	a5, a1, 8
 811:	0f0252        	l8ui	a5, a2, 15
 814:	1159      	s32i.n	a5, a1, 4
 816:	0e0222        	l8ui	a2, a2, 14
 819:	0129      	s32i.n	a2, a1, 0
 81b:	032352        	l32i	a5, a3, 12
 81e:	fe2331        	l32r	a3, ac <at_setupCmdCipstart-0x138>	81e: R_XTENSA_SLOT0_OP	.text.at_setupCmdCipstart+0xac
 821:	10c182        	addi	a8, a1, 16
 824:	80a022        	movi	a2, 128
 827:	802820        	add	a2, a8, a2
 82a:	fe5001        	l32r	a0, 16c <at_setupCmdCipstart-0x78>	82a: R_XTENSA_SLOT0_OP	.text.at_setupCmdCipstart+0x16c
	82a: R_XTENSA_ASM_EXPAND	ets_sprintf
 82d:	0000c0        	callx0	a0
 830:	000b86        	j	862 <at_setupCmdCipstart+0x67e>	830: R_XTENSA_SLOT0_OP	.text.at_setupCmdCipstart+0x862
 833:	00          	.byte 00
 834:	fdf521        	l32r	a2, 8 <at_setupCmdCipstart-0x1dc>	834: R_XTENSA_SLOT0_OP	.text.at_setupCmdCipstart+0x8
 837:	000232        	l8ui	a3, a2, 0
 83a:	80a022        	movi	a2, 128
 83d:	339c      	beqz.n	a3, 854 <at_setupCmdCipstart+0x670>	83d: R_XTENSA_SLOT0_OP	.text.at_setupCmdCipstart+0x854
 83f:	10c152        	addi	a5, a1, 16
 842:	392142        	l32i	a4, a1, 228
 845:	fe1a31        	l32r	a3, b0 <at_setupCmdCipstart-0x134>	845: R_XTENSA_SLOT0_OP	.text.at_setupCmdCipstart+0xb0
 848:	252a      	add.n	a2, a5, a2
 84a:	fe4901        	l32r	a0, 170 <at_setupCmdCipstart-0x74>	84a: R_XTENSA_SLOT0_OP	.text.at_setupCmdCipstart+0x170
	84a: R_XTENSA_ASM_EXPAND	ets_sprintf
 84d:	0000c0        	callx0	a0
 850:	000386        	j	862 <at_setupCmdCipstart+0x67e>	850: R_XTENSA_SLOT0_OP	.text.at_setupCmdCipstart+0x862
 853:	00          	.byte 00
 854:	10c182        	addi	a8, a1, 16
 857:	fe1731        	l32r	a3, b4 <at_setupCmdCipstart-0x130>	857: R_XTENSA_SLOT0_OP	.text.at_setupCmdCipstart+0xb4
 85a:	282a      	add.n	a2, a8, a2
 85c:	fe4601        	l32r	a0, 174 <at_setupCmdCipstart-0x70>	85c: R_XTENSA_SLOT0_OP	.text.at_setupCmdCipstart+0x174
	85c: R_XTENSA_ASM_EXPAND	ets_sprintf
 85f:	0000c0        	callx0	a0
 862:	10c132        	addi	a3, a1, 16
 865:	80a022        	movi	a2, 128
 868:	232a      	add.n	a2, a3, a2
 86a:	fe4301        	l32r	a0, 178 <at_setupCmdCipstart-0x6c>	86a: R_XTENSA_SLOT0_OP	.text.at_setupCmdCipstart+0x178
	86a: R_XTENSA_ASM_EXPAND	at_port_print
 86d:	0000c0        	callx0	a0
 870:	392122        	l32i	a2, a1, 228
 873:	0c48      	l32i.n	a4, a12, 0
 875:	b03220        	addx8	a3, a2, a2
 878:	902320        	addx2	a2, a3, a2
 87b:	a02240        	addx4	a2, a2, a4
 87e:	7228      	l32i.n	a2, a2, 28
 880:	03a642        	movi	a4, 0x603
 883:	2228      	l32i.n	a2, a2, 8
 885:	0d3d      	mov.n	a3, a13
 887:	fe3d01        	l32r	a0, 17c <at_setupCmdCipstart-0x68>	887: R_XTENSA_SLOT0_OP	.text.at_setupCmdCipstart+0x17c
	887: R_XTENSA_ASM_EXPAND	vPortFree
 88a:	0000c0        	callx0	a0
 88d:	392132        	l32i	a3, a1, 228
 890:	0e0c      	movi.n	a14, 0
 892:	b02330        	addx8	a2, a3, a3
 895:	902230        	addx2	a2, a2, a3
 898:	0c38      	l32i.n	a3, a12, 0
 89a:	05a642        	movi	a4, 0x605
 89d:	a02230        	addx4	a2, a2, a3
 8a0:	7238      	l32i.n	a3, a2, 28
 8a2:	23e9      	s32i.n	a14, a3, 8
 8a4:	072222        	l32i	a2, a2, 28
 8a7:	203dd0        	or	a3, a13, a13
 8aa:	fe3501        	l32r	a0, 180 <at_setupCmdCipstart-0x64>	8aa: R_XTENSA_SLOT0_OP	.text.at_setupCmdCipstart+0x180
	8aa: R_XTENSA_ASM_EXPAND	vPortFree
 8ad:	0000c0        	callx0	a0
 8b0:	392122        	l32i	a2, a1, 228
 8b3:	0c48      	l32i.n	a4, a12, 0
 8b5:	b03220        	addx8	a3, a2, a2
 8b8:	902320        	addx2	a2, a3, a2
 8bb:	74e9      	s32i.n	a14, a4, 28
 8bd:	a02240        	addx4	a2, a2, a4
 8c0:	030232        	l8ui	a3, a2, 3
 8c3:	0293e7        	bne	a3, a14, 8c9 <at_setupCmdCipstart+0x6e5>	8c3: R_XTENSA_SLOT0_OP	.text.at_setupCmdCipstart+0x8c9
 8c6:	fe6186        	j	250 <at_setupCmdCipstart+0x6c>	8c6: R_XTENSA_SLOT0_OP	.text.at_setupCmdCipstart+0x250
 8c9:	030c      	movi.n	a3, 0
 8cb:	034232        	s8i	a3, a2, 3
 8ce:	fde731        	l32r	a3, 6c <at_setupCmdCipstart-0x178>	8ce: R_XTENSA_SLOT0_OP	.text.at_setupCmdCipstart+0x6c
 8d1:	000322        	l8ui	a2, a3, 0
 8d4:	220b      	addi.n	a2, a2, -1
 8d6:	004322        	s8i	a2, a3, 0
 8d9:	fe5cc6        	j	250 <at_setupCmdCipstart+0x6c>	8d9: R_XTENSA_SLOT0_OP	.text.at_setupCmdCipstart+0x250
 8dc:	fdf731        	l32r	a3, b8 <at_setupCmdCipstart-0x12c>	8dc: R_XTENSA_SLOT0_OP	.text.at_setupCmdCipstart+0xb8
 8df:	000322        	l8ui	a2, a3, 0
 8e2:	221b      	addi.n	a2, a2, 1
 8e4:	004322        	s8i	a2, a3, 0
 8e7:	00c486        	j	bfd <at_setupCmdCipstart+0xa19>	8e7: R_XTENSA_SLOT0_OP	.text.at_setupCmdCipstart+0xbfd
 8ea:	00          	.byte 00
 8eb:	00          	.byte 00
 8ec:	00          	.byte 00
 8ed:	fdf331        	l32r	a3, bc <at_setupCmdCipstart-0x128>	8ed: R_XTENSA_SLOT0_OP	.text.at_setupCmdCipstart+0xbc
 8f0:	000332        	l8ui	a3, a3, 0
 8f3:	051366        	bnei	a3, 1, 8fc <at_setupCmdCipstart+0x718>	8f3: R_XTENSA_SLOT0_OP	.text.at_setupCmdCipstart+0x8fc
 8f6:	382132        	l32i	a3, a1, 224
 8f9:	953356        	bnez	a3, 250 <at_setupCmdCipstart+0x6c>	8f9: R_XTENSA_SLOT0_OP	.text.at_setupCmdCipstart+0x250
 8fc:	72e8      	l32i.n	a14, a2, 28
 8fe:	1aa642        	movi	a4, 0x61a
 901:	0d3d      	mov.n	a3, a13
 903:	10a022        	movi	a2, 16
 906:	fe1f01        	l32r	a0, 184 <at_setupCmdCipstart-0x60>	906: R_XTENSA_SLOT0_OP	.text.at_setupCmdCipstart+0x184
	906: R_XTENSA_ASM_EXPAND	pvPortZalloc
 909:	0000c0        	callx0	a0
 90c:	3b2142        	l32i	a4, a1, 236
 90f:	2e29      	s32i.n	a2, a14, 8
 911:	392122        	l32i	a2, a1, 228
 914:	94dc      	bnez.n	a4, 931 <at_setupCmdCipstart+0x74d>	914: R_XTENSA_SLOT0_OP	.text.at_setupCmdCipstart+0x931
 916:	0c48      	l32i.n	a4, a12, 0
 918:	b03220        	addx8	a3, a2, a2
 91b:	902320        	addx2	a2, a3, a2
 91e:	a02240        	addx4	a2, a2, a4
 921:	7228      	l32i.n	a2, a2, 28
 923:	0222e2        	l32i	a14, a2, 8
 926:	fe1801        	l32r	a0, 188 <at_setupCmdCipstart-0x5c>	926: R_XTENSA_SLOT0_OP	.text.at_setupCmdCipstart+0x188
	926: R_XTENSA_ASM_EXPAND	espconn_port
 929:	0000c0        	callx0	a0
 92c:	1e29      	s32i.n	a2, a14, 4
 92e:	000406        	j	942 <at_setupCmdCipstart+0x75e>	92e: R_XTENSA_SLOT0_OP	.text.at_setupCmdCipstart+0x942
 931:	0c58      	l32i.n	a5, a12, 0
 933:	b03220        	addx8	a3, a2, a2
 936:	902320        	addx2	a2, a3, a2
 939:	a02250        	addx4	a2, a2, a5
 93c:	7228      	l32i.n	a2, a2, 28
 93e:	2228      	l32i.n	a2, a2, 8
 940:	1249      	s32i.n	a4, a2, 4
 942:	3c2142        	l32i	a4, a1, 240
 945:	392122        	l32i	a2, a1, 228
 948:	94dc      	bnez.n	a4, 965 <at_setupCmdCipstart+0x781>	948: R_XTENSA_SLOT0_OP	.text.at_setupCmdCipstart+0x965
 94a:	0c48      	l32i.n	a4, a12, 0
 94c:	b03220        	addx8	a3, a2, a2
 94f:	902320        	addx2	a2, a3, a2
 952:	a02240        	addx4	a2, a2, a4
 955:	7228      	l32i.n	a2, a2, 28
 957:	0222e2        	l32i	a14, a2, 8
 95a:	fe0c01        	l32r	a0, 18c <at_setupCmdCipstart-0x58>	95a: R_XTENSA_SLOT0_OP	.text.at_setupCmdCipstart+0x18c
	95a: R_XTENSA_ASM_EXPAND	espconn_port
 95d:	0000c0        	callx0	a0
 960:	0e29      	s32i.n	a2, a14, 0
 962:	000406        	j	976 <at_setupCmdCipstart+0x792>	962: R_XTENSA_SLOT0_OP	.text.at_setupCmdCipstart+0x976
 965:	0c58      	l32i.n	a5, a12, 0
 967:	b03220        	addx8	a3, a2, a2
 96a:	902320        	addx2	a2, a3, a2
 96d:	a02250        	addx4	a2, a2, a5
 970:	7228      	l32i.n	a2, a2, 28
 972:	2228      	l32i.n	a2, a2, 8
 974:	0249      	s32i.n	a4, a2, 0
 976:	392142        	l32i	a4, a1, 228
 979:	b03440        	addx8	a3, a4, a4
 97c:	902340        	addx2	a2, a3, a4
 97f:	0c38      	l32i.n	a3, a12, 0
 981:	a03230        	addx4	a3, a2, a3
 984:	382122        	l32i	a2, a1, 224
 987:	114322        	s8i	a2, a3, 17
 98a:	7328      	l32i.n	a2, a3, 28
 98c:	2258      	l32i.n	a5, a2, 8
 98e:	0558      	l32i.n	a5, a5, 0
 990:	6359      	s32i.n	a5, a3, 24
 992:	6239      	s32i.n	a3, a2, 24
 994:	024342        	s8i	a4, a3, 2
 997:	140c      	movi.n	a4, 1
 999:	004342        	s8i	a4, a3, 0
 99c:	040c      	movi.n	a4, 0
 99e:	3349      	s32i.n	a4, a3, 12
 9a0:	fdc831        	l32r	a3, c0 <at_setupCmdCipstart-0x124>	9a0: R_XTENSA_SLOT0_OP	.text.at_setupCmdCipstart+0xc0
 9a3:	fdfb01        	l32r	a0, 190 <at_setupCmdCipstart-0x54>	9a3: R_XTENSA_SLOT0_OP	.text.at_setupCmdCipstart+0x190
	9a3: R_XTENSA_ASM_EXPAND	espconn_regist_recvcb
 9a6:	0000c0        	callx0	a0
 9a9:	392122        	l32i	a2, a1, 228
 9ac:	002c42        	l32i	a4, a12, 0
 9af:	b03220        	addx8	a3, a2, a2
 9b2:	902320        	addx2	a2, a3, a2
 9b5:	a02240        	addx4	a2, a2, a4
 9b8:	fdc331        	l32r	a3, c4 <at_setupCmdCipstart-0x120>	9b8: R_XTENSA_SLOT0_OP	.text.at_setupCmdCipstart+0xc4
 9bb:	072222        	l32i	a2, a2, 28
 9be:	fdf501        	l32r	a0, 194 <at_setupCmdCipstart-0x50>	9be: R_XTENSA_SLOT0_OP	.text.at_setupCmdCipstart+0x194
	9be: R_XTENSA_ASM_EXPAND	espconn_regist_sentcb
 9c1:	0000c0        	callx0	a0
 9c4:	100122        	l8ui	a2, a1, 16
 9c7:	52dc      	bnez.n	a2, 9e0 <at_setupCmdCipstart+0x7fc>	9c7: R_XTENSA_SLOT0_OP	.text.at_setupCmdCipstart+0x9e0
 9c9:	f27c      	movi.n	a2, -1
 9cb:	041c      	movi.n	a4, 16
 9cd:	fdb331        	l32r	a3, 9c <at_setupCmdCipstart-0x148>	9cd: R_XTENSA_SLOT0_OP	.text.at_setupCmdCipstart+0x9c
 9d0:	3d6122        	s32i	a2, a1, 244
 9d3:	802140        	add	a2, a1, a4
 9d6:	fdf001        	l32r	a0, 198 <at_setupCmdCipstart-0x4c>	9d6: R_XTENSA_SLOT0_OP	.text.at_setupCmdCipstart+0x198
	9d6: R_XTENSA_ASM_EXPAND	ets_memcpy
 9d9:	0000c0        	callx0	a0
 9dc:	000306        	j	9ec <at_setupCmdCipstart+0x808>	9dc: R_XTENSA_SLOT0_OP	.text.at_setupCmdCipstart+0x9ec
 9df:	00          	.byte 00
 9e0:	10c122        	addi	a2, a1, 16
 9e3:	fdee01        	l32r	a0, 19c <at_setupCmdCipstart-0x48>	9e3: R_XTENSA_SLOT0_OP	.text.at_setupCmdCipstart+0x19c
	9e3: R_XTENSA_ASM_EXPAND	ipaddr_addr
 9e6:	0000c0        	callx0	a0
 9e9:	3d6122        	s32i	a2, a1, 244
 9ec:	392122        	l32i	a2, a1, 228
 9ef:	10c142        	addi	a4, a1, 16
 9f2:	e4a0e2        	movi	a14, 228
 9f5:	e4ea      	add.n	a14, a4, a14
 9f7:	b03220        	addx8	a3, a2, a2
 9fa:	0c48      	l32i.n	a4, a12, 0
 9fc:	902320        	addx2	a2, a3, a2
 9ff:	a02240        	addx4	a2, a2, a4
 a02:	7228      	l32i.n	a2, a2, 28
 a04:	440c      	movi.n	a4, 4
 a06:	022222        	l32i	a2, a2, 8
 a09:	203ee0        	or	a3, a14, a14
 a0c:	0cc222        	addi	a2, a2, 12
 a0f:	fde401        	l32r	a0, 1a0 <at_setupCmdCipstart-0x44>	a0f: R_XTENSA_SLOT0_OP	.text.at_setupCmdCipstart+0x1a0
	a0f: R_XTENSA_ASM_EXPAND	ets_memcpy
 a12:	0000c0        	callx0	a0
 a15:	392132        	l32i	a3, a1, 228
 a18:	440c      	movi.n	a4, 4
 a1a:	b02330        	addx8	a2, a3, a3
 a1d:	902230        	addx2	a2, a2, a3
 a20:	0c38      	l32i.n	a3, a12, 0
 a22:	a02230        	addx4	a2, a2, a3
 a25:	12c222        	addi	a2, a2, 18
 a28:	203ee0        	or	a3, a14, a14
 a2b:	fdde01        	l32r	a0, 1a4 <at_setupCmdCipstart-0x40>	a2b: R_XTENSA_SLOT0_OP	.text.at_setupCmdCipstart+0x1a4
	a2b: R_XTENSA_ASM_EXPAND	ets_memcpy
 a2e:	0000c0        	callx0	a0
 a31:	3d2122        	l32i	a2, a1, 244
 a34:	3d0266        	bnei	a2, -1, a75 <at_setupCmdCipstart+0x891>	a34: R_XTENSA_SLOT0_OP	.text.at_setupCmdCipstart+0xa75
 a37:	10a042        	movi	a4, 16
 a3a:	fd9831        	l32r	a3, 9c <at_setupCmdCipstart-0x148>	a3a: R_XTENSA_SLOT0_OP	.text.at_setupCmdCipstart+0x9c
 a3d:	802140        	add	a2, a1, a4
 a40:	fdda01        	l32r	a0, 1a8 <at_setupCmdCipstart-0x3c>	a40: R_XTENSA_SLOT0_OP	.text.at_setupCmdCipstart+0x1a8
	a40: R_XTENSA_ASM_EXPAND	ets_memcmp
 a43:	0000c0        	callx0	a0
 a46:	b2ac      	beqz.n	a2, a75 <at_setupCmdCipstart+0x891>	a46: R_XTENSA_SLOT0_OP	.text.at_setupCmdCipstart+0xa75
 a48:	fd9421        	l32r	a2, 98 <at_setupCmdCipstart-0x14c>	a48: R_XTENSA_SLOT0_OP	.text.at_setupCmdCipstart+0x98
 a4b:	00a032        	movi	a3, 0
 a4e:	004232        	s8i	a3, a2, 0
 a51:	392122        	l32i	a2, a1, 228
 a54:	0c48      	l32i.n	a4, a12, 0
 a56:	b03220        	addx8	a3, a2, a2
 a59:	902320        	addx2	a2, a3, a2
 a5c:	a02240        	addx4	a2, a2, a4
 a5f:	fd9051        	l32r	a5, a0 <at_setupCmdCipstart-0x144>	a5f: R_XTENSA_SLOT0_OP	.text.at_setupCmdCipstart+0xa0
 a62:	fd9041        	l32r	a4, a4 <at_setupCmdCipstart-0x140>	a62: R_XTENSA_SLOT0_OP	.text.at_setupCmdCipstart+0xa4
 a65:	7228      	l32i.n	a2, a2, 28
 a67:	10c132        	addi	a3, a1, 16
 a6a:	fdd001        	l32r	a0, 1ac <at_setupCmdCipstart-0x38>	a6a: R_XTENSA_SLOT0_OP	.text.at_setupCmdCipstart+0x1ac
	a6a: R_XTENSA_ASM_EXPAND	espconn_gethostbyname
 a6d:	0000c0        	callx0	a0
 a70:	006246        	j	bfd <at_setupCmdCipstart+0xa19>	a70: R_XTENSA_SLOT0_OP	.text.at_setupCmdCipstart+0xbfd
 a73:	00          	.byte 00
 a74:	00          	.byte 00
 a75:	392132        	l32i	a3, a1, 228
 a78:	2e0c      	movi.n	a14, 2
 a7a:	b02330        	addx8	a2, a3, a3
 a7d:	902230        	addx2	a2, a2, a3
 a80:	0c38      	l32i.n	a3, a12, 0
 a82:	a02230        	addx4	a2, a2, a3
 a85:	102232        	l32i	a3, a2, 64
 a88:	7228      	l32i.n	a2, a2, 28
 a8a:	0003c0        	callx0	a3
 a8d:	742020        	extui	a2, a2, 0, 8
 a90:	0d0216        	beqz	a2, b64 <at_setupCmdCipstart+0x980>	a90: R_XTENSA_SLOT0_OP	.text.at_setupCmdCipstart+0xb64
 a93:	fdc701        	l32r	a0, 1b0 <at_setupCmdCipstart-0x34>	a93: R_XTENSA_SLOT0_OP	.text.at_setupCmdCipstart+0x1b0
	a93: R_XTENSA_ASM_EXPAND	at_get_sys_msg_mask
 a96:	0000c0        	callx0	a0
 a99:	4302e7        	bnone	a2, a14, ae0 <at_setupCmdCipstart+0x8fc>	a99: R_XTENSA_SLOT0_OP	.text.at_setupCmdCipstart+0xae0
 a9c:	392132        	l32i	a3, a1, 228
 a9f:	10c182        	addi	a8, a1, 16
 aa2:	b02330        	addx8	a2, a3, a3
 aa5:	902230        	addx2	a2, a2, a3
 aa8:	0c38      	l32i.n	a3, a12, 0
 aaa:	a02230        	addx4	a2, a2, a3
 aad:	7238      	l32i.n	a3, a2, 28
 aaf:	020242        	l8ui	a4, a2, 2
 ab2:	2338      	l32i.n	a3, a3, 8
 ab4:	1358      	l32i.n	a5, a3, 4
 ab6:	0d0372        	l8ui	a7, a3, 13
 ab9:	0c0362        	l8ui	a6, a3, 12
 abc:	3159      	s32i.n	a5, a1, 12
 abe:	0358      	l32i.n	a5, a3, 0
 ac0:	2159      	s32i.n	a5, a1, 8
 ac2:	0f0352        	l8ui	a5, a3, 15
 ac5:	1159      	s32i.n	a5, a1, 4
 ac7:	0e0332        	l8ui	a3, a3, 14
 aca:	0139      	s32i.n	a3, a1, 0
 acc:	3258      	l32i.n	a5, a2, 12
 ace:	fd7e31        	l32r	a3, c8 <at_setupCmdCipstart-0x11c>	ace: R_XTENSA_SLOT0_OP	.text.at_setupCmdCipstart+0xc8
 ad1:	80a022        	movi	a2, 128
 ad4:	282a      	add.n	a2, a8, a2
 ad6:	fdb701        	l32r	a0, 1b4 <at_setupCmdCipstart-0x30>	ad6: R_XTENSA_SLOT0_OP	.text.at_setupCmdCipstart+0x1b4
	ad6: R_XTENSA_ASM_EXPAND	ets_sprintf
 ad9:	0000c0        	callx0	a0
 adc:	000b86        	j	b0e <at_setupCmdCipstart+0x92a>	adc: R_XTENSA_SLOT0_OP	.text.at_setupCmdCipstart+0xb0e
 adf:	00          	.byte 00
 ae0:	fd4a21        	l32r	a2, 8 <at_setupCmdCipstart-0x1dc>	ae0: R_XTENSA_SLOT0_OP	.text.at_setupCmdCipstart+0x8
 ae3:	000232        	l8ui	a3, a2, 0
 ae6:	80a022        	movi	a2, 128
 ae9:	339c      	beqz.n	a3, b00 <at_setupCmdCipstart+0x91c>	ae9: R_XTENSA_SLOT0_OP	.text.at_setupCmdCipstart+0xb00
 aeb:	10c152        	addi	a5, a1, 16
 aee:	392142        	l32i	a4, a1, 228
 af1:	fd6f31        	l32r	a3, b0 <at_setupCmdCipstart-0x134>	af1: R_XTENSA_SLOT0_OP	.text.at_setupCmdCipstart+0xb0
 af4:	252a      	add.n	a2, a5, a2
 af6:	fdb001        	l32r	a0, 1b8 <at_setupCmdCipstart-0x2c>	af6: R_XTENSA_SLOT0_OP	.text.at_setupCmdCipstart+0x1b8
	af6: R_XTENSA_ASM_EXPAND	ets_sprintf
 af9:	0000c0        	callx0	a0
 afc:	000386        	j	b0e <at_setupCmdCipstart+0x92a>	afc: R_XTENSA_SLOT0_OP	.text.at_setupCmdCipstart+0xb0e
 aff:	00          	.byte 00
 b00:	10c182        	addi	a8, a1, 16
 b03:	fd6c31        	l32r	a3, b4 <at_setupCmdCipstart-0x130>	b03: R_XTENSA_SLOT0_OP	.text.at_setupCmdCipstart+0xb4
 b06:	282a      	add.n	a2, a8, a2
 b08:	fdad01        	l32r	a0, 1bc <at_setupCmdCipstart-0x28>	b08: R_XTENSA_SLOT0_OP	.text.at_setupCmdCipstart+0x1bc
	b08: R_XTENSA_ASM_EXPAND	ets_sprintf
 b0b:	0000c0        	callx0	a0
 b0e:	10c132        	addi	a3, a1, 16
 b11:	80a022        	movi	a2, 128
 b14:	232a      	add.n	a2, a3, a2
 b16:	fdaa01        	l32r	a0, 1c0 <at_setupCmdCipstart-0x24>	b16: R_XTENSA_SLOT0_OP	.text.at_setupCmdCipstart+0x1c0
	b16: R_XTENSA_ASM_EXPAND	at_port_print
 b19:	0000c0        	callx0	a0
 b1c:	392132        	l32i	a3, a1, 228
 b1f:	52a642        	movi	a4, 0x652
 b22:	b02330        	addx8	a2, a3, a3
 b25:	902230        	addx2	a2, a2, a3
 b28:	0c38      	l32i.n	a3, a12, 0
 b2a:	a02230        	addx4	a2, a2, a3
 b2d:	030c      	movi.n	a3, 0
 b2f:	004232        	s8i	a3, a2, 0
 b32:	030c      	movi.n	a3, 0
 b34:	1239      	s32i.n	a3, a2, 4
 b36:	072222        	l32i	a2, a2, 28
 b39:	203dd0        	or	a3, a13, a13
 b3c:	022222        	l32i	a2, a2, 8
 b3f:	fda101        	l32r	a0, 1c4 <at_setupCmdCipstart-0x20>	b3f: R_XTENSA_SLOT0_OP	.text.at_setupCmdCipstart+0x1c4
	b3f: R_XTENSA_ASM_EXPAND	vPortFree
 b42:	0000c0        	callx0	a0
 b45:	392122        	l32i	a2, a1, 228
 b48:	0c48      	l32i.n	a4, a12, 0
 b4a:	b03220        	addx8	a3, a2, a2
 b4d:	902320        	addx2	a2, a3, a2
 b50:	a02240        	addx4	a2, a2, a4
 b53:	7228      	l32i.n	a2, a2, 28
 b55:	53a642        	movi	a4, 0x653
 b58:	0d3d      	mov.n	a3, a13
 b5a:	fd9b01        	l32r	a0, 1c8 <at_setupCmdCipstart-0x1c>	b5a: R_XTENSA_SLOT0_OP	.text.at_setupCmdCipstart+0x1c8
	b5a: R_XTENSA_ASM_EXPAND	vPortFree
 b5d:	0000c0        	callx0	a0
 b60:	fdbb06        	j	250 <at_setupCmdCipstart+0x6c>	b60: R_XTENSA_SLOT0_OP	.text.at_setupCmdCipstart+0x250
 b63:	00          	.byte 00
 b64:	fd9a01        	l32r	a0, 1cc <at_setupCmdCipstart-0x18>	b64: R_XTENSA_SLOT0_OP	.text.at_setupCmdCipstart+0x1cc
	b64: R_XTENSA_ASM_EXPAND	at_get_sys_msg_mask
 b67:	0000c0        	callx0	a0
 b6a:	4202e7        	bnone	a2, a14, bb0 <at_setupCmdCipstart+0x9cc>	b6a: R_XTENSA_SLOT0_OP	.text.at_setupCmdCipstart+0xbb0
 b6d:	392132        	l32i	a3, a1, 228
 b70:	10c182        	addi	a8, a1, 16
 b73:	b02330        	addx8	a2, a3, a3
 b76:	902230        	addx2	a2, a2, a3
 b79:	0c38      	l32i.n	a3, a12, 0
 b7b:	a02230        	addx4	a2, a2, a3
 b7e:	7238      	l32i.n	a3, a2, 28
 b80:	020242        	l8ui	a4, a2, 2
 b83:	2338      	l32i.n	a3, a3, 8
 b85:	1358      	l32i.n	a5, a3, 4
 b87:	0d0372        	l8ui	a7, a3, 13
 b8a:	0c0362        	l8ui	a6, a3, 12
 b8d:	3159      	s32i.n	a5, a1, 12
 b8f:	0358      	l32i.n	a5, a3, 0
 b91:	2159      	s32i.n	a5, a1, 8
 b93:	0f0352        	l8ui	a5, a3, 15
 b96:	1159      	s32i.n	a5, a1, 4
 b98:	0e0332        	l8ui	a3, a3, 14
 b9b:	0139      	s32i.n	a3, a1, 0
 b9d:	3258      	l32i.n	a5, a2, 12
 b9f:	fd4b31        	l32r	a3, cc <at_setupCmdCipstart-0x118>	b9f: R_XTENSA_SLOT0_OP	.text.at_setupCmdCipstart+0xcc
 ba2:	80a022        	movi	a2, 128
 ba5:	282a      	add.n	a2, a8, a2
 ba7:	fd8a01        	l32r	a0, 1d0 <at_setupCmdCipstart-0x14>	ba7: R_XTENSA_SLOT0_OP	.text.at_setupCmdCipstart+0x1d0
	ba7: R_XTENSA_ASM_EXPAND	ets_sprintf
 baa:	0000c0        	callx0	a0
 bad:	000b46        	j	bde <at_setupCmdCipstart+0x9fa>	bad: R_XTENSA_SLOT0_OP	.text.at_setupCmdCipstart+0xbde
 bb0:	fd1621        	l32r	a2, 8 <at_setupCmdCipstart-0x1dc>	bb0: R_XTENSA_SLOT0_OP	.text.at_setupCmdCipstart+0x8
 bb3:	000232        	l8ui	a3, a2, 0
 bb6:	80a022        	movi	a2, 128
 bb9:	339c      	beqz.n	a3, bd0 <at_setupCmdCipstart+0x9ec>	bb9: R_XTENSA_SLOT0_OP	.text.at_setupCmdCipstart+0xbd0
 bbb:	10c152        	addi	a5, a1, 16
 bbe:	392142        	l32i	a4, a1, 228
 bc1:	fd4331        	l32r	a3, d0 <at_setupCmdCipstart-0x114>	bc1: R_XTENSA_SLOT0_OP	.text.at_setupCmdCipstart+0xd0
 bc4:	252a      	add.n	a2, a5, a2
 bc6:	fd8301        	l32r	a0, 1d4 <at_setupCmdCipstart-0x10>	bc6: R_XTENSA_SLOT0_OP	.text.at_setupCmdCipstart+0x1d4
	bc6: R_XTENSA_ASM_EXPAND	ets_sprintf
 bc9:	0000c0        	callx0	a0
 bcc:	000386        	j	bde <at_setupCmdCipstart+0x9fa>	bcc: R_XTENSA_SLOT0_OP	.text.at_setupCmdCipstart+0xbde
 bcf:	00          	.byte 00
 bd0:	10c182        	addi	a8, a1, 16
 bd3:	fd4031        	l32r	a3, d4 <at_setupCmdCipstart-0x110>	bd3: R_XTENSA_SLOT0_OP	.text.at_setupCmdCipstart+0xd4
 bd6:	282a      	add.n	a2, a8, a2
 bd8:	fd8001        	l32r	a0, 1d8 <at_setupCmdCipstart-0xc>	bd8: R_XTENSA_SLOT0_OP	.text.at_setupCmdCipstart+0x1d8
	bd8: R_XTENSA_ASM_EXPAND	ets_sprintf
 bdb:	0000c0        	callx0	a0
 bde:	10c132        	addi	a3, a1, 16
 be1:	80a022        	movi	a2, 128
 be4:	232a      	add.n	a2, a3, a2
 be6:	fd7d01        	l32r	a0, 1dc <at_setupCmdCipstart-0x8>	be6: R_XTENSA_SLOT0_OP	.text.at_setupCmdCipstart+0x1dc
	be6: R_XTENSA_ASM_EXPAND	at_port_print
 be9:	0000c0        	callx0	a0
 bec:	fd3331        	l32r	a3, b8 <at_setupCmdCipstart-0x12c>	bec: R_XTENSA_SLOT0_OP	.text.at_setupCmdCipstart+0xb8
 bef:	000322        	l8ui	a2, a3, 0
 bf2:	221b      	addi.n	a2, a2, 1
 bf4:	004322        	s8i	a2, a3, 0
 bf7:	fd7a01        	l32r	a0, 1e0 <at_setupCmdCipstart-0x4>	bf7: R_XTENSA_SLOT0_OP	.text.at_setupCmdCipstart+0x1e0
	bf7: R_XTENSA_ASM_EXPAND	at_response_ok
 bfa:	0000c0        	callx0	a0
 bfd:	4b2102        	l32i	a0, a1, 0x12c
 c00:	30a192        	movi	a9, 0x130
 c03:	4a21c2        	l32i	a12, a1, 0x128
 c06:	4921d2        	l32i	a13, a1, 0x124
 c09:	4821e2        	l32i	a14, a1, 0x120
 c0c:	4721f2        	l32i	a15, a1, 0x11c
 c0f:	119a      	add.n	a1, a1, a9
 c11:	f00d      	ret.n

Disassembly of section .text.at_setupCmdCipSslsize:

00000000 <at_setupCmdCipSslsize-0x1c>:
   0:	00 00 00 00 		0: R_XTENSA_32	at_ssl_cnt
   4:	42 05 00 00 		4: R_XTENSA_32	.irom.text
	...
	8: R_XTENSA_32	at_port_print
	c: R_XTENSA_32	at_get_next_int_dec
	10: R_XTENSA_32	at_response_error
	14: R_XTENSA_32	espconn_secure_set_size
	18: R_XTENSA_32	at_response_ok

0000001c <at_setupCmdCipSslsize>:
  1c:	d0c112        	addi	a1, a1, -48
  1f:	020c      	movi.n	a2, 0
  21:	1129      	s32i.n	a2, a1, 4
  23:	0129      	s32i.n	a2, a1, 0
  25:	fff621        	l32r	a2, 0 <at_setupCmdCipSslsize-0x1c>	25: R_XTENSA_SLOT0_OP	.text.at_setupCmdCipSslsize
  28:	b109      	s32i.n	a0, a1, 44
  2a:	000222        	l8ui	a2, a2, 0
  2d:	046132        	s32i	a3, a1, 16
  30:	00d216        	beqz	a2, 41 <at_setupCmdCipSslsize+0x25>	30: R_XTENSA_SLOT0_OP	.text.at_setupCmdCipSslsize+0x41
  33:	fff421        	l32r	a2, 4 <at_setupCmdCipSslsize-0x18>	33: R_XTENSA_SLOT0_OP	.text.at_setupCmdCipSslsize+0x4
  36:	fff401        	l32r	a0, 8 <at_setupCmdCipSslsize-0x14>	36: R_XTENSA_SLOT0_OP	.text.at_setupCmdCipSslsize+0x8
	36: R_XTENSA_ASM_EXPAND	at_port_print
  39:	0000c0        	callx0	a0
  3c:	000686        	j	5a <at_setupCmdCipSslsize+0x3e>	3c: R_XTENSA_SLOT0_OP	.text.at_setupCmdCipSslsize+0x5a
  3f:	00          	.byte 00
  40:	00          	.byte 00
  41:	4128      	l32i.n	a2, a1, 16
  43:	014d      	mov.n	a4, a1
  45:	221b      	addi.n	a2, a2, 1
  47:	046122        	s32i	a2, a1, 16
  4a:	314b      	addi.n	a3, a1, 4
  4c:	10c122        	addi	a2, a1, 16
  4f:	ffef01        	l32r	a0, c <at_setupCmdCipSslsize-0x10>	4f: R_XTENSA_SLOT0_OP	.text.at_setupCmdCipSslsize+0xc
	4f: R_XTENSA_ASM_EXPAND	at_get_next_int_dec
  52:	0000c0        	callx0	a0
  55:	0128      	l32i.n	a2, a1, 0
  57:	0812a6        	blti	a2, 1, 63 <at_setupCmdCipSslsize+0x47>	57: R_XTENSA_SLOT0_OP	.text.at_setupCmdCipSslsize+0x63
  5a:	ffed01        	l32r	a0, 10 <at_setupCmdCipSslsize-0xc>	5a: R_XTENSA_SLOT0_OP	.text.at_setupCmdCipSslsize+0x10
	5a: R_XTENSA_ASM_EXPAND	at_response_error
  5d:	0000c0        	callx0	a0
  60:	000746        	j	81 <at_setupCmdCipSslsize+0x65>	60: R_XTENSA_SLOT0_OP	.text.at_setupCmdCipSslsize+0x81
  63:	4128      	l32i.n	a2, a1, 16
  65:	000232        	l8ui	a3, a2, 0
  68:	d20c      	movi.n	a2, 13
  6a:	ec9327        	bne	a3, a2, 5a <at_setupCmdCipSslsize+0x3e>	6a: R_XTENSA_SLOT0_OP	.text.at_setupCmdCipSslsize+0x5a
  6d:	1138      	l32i.n	a3, a1, 4
  6f:	01a022        	movi	a2, 1
  72:	ffe801        	l32r	a0, 14 <at_setupCmdCipSslsize-0x8>	72: R_XTENSA_SLOT0_OP	.text.at_setupCmdCipSslsize+0x14
	72: R_XTENSA_ASM_EXPAND	espconn_secure_set_size
  75:	0000c0        	callx0	a0
  78:	de1266        	bnei	a2, 1, 5a <at_setupCmdCipSslsize+0x3e>	78: R_XTENSA_SLOT0_OP	.text.at_setupCmdCipSslsize+0x5a
  7b:	ffe701        	l32r	a0, 18 <at_setupCmdCipSslsize-0x4>	7b: R_XTENSA_SLOT0_OP	.text.at_setupCmdCipSslsize+0x18
	7b: R_XTENSA_ASM_EXPAND	at_response_ok
  7e:	0000c0        	callx0	a0
  81:	b108      	l32i.n	a0, a1, 44
  83:	30c112        	addi	a1, a1, 48
  86:	f00d      	ret.n

Disassembly of section .text.at_queryCmdCipSslSize:

00000000 <at_queryCmdCipSslSize-0x18>:
   0:	00 00 00 00 		0: R_XTENSA_32	at_fun
   4:	2b 03 00 00 		4: R_XTENSA_32	.rodata.str1.1
	...
	8: R_XTENSA_32	espconn_secure_get_size
	c: R_XTENSA_32	ets_sprintf
	10: R_XTENSA_32	at_port_print
	14: R_XTENSA_32	at_response_ok

00000018 <at_queryCmdCipSslSize>:
  18:	d0c112        	addi	a1, a1, -48
  1b:	a1c9      	s32i.n	a12, a1, 40
  1d:	74c020        	extui	a12, a2, 0, 8
  20:	01a022        	movi	a2, 1
  23:	0b6102        	s32i	a0, a1, 44
  26:	fff801        	l32r	a0, 8 <at_queryCmdCipSslSize-0x10>	26: R_XTENSA_SLOT0_OP	.text.at_queryCmdCipSslSize+0x8
	26: R_XTENSA_ASM_EXPAND	espconn_secure_get_size
  29:	0000c0        	callx0	a0
  2c:	fff531        	l32r	a3, 0 <at_queryCmdCipSslSize-0x18>	2c: R_XTENSA_SLOT0_OP	.text.at_queryCmdCipSslSize
  2f:	90ccc0        	addx2	a12, a12, a12
  32:	b0cc30        	addx8	a12, a12, a3
  35:	0c48      	l32i.n	a4, a12, 0
  37:	fff331        	l32r	a3, 4 <at_queryCmdCipSslSize-0x14>	37: R_XTENSA_SLOT0_OP	.text.at_queryCmdCipSslSize+0x4
  3a:	025d      	mov.n	a5, a2
  3c:	012d      	mov.n	a2, a1
  3e:	fff301        	l32r	a0, c <at_queryCmdCipSslSize-0xc>	3e: R_XTENSA_SLOT0_OP	.text.at_queryCmdCipSslSize+0xc
	3e: R_XTENSA_ASM_EXPAND	ets_sprintf
  41:	0000c0        	callx0	a0
  44:	012d      	mov.n	a2, a1
  46:	fff201        	l32r	a0, 10 <at_queryCmdCipSslSize-0x8>	46: R_XTENSA_SLOT0_OP	.text.at_queryCmdCipSslSize+0x10
	46: R_XTENSA_ASM_EXPAND	at_port_print
  49:	0000c0        	callx0	a0
  4c:	fff201        	l32r	a0, 14 <at_queryCmdCipSslSize-0x4>	4c: R_XTENSA_SLOT0_OP	.text.at_queryCmdCipSslSize+0x14
	4c: R_XTENSA_ASM_EXPAND	at_response_ok
  4f:	0000c0        	callx0	a0
  52:	b108      	l32i.n	a0, a1, 44
  54:	a1c8      	l32i.n	a12, a1, 40
  56:	30c112        	addi	a1, a1, 48
  59:	f00d      	ret.n

Disassembly of section .text.at_queryCmdCipSslCConf:

00000000 <at_queryCmdCipSslCConf-0x18>:
	...
	0: R_XTENSA_32	.bss.at_ssl_client_config
	4: R_XTENSA_32	at_fun
   8:	2b 03 00 00 		8: R_XTENSA_32	.rodata.str1.1
	...
	c: R_XTENSA_32	ets_sprintf
	10: R_XTENSA_32	at_port_print
	14: R_XTENSA_32	at_response_ok

00000018 <at_queryCmdCipSslCConf>:
  18:	fffb31        	l32r	a3, 4 <at_queryCmdCipSslCConf-0x14>	18: R_XTENSA_SLOT0_OP	.text.at_queryCmdCipSslCConf+0x4
  1b:	742020        	extui	a2, a2, 0, 8
  1e:	902220        	addx2	a2, a2, a2
  21:	b02230        	addx8	a2, a2, a3
  24:	fff731        	l32r	a3, 0 <at_queryCmdCipSslCConf-0x18>	24: R_XTENSA_SLOT0_OP	.text.at_queryCmdCipSslCConf
  27:	d0c112        	addi	a1, a1, -48
  2a:	0358      	l32i.n	a5, a3, 0
  2c:	0248      	l32i.n	a4, a2, 0
  2e:	fff631        	l32r	a3, 8 <at_queryCmdCipSslCConf-0x10>	2e: R_XTENSA_SLOT0_OP	.text.at_queryCmdCipSslCConf+0x8
  31:	012d      	mov.n	a2, a1
  33:	0b6102        	s32i	a0, a1, 44
  36:	fff501        	l32r	a0, c <at_queryCmdCipSslCConf-0xc>	36: R_XTENSA_SLOT0_OP	.text.at_queryCmdCipSslCConf+0xc
	36: R_XTENSA_ASM_EXPAND	ets_sprintf
  39:	0000c0        	callx0	a0
  3c:	012d      	mov.n	a2, a1
  3e:	fff401        	l32r	a0, 10 <at_queryCmdCipSslCConf-0x8>	3e: R_XTENSA_SLOT0_OP	.text.at_queryCmdCipSslCConf+0x10
	3e: R_XTENSA_ASM_EXPAND	at_port_print
  41:	0000c0        	callx0	a0
  44:	fff401        	l32r	a0, 14 <at_queryCmdCipSslCConf-0x4>	44: R_XTENSA_SLOT0_OP	.text.at_queryCmdCipSslCConf+0x14
	44: R_XTENSA_ASM_EXPAND	at_response_ok
  47:	0000c0        	callx0	a0
  4a:	b108      	l32i.n	a0, a1, 44
  4c:	30c112        	addi	a1, a1, 48
  4f:	f00d      	ret.n

Disassembly of section .text.at_setupCmdCipSslCConf:

00000000 <at_setupCmdCipSslCConf-0x10>:
	...
	0: R_XTENSA_32	.bss.at_ssl_client_config
	4: R_XTENSA_32	at_get_next_int_dec
	8: R_XTENSA_32	at_response_error
	c: R_XTENSA_32	at_response_ok

00000010 <at_setupCmdCipSslCConf>:
  10:	d0c112        	addi	a1, a1, -48
  13:	020c      	movi.n	a2, 0
  15:	331b      	addi.n	a3, a3, 1
  17:	1129      	s32i.n	a2, a1, 4
  19:	0129      	s32i.n	a2, a1, 0
  1b:	4139      	s32i.n	a3, a1, 16
  1d:	014d      	mov.n	a4, a1
  1f:	314b      	addi.n	a3, a1, 4
  21:	10c122        	addi	a2, a1, 16
  24:	b109      	s32i.n	a0, a1, 44
  26:	fff701        	l32r	a0, 4 <at_setupCmdCipSslCConf-0xc>	26: R_XTENSA_SLOT0_OP	.text.at_setupCmdCipSslCConf+0x4
	26: R_XTENSA_ASM_EXPAND	at_get_next_int_dec
  29:	0000c0        	callx0	a0
  2c:	0128      	l32i.n	a2, a1, 0
  2e:	0812a6        	blti	a2, 1, 3a <at_setupCmdCipSslCConf+0x2a>	2e: R_XTENSA_SLOT0_OP	.text.at_setupCmdCipSslCConf+0x3a
  31:	fff501        	l32r	a0, 8 <at_setupCmdCipSslCConf-0x8>	31: R_XTENSA_SLOT0_OP	.text.at_setupCmdCipSslCConf+0x8
	31: R_XTENSA_ASM_EXPAND	at_response_error
  34:	0000c0        	callx0	a0
  37:	0006c6        	j	56 <at_setupCmdCipSslCConf+0x46>	37: R_XTENSA_SLOT0_OP	.text.at_setupCmdCipSslCConf+0x56
  3a:	4128      	l32i.n	a2, a1, 16
  3c:	000232        	l8ui	a3, a2, 0
  3f:	d20c      	movi.n	a2, 13
  41:	ec9327        	bne	a3, a2, 31 <at_setupCmdCipSslCConf+0x21>	41: R_XTENSA_SLOT0_OP	.text.at_setupCmdCipSslCConf+0x31
  44:	1128      	l32i.n	a2, a1, 4
  46:	c37c      	movi.n	a3, -4
  48:	e58237        	bany	a2, a3, 31 <at_setupCmdCipSslCConf+0x21>	48: R_XTENSA_SLOT0_OP	.text.at_setupCmdCipSslCConf+0x31
  4b:	ffed31        	l32r	a3, 0 <at_setupCmdCipSslCConf-0x10>	4b: R_XTENSA_SLOT0_OP	.text.at_setupCmdCipSslCConf
  4e:	0329      	s32i.n	a2, a3, 0
  50:	ffef01        	l32r	a0, c <at_setupCmdCipSslCConf-0x4>	50: R_XTENSA_SLOT0_OP	.text.at_setupCmdCipSslCConf+0xc
	50: R_XTENSA_ASM_EXPAND	at_response_ok
  53:	0000c0        	callx0	a0
  56:	b108      	l32i.n	a0, a1, 44
  58:	30c112        	addi	a1, a1, 48
  5b:	f00d      	ret.n

Disassembly of section .text.at_testCmdCipclose:

00000000 <at_testCmdCipclose-0x4>:
   0:	00 00 00 00 		0: R_XTENSA_32	at_response_ok

00000004 <at_testCmdCipclose>:
   4:	f0c112        	addi	a1, a1, -16
   7:	036102        	s32i	a0, a1, 12
   a:	fffd01        	l32r	a0, 0 <at_testCmdCipclose-0x4>	a: R_XTENSA_SLOT0_OP	.text.at_testCmdCipclose
	a: R_XTENSA_ASM_EXPAND	at_response_ok
   d:	0000c0        	callx0	a0
  10:	3108      	l32i.n	a0, a1, 12
  12:	10c112        	addi	a1, a1, 16
  15:	f00d      	ret.n

Disassembly of section .text.at_setupCmdCipclose:

00000000 <at_setupCmdCipclose-0x90>:
   0:	00 00 00 00 		0: R_XTENSA_32	at_ipMux
   4:	ee 04 00 00 		4: R_XTENSA_32	.irom.text
	...
	8: R_XTENSA_32	.data.at_linkMax
	c: R_XTENSA_32	.bss.at_linkNum
	10: R_XTENSA_32	.bss.serverEn
	14: R_XTENSA_32	.bss.pTcpServer
	18: R_XTENSA_32	.bss.disAllFlag
	1c: R_XTENSA_32	pLink
	20: R_XTENSA_32	specialAtState
  24:	33 03 00 00 		24: R_XTENSA_32	.rodata.str1.1
  28:	3c 07 00 00 		28: R_XTENSA_32	.irom.text
  2c:	00 00 00 00 		2c: R_XTENSA_32	mdState
  30:	e5 04 00 00 		30: R_XTENSA_32	.irom.text
  34:	0a 08 00 00 	
  38:	0c 08 00 00 	
	...
	3c: R_XTENSA_32	ets_bzero
	40: R_XTENSA_32	at_port_print
	44: R_XTENSA_32	at_response_error
	48: R_XTENSA_32	at_get_next_int_dec
	4c: R_XTENSA_32	at_response_ok
	50: R_XTENSA_32	espconn_get_connection_info
	54: R_XTENSA_32	ets_memcpy
	58: R_XTENSA_32	espconn_disconnect
	5c: R_XTENSA_32	ets_sprintf
	60: R_XTENSA_32	at_port_print
	64: R_XTENSA_32	vPortFree
	68: R_XTENSA_32	vPortFree
	6c: R_XTENSA_32	at_response_ok
	70: R_XTENSA_32	ets_sprintf
	74: R_XTENSA_32	at_port_print
	78: R_XTENSA_32	at_response_ok
	7c: R_XTENSA_32	ets_sprintf
	80: R_XTENSA_32	at_port_print
	84: R_XTENSA_32	vPortFree
	88: R_XTENSA_32	vPortFree
	8c: R_XTENSA_32	at_response_ok

00000090 <at_setupCmdCipclose>:
  90:	80c112        	addi	a1, a1, -128
  93:	020c      	movi.n	a2, 0
  95:	146132        	s32i	a3, a1, 80
  98:	126122        	s32i	a2, a1, 72
  9b:	116122        	s32i	a2, a1, 68
  9e:	40a032        	movi	a3, 64
  a1:	202110        	or	a2, a1, a1
  a4:	1f6102        	s32i	a0, a1, 124
  a7:	1e61c2        	s32i	a12, a1, 120
  aa:	1d61d2        	s32i	a13, a1, 116
  ad:	1c61e2        	s32i	a14, a1, 112
  b0:	1b61f2        	s32i	a15, a1, 108
  b3:	ffe201        	l32r	a0, 3c <at_setupCmdCipclose-0x54>	b3: R_XTENSA_SLOT0_OP	.text.at_setupCmdCipclose+0x3c
	b3: R_XTENSA_ASM_EXPAND	ets_bzero
  b6:	0000c0        	callx0	a0
  b9:	142122        	l32i	a2, a1, 80
  bc:	429c      	beqz.n	a2, d4 <at_setupCmdCipclose+0x44>	bc: R_XTENSA_SLOT0_OP	.text.at_setupCmdCipclose+0xd4
  be:	221b      	addi.n	a2, a2, 1
  c0:	146122        	s32i	a2, a1, 80
  c3:	ffcf21        	l32r	a2, 0 <at_setupCmdCipclose-0x90>	c3: R_XTENSA_SLOT0_OP	.text.at_setupCmdCipclose
  c6:	000222        	l8ui	a2, a2, 0
  c9:	02dc      	bnez.n	a2, dd <at_setupCmdCipclose+0x4d>	c9: R_XTENSA_SLOT0_OP	.text.at_setupCmdCipclose+0xdd
  cb:	ffce21        	l32r	a2, 4 <at_setupCmdCipclose-0x8c>	cb: R_XTENSA_SLOT0_OP	.text.at_setupCmdCipclose+0x4
  ce:	ffdc01        	l32r	a0, 40 <at_setupCmdCipclose-0x50>	ce: R_XTENSA_SLOT0_OP	.text.at_setupCmdCipclose+0x40
	ce: R_XTENSA_ASM_EXPAND	at_port_print
  d1:	0000c0        	callx0	a0
  d4:	ffdc01        	l32r	a0, 44 <at_setupCmdCipclose-0x4c>	d4: R_XTENSA_SLOT0_OP	.text.at_setupCmdCipclose+0x44
	d4: R_XTENSA_ASM_EXPAND	at_response_error
  d7:	0000c0        	callx0	a0
  da:	00b9c6        	j	3c5 <at_setupCmdCipclose+0x335>	da: R_XTENSA_SLOT0_OP	.text.at_setupCmdCipclose+0x3c5
  dd:	44c142        	addi	a4, a1, 68
  e0:	48c132        	addi	a3, a1, 72
  e3:	50c122        	addi	a2, a1, 80
  e6:	ffd801        	l32r	a0, 48 <at_setupCmdCipclose-0x48>	e6: R_XTENSA_SLOT0_OP	.text.at_setupCmdCipclose+0x48
	e6: R_XTENSA_ASM_EXPAND	at_get_next_int_dec
  e9:	0000c0        	callx0	a0
  ec:	fe4256        	bnez	a2, d4 <at_setupCmdCipclose+0x44>	ec: R_XTENSA_SLOT0_OP	.text.at_setupCmdCipclose+0xd4
  ef:	ffc631        	l32r	a3, 8 <at_setupCmdCipclose-0x88>	ef: R_XTENSA_SLOT0_OP	.text.at_setupCmdCipclose+0x8
  f2:	122142        	l32i	a4, a1, 72
  f5:	000322        	l8ui	a2, a3, 0
  f8:	03fd      	mov.n	a15, a3
  fa:	d62247        	blt	a2, a4, d4 <at_setupCmdCipclose+0x44>	fa: R_XTENSA_SLOT0_OP	.text.at_setupCmdCipclose+0xd4
  fd:	021247        	beq	a2, a4, 103 <at_setupCmdCipclose+0x73>	fd: R_XTENSA_SLOT0_OP	.text.at_setupCmdCipclose+0x103
 100:	0062c6        	j	28f <at_setupCmdCipclose+0x1ff>	100: R_XTENSA_SLOT0_OP	.text.at_setupCmdCipclose+0x28f
 103:	ffc2c1        	l32r	a12, c <at_setupCmdCipclose-0x84>	103: R_XTENSA_SLOT0_OP	.text.at_setupCmdCipclose+0xc
 106:	000c22        	l8ui	a2, a12, 0
 109:	72cc      	bnez.n	a2, 114 <at_setupCmdCipclose+0x84>	109: R_XTENSA_SLOT0_OP	.text.at_setupCmdCipclose+0x114
 10b:	ffd001        	l32r	a0, 4c <at_setupCmdCipclose-0x44>	10b: R_XTENSA_SLOT0_OP	.text.at_setupCmdCipclose+0x4c
	10b: R_XTENSA_ASM_EXPAND	at_response_ok
 10e:	0000c0        	callx0	a0
 111:	00ac06        	j	3c5 <at_setupCmdCipclose+0x335>	111: R_XTENSA_SLOT0_OP	.text.at_setupCmdCipclose+0x3c5
 114:	ffbf21        	l32r	a2, 10 <at_setupCmdCipclose-0x80>	114: R_XTENSA_SLOT0_OP	.text.at_setupCmdCipclose+0x10
 117:	000222        	l8ui	a2, a2, 0
 11a:	076216        	beqz	a2, 194 <at_setupCmdCipclose+0x104>	11a: R_XTENSA_SLOT0_OP	.text.at_setupCmdCipclose+0x194
 11d:	ffbde1        	l32r	a14, 14 <at_setupCmdCipclose-0x7c>	11d: R_XTENSA_SLOT0_OP	.text.at_setupCmdCipclose+0x14
 120:	00a0d2        	movi	a13, 0
 123:	002e22        	l32i	a2, a14, 0
 126:	204dd0        	or	a4, a13, a13
 129:	40c132        	addi	a3, a1, 64
 12c:	1061d2        	s32i	a13, a1, 64
 12f:	ffc801        	l32r	a0, 50 <at_setupCmdCipclose-0x40>	12f: R_XTENSA_SLOT0_OP	.text.at_setupCmdCipclose+0x50
	12f: R_XTENSA_ASM_EXPAND	espconn_get_connection_info
 132:	0000c0        	callx0	a0
 135:	0e28      	l32i.n	a2, a14, 0
 137:	140222        	l8ui	a2, a2, 20
 13a:	0712d7        	beq	a2, a13, 145 <at_setupCmdCipclose+0xb5>	13a: R_XTENSA_SLOT0_OP	.text.at_setupCmdCipclose+0x145
 13d:	ffb621        	l32r	a2, 18 <at_setupCmdCipclose-0x78>	13d: R_XTENSA_SLOT0_OP	.text.at_setupCmdCipclose+0x18
 140:	130c      	movi.n	a3, 1
 142:	004232        	s8i	a3, a2, 0
 145:	1261d2        	s32i	a13, a1, 72
 148:	0e28      	l32i.n	a2, a14, 0
 14a:	122132        	l32i	a3, a1, 72
 14d:	140242        	l8ui	a4, a2, 20
 150:	40a347        	bge	a3, a4, 194 <at_setupCmdCipclose+0x104>	150: R_XTENSA_SLOT0_OP	.text.at_setupCmdCipclose+0x194
 153:	102142        	l32i	a4, a1, 64
 156:	2228      	l32i.n	a2, a2, 8
 158:	903330        	addx2	a3, a3, a3
 15b:	a03340        	addx4	a3, a3, a4
 15e:	338b      	addi.n	a3, a3, 8
 160:	04a042        	movi	a4, 4
 163:	0cc222        	addi	a2, a2, 12
 166:	ffbb01        	l32r	a0, 54 <at_setupCmdCipclose-0x3c>	166: R_XTENSA_SLOT0_OP	.text.at_setupCmdCipclose+0x54
	166: R_XTENSA_ASM_EXPAND	ets_memcpy
 169:	0000c0        	callx0	a0
 16c:	122132        	l32i	a3, a1, 72
 16f:	102152        	l32i	a5, a1, 64
 172:	0e28      	l32i.n	a2, a14, 0
 174:	903330        	addx2	a3, a3, a3
 177:	a03350        	addx4	a3, a3, a5
 17a:	2248      	l32i.n	a4, a2, 8
 17c:	012332        	l32i	a3, a3, 4
 17f:	006432        	s32i	a3, a4, 0
 182:	ffb501        	l32r	a0, 58 <at_setupCmdCipclose-0x38>	182: R_XTENSA_SLOT0_OP	.text.at_setupCmdCipclose+0x58
	182: R_XTENSA_ASM_EXPAND	espconn_disconnect
 185:	0000c0        	callx0	a0
 188:	122122        	l32i	a2, a1, 72
 18b:	221b      	addi.n	a2, a2, 1
 18d:	126122        	s32i	a2, a1, 72
 190:	ffed06        	j	148 <at_setupCmdCipclose+0xb8>	190: R_XTENSA_SLOT0_OP	.text.at_setupCmdCipclose+0x148
 193:	00          	.byte 00
 194:	0e0c      	movi.n	a14, 0
 196:	ffa1d1        	l32r	a13, 1c <at_setupCmdCipclose-0x74>	196: R_XTENSA_SLOT0_OP	.text.at_setupCmdCipclose+0x1c
 199:	1261e2        	s32i	a14, a1, 72
 19c:	122142        	l32i	a4, a1, 72
 19f:	000f22        	l8ui	a2, a15, 0
 1a2:	022427        	blt	a4, a2, 1a8 <at_setupCmdCipclose+0x118>	1a2: R_XTENSA_SLOT0_OP	.text.at_setupCmdCipclose+0x1a8
 1a5:	008706        	j	3c5 <at_setupCmdCipclose+0x335>	1a5: R_XTENSA_SLOT0_OP	.text.at_setupCmdCipclose+0x3c5
 1a8:	b03440        	addx8	a3, a4, a4
 1ab:	902340        	addx2	a2, a3, a4
 1ae:	0d38      	l32i.n	a3, a13, 0
 1b0:	a03230        	addx4	a3, a2, a3
 1b3:	000322        	l8ui	a2, a3, 0
 1b6:	0ca216        	beqz	a2, 284 <at_setupCmdCipclose+0x1f4>	1b6: R_XTENSA_SLOT0_OP	.text.at_setupCmdCipclose+0x284
 1b9:	7328      	l32i.n	a2, a3, 28
 1bb:	0258      	l32i.n	a5, a2, 0
 1bd:	23b566        	bnei	a5, 16, 1e4 <at_setupCmdCipclose+0x154>	1bd: R_XTENSA_SLOT0_OP	.text.at_setupCmdCipclose+0x1e4
 1c0:	3348      	l32i.n	a4, a3, 12
 1c2:	021466        	bnei	a4, 1, 1c8 <at_setupCmdCipclose+0x138>	1c2: R_XTENSA_SLOT0_OP	.text.at_setupCmdCipclose+0x1c8
 1c5:	002ec6        	j	284 <at_setupCmdCipclose+0x1f4>	1c5: R_XTENSA_SLOT0_OP	.text.at_setupCmdCipclose+0x284
 1c8:	850c      	movi.n	a5, 8
 1ca:	1359      	s32i.n	a5, a3, 4
 1cc:	ff9551        	l32r	a5, 20 <at_setupCmdCipclose-0x70>	1cc: R_XTENSA_SLOT0_OP	.text.at_setupCmdCipclose+0x20
 1cf:	060c      	movi.n	a6, 0
 1d1:	004562        	s8i	a6, a5, 0
 1d4:	ff9151        	l32r	a5, 18 <at_setupCmdCipclose-0x78>	1d4: R_XTENSA_SLOT0_OP	.text.at_setupCmdCipclose+0x18
 1d7:	140c      	movi.n	a4, 1
 1d9:	014342        	s8i	a4, a3, 1
 1dc:	004542        	s8i	a4, a5, 0
 1df:	004f06        	j	31f <at_setupCmdCipclose+0x28f>	1df: R_XTENSA_SLOT0_OP	.text.at_setupCmdCipclose+0x31f
 1e2:	00          	.byte 00
 1e3:	00          	.byte 00
 1e4:	0043e2        	s8i	a14, a3, 0
 1e7:	ff8f31        	l32r	a3, 24 <at_setupCmdCipclose-0x6c>	1e7: R_XTENSA_SLOT0_OP	.text.at_setupCmdCipclose+0x24
 1ea:	012d      	mov.n	a2, a1
 1ec:	ff9c01        	l32r	a0, 5c <at_setupCmdCipclose-0x34>	1ec: R_XTENSA_SLOT0_OP	.text.at_setupCmdCipclose+0x5c
	1ec: R_XTENSA_ASM_EXPAND	ets_sprintf
 1ef:	0000c0        	callx0	a0
 1f2:	012d      	mov.n	a2, a1
 1f4:	ff9b01        	l32r	a0, 60 <at_setupCmdCipclose-0x30>	1f4: R_XTENSA_SLOT0_OP	.text.at_setupCmdCipclose+0x60
	1f4: R_XTENSA_ASM_EXPAND	at_port_print
 1f7:	0000c0        	callx0	a0
 1fa:	122132        	l32i	a3, a1, 72
 1fd:	b02330        	addx8	a2, a3, a3
 200:	902230        	addx2	a2, a2, a3
 203:	0d38      	l32i.n	a3, a13, 0
 205:	a02230        	addx4	a2, a2, a3
 208:	112232        	l32i	a3, a2, 68
 20b:	7228      	l32i.n	a2, a2, 28
 20d:	0003c0        	callx0	a3
 210:	122122        	l32i	a2, a1, 72
 213:	002d42        	l32i	a4, a13, 0
 216:	b03220        	addx8	a3, a2, a2
 219:	902320        	addx2	a2, a3, a2
 21c:	a02240        	addx4	a2, a2, a4
 21f:	7228      	l32i.n	a2, a2, 28
 221:	ff8131        	l32r	a3, 28 <at_setupCmdCipclose-0x68>	221: R_XTENSA_SLOT0_OP	.text.at_setupCmdCipclose+0x28
 224:	022222        	l32i	a2, a2, 8
 227:	daa742        	movi	a4, 0x7da
 22a:	ff8e01        	l32r	a0, 64 <at_setupCmdCipclose-0x2c>	22a: R_XTENSA_SLOT0_OP	.text.at_setupCmdCipclose+0x64
	22a: R_XTENSA_ASM_EXPAND	vPortFree
 22d:	0000c0        	callx0	a0
 230:	122132        	l32i	a3, a1, 72
 233:	050c      	movi.n	a5, 0
 235:	b02330        	addx8	a2, a3, a3
 238:	902230        	addx2	a2, a2, a3
 23b:	0d38      	l32i.n	a3, a13, 0
 23d:	dca742        	movi	a4, 0x7dc
 240:	a02230        	addx4	a2, a2, a3
 243:	7238      	l32i.n	a3, a2, 28
 245:	2359      	s32i.n	a5, a3, 8
 247:	7228      	l32i.n	a2, a2, 28
 249:	ff7731        	l32r	a3, 28 <at_setupCmdCipclose-0x68>	249: R_XTENSA_SLOT0_OP	.text.at_setupCmdCipclose+0x28
 24c:	156152        	s32i	a5, a1, 84
 24f:	ff8601        	l32r	a0, 68 <at_setupCmdCipclose-0x28>	24f: R_XTENSA_SLOT0_OP	.text.at_setupCmdCipclose+0x68
	24f: R_XTENSA_ASM_EXPAND	vPortFree
 252:	0000c0        	callx0	a0
 255:	122132        	l32i	a3, a1, 72
 258:	152152        	l32i	a5, a1, 84
 25b:	b02330        	addx8	a2, a3, a3
 25e:	902230        	addx2	a2, a2, a3
 261:	0d38      	l32i.n	a3, a13, 0
 263:	a02230        	addx4	a2, a2, a3
 266:	7259      	s32i.n	a5, a2, 28
 268:	1259      	s32i.n	a5, a2, 4
 26a:	000c22        	l8ui	a2, a12, 0
 26d:	220b      	addi.n	a2, a2, -1
 26f:	742020        	extui	a2, a2, 0, 8
 272:	004c22        	s8i	a2, a12, 0
 275:	b2cc      	bnez.n	a2, 284 <at_setupCmdCipclose+0x1f4>	275: R_XTENSA_SLOT0_OP	.text.at_setupCmdCipclose+0x284
 277:	ff6d21        	l32r	a2, 2c <at_setupCmdCipclose-0x64>	277: R_XTENSA_SLOT0_OP	.text.at_setupCmdCipclose+0x2c
 27a:	430c      	movi.n	a3, 4
 27c:	0239      	s32i.n	a3, a2, 0
 27e:	ff7b01        	l32r	a0, 6c <at_setupCmdCipclose-0x24>	27e: R_XTENSA_SLOT0_OP	.text.at_setupCmdCipclose+0x6c
	27e: R_XTENSA_ASM_EXPAND	at_response_ok
 281:	0000c0        	callx0	a0
 284:	122122        	l32i	a2, a1, 72
 287:	221b      	addi.n	a2, a2, 1
 289:	126122        	s32i	a2, a1, 72
 28c:	ffc306        	j	19c <at_setupCmdCipclose+0x10c>	28c: R_XTENSA_SLOT0_OP	.text.at_setupCmdCipclose+0x19c
 28f:	ff63c1        	l32r	a12, 1c <at_setupCmdCipclose-0x74>	28f: R_XTENSA_SLOT0_OP	.text.at_setupCmdCipclose+0x1c
 292:	b03440        	addx8	a3, a4, a4
 295:	902340        	addx2	a2, a3, a4
 298:	0c38      	l32i.n	a3, a12, 0
 29a:	a03230        	addx4	a3, a2, a3
 29d:	000322        	l8ui	a2, a3, 0
 2a0:	42cc      	bnez.n	a2, 2a8 <at_setupCmdCipclose+0x218>	2a0: R_XTENSA_SLOT0_OP	.text.at_setupCmdCipclose+0x2a8
 2a2:	ff6321        	l32r	a2, 30 <at_setupCmdCipclose-0x60>	2a2: R_XTENSA_SLOT0_OP	.text.at_setupCmdCipclose+0x30
 2a5:	ff8946        	j	ce <at_setupCmdCipclose+0x3e>	2a5: R_XTENSA_SLOT0_OP	.text.at_setupCmdCipclose+0xce
 2a8:	3368      	l32i.n	a6, a3, 12
 2aa:	050c      	movi.n	a5, 0
 2ac:	7328      	l32i.n	a2, a3, 28
 2ae:	5b1666        	bnei	a6, 1, 30d <at_setupCmdCipclose+0x27d>	2ae: R_XTENSA_SLOT0_OP	.text.at_setupCmdCipclose+0x30d
 2b1:	0268      	l32i.n	a6, a2, 0
 2b3:	09b666        	bnei	a6, 16, 2c0 <at_setupCmdCipclose+0x230>	2b3: R_XTENSA_SLOT0_OP	.text.at_setupCmdCipclose+0x2c0
 2b6:	140c      	movi.n	a4, 1
 2b8:	014342        	s8i	a4, a3, 1
 2bb:	001686        	j	319 <at_setupCmdCipclose+0x289>	2bb: R_XTENSA_SLOT0_OP	.text.at_setupCmdCipclose+0x319
 2be:	00          	.byte 00
 2bf:	00          	.byte 00
 2c0:	004352        	s8i	a5, a3, 0
 2c3:	ff5831        	l32r	a3, 24 <at_setupCmdCipclose-0x6c>	2c3: R_XTENSA_SLOT0_OP	.text.at_setupCmdCipclose+0x24
 2c6:	012d      	mov.n	a2, a1
 2c8:	ff6a01        	l32r	a0, 70 <at_setupCmdCipclose-0x20>	2c8: R_XTENSA_SLOT0_OP	.text.at_setupCmdCipclose+0x70
	2c8: R_XTENSA_ASM_EXPAND	ets_sprintf
 2cb:	0000c0        	callx0	a0
 2ce:	012d      	mov.n	a2, a1
 2d0:	ff6901        	l32r	a0, 74 <at_setupCmdCipclose-0x1c>	2d0: R_XTENSA_SLOT0_OP	.text.at_setupCmdCipclose+0x74
	2d0: R_XTENSA_ASM_EXPAND	at_port_print
 2d3:	0000c0        	callx0	a0
 2d6:	122132        	l32i	a3, a1, 72
 2d9:	b02330        	addx8	a2, a3, a3
 2dc:	902230        	addx2	a2, a2, a3
 2df:	0c38      	l32i.n	a3, a12, 0
 2e1:	a02230        	addx4	a2, a2, a3
 2e4:	112232        	l32i	a3, a2, 68
 2e7:	7228      	l32i.n	a2, a2, 28
 2e9:	0003c0        	callx0	a3
 2ec:	ff48c1        	l32r	a12, c <at_setupCmdCipclose-0x84>	2ec: R_XTENSA_SLOT0_OP	.text.at_setupCmdCipclose+0xc
 2ef:	000c22        	l8ui	a2, a12, 0
 2f2:	220b      	addi.n	a2, a2, -1
 2f4:	004c22        	s8i	a2, a12, 0
 2f7:	ff6001        	l32r	a0, 78 <at_setupCmdCipclose-0x18>	2f7: R_XTENSA_SLOT0_OP	.text.at_setupCmdCipclose+0x78
	2f7: R_XTENSA_ASM_EXPAND	at_response_ok
 2fa:	0000c0        	callx0	a0
 2fd:	000c22        	l8ui	a2, a12, 0
 300:	0c1256        	bnez	a2, 3c5 <at_setupCmdCipclose+0x335>	300: R_XTENSA_SLOT0_OP	.text.at_setupCmdCipclose+0x3c5
 303:	ff4a21        	l32r	a2, 2c <at_setupCmdCipclose-0x64>	303: R_XTENSA_SLOT0_OP	.text.at_setupCmdCipclose+0x2c
 306:	430c      	movi.n	a3, 4
 308:	0239      	s32i.n	a3, a2, 0
 30a:	002dc6        	j	3c5 <at_setupCmdCipclose+0x335>	30a: R_XTENSA_SLOT0_OP	.text.at_setupCmdCipclose+0x3c5
 30d:	0268      	l32i.n	a6, a2, 0
 30f:	15b666        	bnei	a6, 16, 328 <at_setupCmdCipclose+0x298>	30f: R_XTENSA_SLOT0_OP	.text.at_setupCmdCipclose+0x328
 312:	140c      	movi.n	a4, 1
 314:	014342        	s8i	a4, a3, 1
 317:	050c      	movi.n	a5, 0
 319:	ff4141        	l32r	a4, 20 <at_setupCmdCipclose-0x70>	319: R_XTENSA_SLOT0_OP	.text.at_setupCmdCipclose+0x20
 31c:	004452        	s8i	a5, a4, 0
 31f:	112332        	l32i	a3, a3, 68
 322:	0003c0        	callx0	a3
 325:	002706        	j	3c5 <at_setupCmdCipclose+0x335>	325: R_XTENSA_SLOT0_OP	.text.at_setupCmdCipclose+0x3c5
 328:	004352        	s8i	a5, a3, 0
 32b:	ff3e31        	l32r	a3, 24 <at_setupCmdCipclose-0x6c>	32b: R_XTENSA_SLOT0_OP	.text.at_setupCmdCipclose+0x24
 32e:	012d      	mov.n	a2, a1
 330:	ff5301        	l32r	a0, 7c <at_setupCmdCipclose-0x14>	330: R_XTENSA_SLOT0_OP	.text.at_setupCmdCipclose+0x7c
	330: R_XTENSA_ASM_EXPAND	ets_sprintf
 333:	0000c0        	callx0	a0
 336:	012d      	mov.n	a2, a1
 338:	ff5201        	l32r	a0, 80 <at_setupCmdCipclose-0x10>	338: R_XTENSA_SLOT0_OP	.text.at_setupCmdCipclose+0x80
	338: R_XTENSA_ASM_EXPAND	at_port_print
 33b:	0000c0        	callx0	a0
 33e:	122132        	l32i	a3, a1, 72
 341:	00a0e2        	movi	a14, 0
 344:	b02330        	addx8	a2, a3, a3
 347:	902230        	addx2	a2, a2, a3
 34a:	0c38      	l32i.n	a3, a12, 0
 34c:	a02230        	addx4	a2, a2, a3
 34f:	112232        	l32i	a3, a2, 68
 352:	072222        	l32i	a2, a2, 28
 355:	0003c0        	callx0	a3
 358:	122122        	l32i	a2, a1, 72
 35b:	0c48      	l32i.n	a4, a12, 0
 35d:	b03220        	addx8	a3, a2, a2
 360:	902320        	addx2	a2, a3, a2
 363:	a02240        	addx4	a2, a2, a4
 366:	7228      	l32i.n	a2, a2, 28
 368:	ff30d1        	l32r	a13, 28 <at_setupCmdCipclose-0x68>	368: R_XTENSA_SLOT0_OP	.text.at_setupCmdCipclose+0x28
 36b:	ff3241        	l32r	a4, 34 <at_setupCmdCipclose-0x5c>	36b: R_XTENSA_SLOT0_OP	.text.at_setupCmdCipclose+0x34
 36e:	2228      	l32i.n	a2, a2, 8
 370:	203dd0        	or	a3, a13, a13
 373:	ff4401        	l32r	a0, 84 <at_setupCmdCipclose-0xc>	373: R_XTENSA_SLOT0_OP	.text.at_setupCmdCipclose+0x84
	373: R_XTENSA_ASM_EXPAND	vPortFree
 376:	0000c0        	callx0	a0
 379:	122132        	l32i	a3, a1, 72
 37c:	ff2f41        	l32r	a4, 38 <at_setupCmdCipclose-0x58>	37c: R_XTENSA_SLOT0_OP	.text.at_setupCmdCipclose+0x38
 37f:	b02330        	addx8	a2, a3, a3
 382:	902230        	addx2	a2, a2, a3
 385:	0c38      	l32i.n	a3, a12, 0
 387:	a02230        	addx4	a2, a2, a3
 38a:	7238      	l32i.n	a3, a2, 28
 38c:	23e9      	s32i.n	a14, a3, 8
 38e:	7228      	l32i.n	a2, a2, 28
 390:	203dd0        	or	a3, a13, a13
 393:	ff3d01        	l32r	a0, 88 <at_setupCmdCipclose-0x8>	393: R_XTENSA_SLOT0_OP	.text.at_setupCmdCipclose+0x88
	393: R_XTENSA_ASM_EXPAND	vPortFree
 396:	0000c0        	callx0	a0
 399:	122132        	l32i	a3, a1, 72
 39c:	b02330        	addx8	a2, a3, a3
 39f:	902230        	addx2	a2, a2, a3
 3a2:	0c38      	l32i.n	a3, a12, 0
 3a4:	ff1ac1        	l32r	a12, c <at_setupCmdCipclose-0x84>	3a4: R_XTENSA_SLOT0_OP	.text.at_setupCmdCipclose+0xc
 3a7:	a02230        	addx4	a2, a2, a3
 3aa:	72e9      	s32i.n	a14, a2, 28
 3ac:	12e9      	s32i.n	a14, a2, 4
 3ae:	000c22        	l8ui	a2, a12, 0
 3b1:	220b      	addi.n	a2, a2, -1
 3b3:	004c22        	s8i	a2, a12, 0
 3b6:	ff3501        	l32r	a0, 8c <at_setupCmdCipclose-0x4>	3b6: R_XTENSA_SLOT0_OP	.text.at_setupCmdCipclose+0x8c
	3b6: R_XTENSA_ASM_EXPAND	at_response_ok
 3b9:	0000c0        	callx0	a0
 3bc:	000c22        	l8ui	a2, a12, 0
 3bf:	0292e7        	bne	a2, a14, 3c5 <at_setupCmdCipclose+0x335>	3bf: R_XTENSA_SLOT0_OP	.text.at_setupCmdCipclose+0x3c5
 3c2:	ffcf46        	j	303 <at_setupCmdCipclose+0x273>	3c2: R_XTENSA_SLOT0_OP	.text.at_setupCmdCipclose+0x303
 3c5:	1f2102        	l32i	a0, a1, 124
 3c8:	80a092        	movi	a9, 128
 3cb:	1e21c2        	l32i	a12, a1, 120
 3ce:	1d21d2        	l32i	a13, a1, 116
 3d1:	1c21e2        	l32i	a14, a1, 112
 3d4:	1b21f2        	l32i	a15, a1, 108
 3d7:	119a      	add.n	a1, a1, a9
 3d9:	f00d      	ret.n

Disassembly of section .text.at_exeCmdCipclose:

00000000 <at_exeCmdCipclose-0x50>:
   0:	00 00 00 00 		0: R_XTENSA_32	at_ipMux
   4:	dd 04 00 00 		4: R_XTENSA_32	.irom.text
	...
	8: R_XTENSA_32	pLink
	c: R_XTENSA_32	.bss.serverEn
  10:	cb 04 00 00 		10: R_XTENSA_32	.irom.text
  14:	00 00 00 00 		14: R_XTENSA_32	specialAtState
  18:	c2 04 00 00 		18: R_XTENSA_32	.irom.text
  1c:	3c 08 00 00 	
  20:	3c 07 00 00 		20: R_XTENSA_32	.irom.text
  24:	3e 08 00 00 	
	...
	28: R_XTENSA_32	.bss.at_linkNum
	2c: R_XTENSA_32	mdState
	30: R_XTENSA_32	ets_bzero
	34: R_XTENSA_32	at_port_print
	38: R_XTENSA_32	at_port_print
	3c: R_XTENSA_32	at_port_print
	40: R_XTENSA_32	vPortFree
	44: R_XTENSA_32	vPortFree
	48: R_XTENSA_32	at_response_ok
	4c: R_XTENSA_32	at_response_error

00000050 <at_exeCmdCipclose>:
  50:	b0c112        	addi	a1, a1, -80
  53:	012d      	mov.n	a2, a1
  55:	034c      	movi.n	a3, 64
  57:	136102        	s32i	a0, a1, 76
  5a:	1261c2        	s32i	a12, a1, 72
  5d:	1161d2        	s32i	a13, a1, 68
  60:	1061e2        	s32i	a14, a1, 64
  63:	fff301        	l32r	a0, 30 <at_exeCmdCipclose-0x20>	63: R_XTENSA_SLOT0_OP	.text.at_exeCmdCipclose+0x30
	63: R_XTENSA_ASM_EXPAND	ets_bzero
  66:	0000c0        	callx0	a0
  69:	ffe521        	l32r	a2, 0 <at_exeCmdCipclose-0x50>	69: R_XTENSA_SLOT0_OP	.text.at_exeCmdCipclose
  6c:	000222        	l8ui	a2, a2, 0
  6f:	a28c      	beqz.n	a2, 7d <at_exeCmdCipclose+0x2d>	6f: R_XTENSA_SLOT0_OP	.text.at_exeCmdCipclose+0x7d
  71:	ffe421        	l32r	a2, 4 <at_exeCmdCipclose-0x4c>	71: R_XTENSA_SLOT0_OP	.text.at_exeCmdCipclose+0x4
  74:	fff001        	l32r	a0, 34 <at_exeCmdCipclose-0x1c>	74: R_XTENSA_SLOT0_OP	.text.at_exeCmdCipclose+0x34
	74: R_XTENSA_ASM_EXPAND	at_port_print
  77:	0000c0        	callx0	a0
  7a:	002986        	j	124 <at_exeCmdCipclose+0xd4>	7a: R_XTENSA_SLOT0_OP	.text.at_exeCmdCipclose+0x124
  7d:	ffe2c1        	l32r	a12, 8 <at_exeCmdCipclose-0x48>	7d: R_XTENSA_SLOT0_OP	.text.at_exeCmdCipclose+0x8
  80:	0c38      	l32i.n	a3, a12, 0
  82:	000322        	l8ui	a2, a3, 0
  85:	09b216        	beqz	a2, 124 <at_exeCmdCipclose+0xd4>	85: R_XTENSA_SLOT0_OP	.text.at_exeCmdCipclose+0x124
  88:	ffe121        	l32r	a2, c <at_exeCmdCipclose-0x44>	88: R_XTENSA_SLOT0_OP	.text.at_exeCmdCipclose+0xc
  8b:	000222        	l8ui	a2, a2, 0
  8e:	c28c      	beqz.n	a2, 9e <at_exeCmdCipclose+0x4e>	8e: R_XTENSA_SLOT0_OP	.text.at_exeCmdCipclose+0x9e
  90:	ffe021        	l32r	a2, 10 <at_exeCmdCipclose-0x40>	90: R_XTENSA_SLOT0_OP	.text.at_exeCmdCipclose+0x10
  93:	ffe901        	l32r	a0, 38 <at_exeCmdCipclose-0x18>	93: R_XTENSA_SLOT0_OP	.text.at_exeCmdCipclose+0x38
	93: R_XTENSA_ASM_EXPAND	at_port_print
  96:	0000c0        	callx0	a0
  99:	001f46        	j	11a <at_exeCmdCipclose+0xca>	99: R_XTENSA_SLOT0_OP	.text.at_exeCmdCipclose+0x11a
  9c:	00          	.byte 00
  9d:	00          	.byte 00
  9e:	7328      	l32i.n	a2, a3, 28
  a0:	040c      	movi.n	a4, 0
  a2:	0258      	l32i.n	a5, a2, 0
  a4:	15b566        	bnei	a5, 16, bd <at_exeCmdCipclose+0x6d>	a4: R_XTENSA_SLOT0_OP	.text.at_exeCmdCipclose+0xbd
  a7:	ffdb51        	l32r	a5, 14 <at_exeCmdCipclose-0x3c>	a7: R_XTENSA_SLOT0_OP	.text.at_exeCmdCipclose+0x14
  aa:	004542        	s8i	a4, a5, 0
  ad:	140c      	movi.n	a4, 1
  af:	014342        	s8i	a4, a3, 1
  b2:	112332        	l32i	a3, a3, 68
  b5:	0003c0        	callx0	a3
  b8:	001b86        	j	12a <at_exeCmdCipclose+0xda>	b8: R_XTENSA_SLOT0_OP	.text.at_exeCmdCipclose+0x12a
  bb:	00          	.byte 00
  bc:	00          	.byte 00
  bd:	ffd621        	l32r	a2, 18 <at_exeCmdCipclose-0x38>	bd: R_XTENSA_SLOT0_OP	.text.at_exeCmdCipclose+0x18
  c0:	004342        	s8i	a4, a3, 0
  c3:	ffde01        	l32r	a0, 3c <at_exeCmdCipclose-0x14>	c3: R_XTENSA_SLOT0_OP	.text.at_exeCmdCipclose+0x3c
	c3: R_XTENSA_ASM_EXPAND	at_port_print
  c6:	0000c0        	callx0	a0
  c9:	0c28      	l32i.n	a2, a12, 0
  cb:	0d0c      	movi.n	a13, 0
  cd:	112232        	l32i	a3, a2, 68
  d0:	7228      	l32i.n	a2, a2, 28
  d2:	0003c0        	callx0	a3
  d5:	0c28      	l32i.n	a2, a12, 0
  d7:	ffd2e1        	l32r	a14, 20 <at_exeCmdCipclose-0x30>	d7: R_XTENSA_SLOT0_OP	.text.at_exeCmdCipclose+0x20
  da:	7228      	l32i.n	a2, a2, 28
  dc:	ffd041        	l32r	a4, 1c <at_exeCmdCipclose-0x34>	dc: R_XTENSA_SLOT0_OP	.text.at_exeCmdCipclose+0x1c
  df:	2228      	l32i.n	a2, a2, 8
  e1:	0e3d      	mov.n	a3, a14
  e3:	ffd701        	l32r	a0, 40 <at_exeCmdCipclose-0x10>	e3: R_XTENSA_SLOT0_OP	.text.at_exeCmdCipclose+0x40
	e3: R_XTENSA_ASM_EXPAND	vPortFree
  e6:	0000c0        	callx0	a0
  e9:	0c28      	l32i.n	a2, a12, 0
  eb:	ffce41        	l32r	a4, 24 <at_exeCmdCipclose-0x2c>	eb: R_XTENSA_SLOT0_OP	.text.at_exeCmdCipclose+0x24
  ee:	7238      	l32i.n	a3, a2, 28
  f0:	23d9      	s32i.n	a13, a3, 8
  f2:	7228      	l32i.n	a2, a2, 28
  f4:	0e3d      	mov.n	a3, a14
  f6:	ffd301        	l32r	a0, 44 <at_exeCmdCipclose-0xc>	f6: R_XTENSA_SLOT0_OP	.text.at_exeCmdCipclose+0x44
	f6: R_XTENSA_ASM_EXPAND	vPortFree
  f9:	0000c0        	callx0	a0
  fc:	0c28      	l32i.n	a2, a12, 0
  fe:	ffca31        	l32r	a3, 28 <at_exeCmdCipclose-0x28>	fe: R_XTENSA_SLOT0_OP	.text.at_exeCmdCipclose+0x28
 101:	72d9      	s32i.n	a13, a2, 28
 103:	12d9      	s32i.n	a13, a2, 4
 105:	000322        	l8ui	a2, a3, 0
 108:	220b      	addi.n	a2, a2, -1
 10a:	742020        	extui	a2, a2, 0, 8
 10d:	004322        	s8i	a2, a3, 0
 110:	1692d7        	bne	a2, a13, 12a <at_exeCmdCipclose+0xda>	110: R_XTENSA_SLOT0_OP	.text.at_exeCmdCipclose+0x12a
 113:	ffc621        	l32r	a2, 2c <at_exeCmdCipclose-0x24>	113: R_XTENSA_SLOT0_OP	.text.at_exeCmdCipclose+0x2c
 116:	430c      	movi.n	a3, 4
 118:	0239      	s32i.n	a3, a2, 0
 11a:	ffcb01        	l32r	a0, 48 <at_exeCmdCipclose-0x8>	11a: R_XTENSA_SLOT0_OP	.text.at_exeCmdCipclose+0x48
	11a: R_XTENSA_ASM_EXPAND	at_response_ok
 11d:	0000c0        	callx0	a0
 120:	000186        	j	12a <at_exeCmdCipclose+0xda>	120: R_XTENSA_SLOT0_OP	.text.at_exeCmdCipclose+0x12a
 123:	00          	.byte 00
 124:	ffca01        	l32r	a0, 4c <at_exeCmdCipclose-0x4>	124: R_XTENSA_SLOT0_OP	.text.at_exeCmdCipclose+0x4c
	124: R_XTENSA_ASM_EXPAND	at_response_error
 127:	0000c0        	callx0	a0
 12a:	132102        	l32i	a0, a1, 76
 12d:	1221c2        	l32i	a12, a1, 72
 130:	1121d2        	l32i	a13, a1, 68
 133:	1021e2        	l32i	a14, a1, 64
 136:	50c112        	addi	a1, a1, 80
 139:	f00d      	ret.n

Disassembly of section .text.at_setupCmdCipcloseMode:

00000000 <at_setupCmdCipcloseMode-0x28>:
	...
	0: R_XTENSA_32	at_ipMux
	4: R_XTENSA_32	.data.at_linkMax
	8: R_XTENSA_32	pLink
   c:	ff 00 00 ff 	
	...
	10: R_XTENSA_32	espconn_disconnect
	14: R_XTENSA_32	espconn_abort
	18: R_XTENSA_32	at_response_error
	1c: R_XTENSA_32	at_get_next_int_dec
	20: R_XTENSA_32	at_get_next_int_dec
	24: R_XTENSA_32	at_response_ok

00000028 <at_setupCmdCipcloseMode>:
  28:	d0c112        	addi	a1, a1, -48
  2b:	020c      	movi.n	a2, 0
  2d:	b109      	s32i.n	a0, a1, 44
  2f:	4139      	s32i.n	a3, a1, 16
  31:	2129      	s32i.n	a2, a1, 8
  33:	016122        	s32i	a2, a1, 4
  36:	006122        	s32i	a2, a1, 0
  39:	089327        	bne	a3, a2, 45 <at_setupCmdCipcloseMode+0x1d>	39: R_XTENSA_SLOT0_OP	.text.at_setupCmdCipcloseMode+0x45
  3c:	fff701        	l32r	a0, 18 <at_setupCmdCipcloseMode-0x10>	3c: R_XTENSA_SLOT0_OP	.text.at_setupCmdCipcloseMode+0x18
	3c: R_XTENSA_ASM_EXPAND	at_response_error
  3f:	0000c0        	callx0	a0
  42:	002406        	j	d6 <at_setupCmdCipcloseMode+0xae>	42: R_XTENSA_SLOT0_OP	.text.at_setupCmdCipcloseMode+0xd6
  45:	ffee21        	l32r	a2, 0 <at_setupCmdCipcloseMode-0x28>	45: R_XTENSA_SLOT0_OP	.text.at_setupCmdCipcloseMode
  48:	000222        	l8ui	a2, a2, 0
  4b:	22bc      	beqz.n	a2, 81 <at_setupCmdCipcloseMode+0x59>	4b: R_XTENSA_SLOT0_OP	.text.at_setupCmdCipcloseMode+0x81
  4d:	331b      	addi.n	a3, a3, 1
  4f:	4139      	s32i.n	a3, a1, 16
  51:	04c142        	addi	a4, a1, 4
  54:	08c132        	addi	a3, a1, 8
  57:	10c122        	addi	a2, a1, 16
  5a:	fff001        	l32r	a0, 1c <at_setupCmdCipcloseMode-0xc>	5a: R_XTENSA_SLOT0_OP	.text.at_setupCmdCipcloseMode+0x1c
	5a: R_XTENSA_ASM_EXPAND	at_get_next_int_dec
  5d:	0000c0        	callx0	a0
  60:	d81266        	bnei	a2, 1, 3c <at_setupCmdCipcloseMode+0x14>	60: R_XTENSA_SLOT0_OP	.text.at_setupCmdCipcloseMode+0x3c
  63:	1128      	l32i.n	a2, a1, 4
  65:	fd3256        	bnez	a2, 3c <at_setupCmdCipcloseMode+0x14>	65: R_XTENSA_SLOT0_OP	.text.at_setupCmdCipcloseMode+0x3c
  68:	ffe731        	l32r	a3, 4 <at_setupCmdCipcloseMode-0x24>	68: R_XTENSA_SLOT0_OP	.text.at_setupCmdCipcloseMode+0x4
  6b:	2128      	l32i.n	a2, a1, 8
  6d:	000332        	l8ui	a3, a3, 0
  70:	c82327        	blt	a3, a2, 3c <at_setupCmdCipcloseMode+0x14>	70: R_XTENSA_SLOT0_OP	.text.at_setupCmdCipcloseMode+0x3c
  73:	fc5296        	bltz	a2, 3c <at_setupCmdCipcloseMode+0x14>	73: R_XTENSA_SLOT0_OP	.text.at_setupCmdCipcloseMode+0x3c
  76:	4128      	l32i.n	a2, a1, 16
  78:	000232        	l8ui	a3, a2, 0
  7b:	2ca022        	movi	a2, 44
  7e:	ba9327        	bne	a3, a2, 3c <at_setupCmdCipcloseMode+0x14>	7e: R_XTENSA_SLOT0_OP	.text.at_setupCmdCipcloseMode+0x3c
  81:	4128      	l32i.n	a2, a1, 16
  83:	414b      	addi.n	a4, a1, 4
  85:	221b      	addi.n	a2, a2, 1
  87:	4129      	s32i.n	a2, a1, 16
  89:	013d      	mov.n	a3, a1
  8b:	10c122        	addi	a2, a1, 16
  8e:	ffe401        	l32r	a0, 20 <at_setupCmdCipcloseMode-0x8>	8e: R_XTENSA_SLOT0_OP	.text.at_setupCmdCipcloseMode+0x20
	8e: R_XTENSA_ASM_EXPAND	at_get_next_int_dec
  91:	0000c0        	callx0	a0
  94:	fa4256        	bnez	a2, 3c <at_setupCmdCipcloseMode+0x14>	94: R_XTENSA_SLOT0_OP	.text.at_setupCmdCipcloseMode+0x3c
  97:	2138      	l32i.n	a3, a1, 8
  99:	b02330        	addx8	a2, a3, a3
  9c:	902230        	addx2	a2, a2, a3
  9f:	ffda31        	l32r	a3, 8 <at_setupCmdCipcloseMode-0x20>	9f: R_XTENSA_SLOT0_OP	.text.at_setupCmdCipcloseMode+0x8
  a2:	0338      	l32i.n	a3, a3, 0
  a4:	a02230        	addx4	a2, a2, a3
  a7:	0248      	l32i.n	a4, a2, 0
  a9:	ffd831        	l32r	a3, c <at_setupCmdCipcloseMode-0x1c>	a9: R_XTENSA_SLOT0_OP	.text.at_setupCmdCipcloseMode+0xc
  ac:	103430        	and	a3, a4, a3
  af:	891366        	bnei	a3, 1, 3c <at_setupCmdCipcloseMode+0x14>	af: R_XTENSA_SLOT0_OP	.text.at_setupCmdCipcloseMode+0x3c
  b2:	7238      	l32i.n	a3, a2, 28
  b4:	0338      	l32i.n	a3, a3, 0
  b6:	82b366        	bnei	a3, 16, 3c <at_setupCmdCipcloseMode+0x14>	b6: R_XTENSA_SLOT0_OP	.text.at_setupCmdCipcloseMode+0x3c
  b9:	0138      	l32i.n	a3, a1, 0
  bb:	53cc      	bnez.n	a3, c4 <at_setupCmdCipcloseMode+0x9c>	bb: R_XTENSA_SLOT0_OP	.text.at_setupCmdCipcloseMode+0xc4
  bd:	ffd431        	l32r	a3, 10 <at_setupCmdCipcloseMode-0x18>	bd: R_XTENSA_SLOT0_OP	.text.at_setupCmdCipcloseMode+0x10
  c0:	000246        	j	cd <at_setupCmdCipcloseMode+0xa5>	c0: R_XTENSA_SLOT0_OP	.text.at_setupCmdCipcloseMode+0xcd
  c3:	00          	.byte 00
  c4:	021326        	beqi	a3, 1, ca <at_setupCmdCipcloseMode+0xa2>	c4: R_XTENSA_SLOT0_OP	.text.at_setupCmdCipcloseMode+0xca
  c7:	ffdc46        	j	3c <at_setupCmdCipcloseMode+0x14>	c7: R_XTENSA_SLOT0_OP	.text.at_setupCmdCipcloseMode+0x3c
  ca:	ffd231        	l32r	a3, 14 <at_setupCmdCipcloseMode-0x14>	ca: R_XTENSA_SLOT0_OP	.text.at_setupCmdCipcloseMode+0x14
  cd:	116232        	s32i	a3, a2, 68
  d0:	ffd501        	l32r	a0, 24 <at_setupCmdCipcloseMode-0x4>	d0: R_XTENSA_SLOT0_OP	.text.at_setupCmdCipcloseMode+0x24
	d0: R_XTENSA_ASM_EXPAND	at_response_ok
  d3:	0000c0        	callx0	a0
  d6:	b108      	l32i.n	a0, a1, 44
  d8:	30c112        	addi	a1, a1, 48
  db:	f00d      	ret.n

Disassembly of section .text.at_testCmdCipsend:

00000000 <at_testCmdCipsend-0x4>:
   0:	00 00 00 00 		0: R_XTENSA_32	at_response_ok

00000004 <at_testCmdCipsend>:
   4:	f0c112        	addi	a1, a1, -16
   7:	036102        	s32i	a0, a1, 12
   a:	fffd01        	l32r	a0, 0 <at_testCmdCipsend-0x4>	a: R_XTENSA_SLOT0_OP	.text.at_testCmdCipsend
	a: R_XTENSA_ASM_EXPAND	at_response_ok
   d:	0000c0        	callx0	a0
  10:	3108      	l32i.n	a0, a1, 12
  12:	10c112        	addi	a1, a1, 16
  15:	f00d      	ret.n

Disassembly of section .text.at_setupCmdCipsend:

00000000 <at_setupCmdCipsend-0xc4>:
   0:	00 00 00 00 		0: R_XTENSA_32	IPMODE
   4:	b7 04 00 00 		4: R_XTENSA_32	.irom.text
	...
	8: R_XTENSA_32	at_ipMux
	c: R_XTENSA_32	.data.at_linkMax
	10: R_XTENSA_32	pLink
  14:	a3 04 00 00 		14: R_XTENSA_32	.irom.text
  18:	00 00 00 00 		18: R_XTENSA_32	send_mode
  1c:	91 04 00 00 		1c: R_XTENSA_32	.irom.text
  20:	00 08 00 00 	
  24:	86 04 00 00 		24: R_XTENSA_32	.irom.text
  28:	7b 04 00 00 		28: R_XTENSA_32	.irom.text
  2c:	71 04 00 00 		2c: R_XTENSA_32	.irom.text
  30:	64 04 00 00 		30: R_XTENSA_32	.irom.text
  34:	fe ff 00 00 	
  38:	51 04 00 00 		38: R_XTENSA_32	.irom.text
  3c:	47 04 00 00 		3c: R_XTENSA_32	.irom.text
  40:	39 04 00 00 		40: R_XTENSA_32	.irom.text
  44:	00 00 00 00 		44: R_XTENSA_32	specialAtState
  48:	2c 04 00 00 		48: R_XTENSA_32	.irom.text
	...
	4c: R_XTENSA_32	sendingID
	50: R_XTENSA_32	at_sendLen
  54:	28 00 00 00 		54: R_XTENSA_32	.text.at_udpsend_dns_found
	...
	58: R_XTENSA_32	pDataLine
	5c: R_XTENSA_32	at_dataLine
	60: R_XTENSA_32	at_state
  64:	3f 03 00 00 		64: R_XTENSA_32	.rodata.str1.1
  68:	24 00 00 60 	
  6c:	00 00 00 00 		6c: R_XTENSA_32	fake_uart_flag
  70:	d9 01 00 00 		70: R_XTENSA_32	.rodata.str1.1
	...
	74: R_XTENSA_32	ets_bzero
	78: R_XTENSA_32	at_port_print
	7c: R_XTENSA_32	at_response_error
	80: R_XTENSA_32	at_get_next_int_dec
	84: R_XTENSA_32	at_get_next_int_dec
	88: R_XTENSA_32	at_data_str_copy
	8c: R_XTENSA_32	at_get_next_int_dec
  90:	10 00 00 00 		90: R_XTENSA_32	.text.at_cipsendbuf_filter
	...
	94: R_XTENSA_32	ets_memset
	98: R_XTENSA_32	espconn_get_packet_info
	9c: R_XTENSA_32	at_port_print
	a0: R_XTENSA_32	ets_strlen
	a4: R_XTENSA_32	espconn_gethostbyname
	a8: R_XTENSA_32	ets_memcpy
	ac: R_XTENSA_32	ets_sprintf
	b0: R_XTENSA_32	at_port_print
	b4: R_XTENSA_32	espconn_set_opt
	b8: R_XTENSA_32	uart_set_rx_buf_state
	bc: R_XTENSA_32	at_response_ok
	c0: R_XTENSA_32	at_port_print

000000c4 <at_setupCmdCipsend>:
  c4:	e0a092        	movi	a9, 224
  c7:	c01190        	sub	a1, a1, a9
  ca:	020c      	movi.n	a2, 0
  cc:	376102        	s32i	a0, a1, 220
  cf:	3661c2        	s32i	a12, a1, 216
  d2:	3561d2        	s32i	a13, a1, 212
  d5:	3461e2        	s32i	a14, a1, 208
  d8:	3361f2        	s32i	a15, a1, 204
  db:	2c6132        	s32i	a3, a1, 176
  de:	296122        	s32i	a2, a1, 164
  e1:	286122        	s32i	a2, a1, 160
  e4:	276122        	s32i	a2, a1, 156
  e7:	266122        	s32i	a2, a1, 152
  ea:	1c1327        	beq	a3, a2, 10a <at_setupCmdCipsend+0x46>	ea: R_XTENSA_SLOT0_OP	.text.at_setupCmdCipsend+0x10a
  ed:	012d      	mov.n	a2, a1
  ef:	80a032        	movi	a3, 128
  f2:	ffe001        	l32r	a0, 74 <at_setupCmdCipsend-0x50>	f2: R_XTENSA_SLOT0_OP	.text.at_setupCmdCipsend+0x74
	f2: R_XTENSA_ASM_EXPAND	ets_bzero
  f5:	0000c0        	callx0	a0
  f8:	ffc221        	l32r	a2, 0 <at_setupCmdCipsend-0xc4>	f8: R_XTENSA_SLOT0_OP	.text.at_setupCmdCipsend
  fb:	000222        	l8ui	a2, a2, 0
  fe:	121266        	bnei	a2, 1, 114 <at_setupCmdCipsend+0x50>	fe: R_XTENSA_SLOT0_OP	.text.at_setupCmdCipsend+0x114
 101:	ffc021        	l32r	a2, 4 <at_setupCmdCipsend-0xc0>	101: R_XTENSA_SLOT0_OP	.text.at_setupCmdCipsend+0x4
 104:	ffdd01        	l32r	a0, 78 <at_setupCmdCipsend-0x4c>	104: R_XTENSA_SLOT0_OP	.text.at_setupCmdCipsend+0x78
	104: R_XTENSA_ASM_EXPAND	at_port_print
 107:	0000c0        	callx0	a0
 10a:	ffdc01        	l32r	a0, 7c <at_setupCmdCipsend-0x48>	10a: R_XTENSA_SLOT0_OP	.text.at_setupCmdCipsend+0x7c
	10a: R_XTENSA_ASM_EXPAND	at_response_error
 10d:	0000c0        	callx0	a0
 110:	00cd06        	j	448 <at_setupCmdCipsend+0x384>	110: R_XTENSA_SLOT0_OP	.text.at_setupCmdCipsend+0x448
 113:	00          	.byte 00
 114:	2c2122        	l32i	a2, a1, 176
 117:	321b      	addi.n	a3, a2, 1
 119:	2c6132        	s32i	a3, a1, 176
 11c:	000232        	l8ui	a3, a2, 0
 11f:	d23c      	movi.n	a2, 61
 121:	e59327        	bne	a3, a2, 10a <at_setupCmdCipsend+0x46>	121: R_XTENSA_SLOT0_OP	.text.at_setupCmdCipsend+0x10a
 124:	ffb921        	l32r	a2, 8 <at_setupCmdCipsend-0xbc>	124: R_XTENSA_SLOT0_OP	.text.at_setupCmdCipsend+0x8
 127:	000222        	l8ui	a2, a2, 0
 12a:	b2bc      	beqz.n	a2, 169 <at_setupCmdCipsend+0xa5>	12a: R_XTENSA_SLOT0_OP	.text.at_setupCmdCipsend+0x169
 12c:	9ca042        	movi	a4, 156
 12f:	a4a032        	movi	a3, 164
 132:	b0a022        	movi	a2, 176
 135:	313a      	add.n	a3, a1, a3
 137:	414a      	add.n	a4, a1, a4
 139:	212a      	add.n	a2, a1, a2
 13b:	ffd101        	l32r	a0, 80 <at_setupCmdCipsend-0x44>	13b: R_XTENSA_SLOT0_OP	.text.at_setupCmdCipsend+0x80
	13b: R_XTENSA_ASM_EXPAND	at_get_next_int_dec
 13e:	0000c0        	callx0	a0
 141:	272132        	l32i	a3, a1, 156
 144:	c213e6        	bgei	a3, 1, 10a <at_setupCmdCipsend+0x46>	144: R_XTENSA_SLOT0_OP	.text.at_setupCmdCipsend+0x10a
 147:	ffb131        	l32r	a3, c <at_setupCmdCipsend-0xb8>	147: R_XTENSA_SLOT0_OP	.text.at_setupCmdCipsend+0xc
 14a:	292142        	l32i	a4, a1, 164
 14d:	000332        	l8ui	a3, a3, 0
 150:	b6a437        	bge	a4, a3, 10a <at_setupCmdCipsend+0x46>	150: R_XTENSA_SLOT0_OP	.text.at_setupCmdCipsend+0x10a
 153:	fb3216        	beqz	a2, 10a <at_setupCmdCipsend+0x46>	153: R_XTENSA_SLOT0_OP	.text.at_setupCmdCipsend+0x10a
 156:	2c2122        	l32i	a2, a1, 176
 159:	321b      	addi.n	a3, a2, 1
 15b:	2c6132        	s32i	a3, a1, 176
 15e:	000232        	l8ui	a3, a2, 0
 161:	c22c      	movi.n	a2, 44
 163:	a39327        	bne	a3, a2, 10a <at_setupCmdCipsend+0x46>	163: R_XTENSA_SLOT0_OP	.text.at_setupCmdCipsend+0x10a
 166:	000106        	j	16e <at_setupCmdCipsend+0xaa>	166: R_XTENSA_SLOT0_OP	.text.at_setupCmdCipsend+0x16e
 169:	020c      	movi.n	a2, 0
 16b:	296122        	s32i	a2, a1, 164
 16e:	292132        	l32i	a3, a1, 164
 171:	ffa7c1        	l32r	a12, 10 <at_setupCmdCipsend-0xb4>	171: R_XTENSA_SLOT0_OP	.text.at_setupCmdCipsend+0x10
 174:	b02330        	addx8	a2, a3, a3
 177:	902230        	addx2	a2, a2, a3
 17a:	0c38      	l32i.n	a3, a12, 0
 17c:	a02230        	addx4	a2, a2, a3
 17f:	000232        	l8ui	a3, a2, 0
 182:	63cc      	bnez.n	a3, 18c <at_setupCmdCipsend+0xc8>	182: R_XTENSA_SLOT0_OP	.text.at_setupCmdCipsend+0x18c
 184:	ffa421        	l32r	a2, 14 <at_setupCmdCipsend-0xb0>	184: R_XTENSA_SLOT0_OP	.text.at_setupCmdCipsend+0x14
 187:	ffde46        	j	104 <at_setupCmdCipsend+0x40>	187: R_XTENSA_SLOT0_OP	.text.at_setupCmdCipsend+0x104
 18a:	00          	.byte 00
 18b:	00          	.byte 00
 18c:	ffa3e1        	l32r	a14, 18 <at_setupCmdCipsend-0xac>	18c: R_XTENSA_SLOT0_OP	.text.at_setupCmdCipsend+0x18
 18f:	080232        	l8ui	a3, a2, 8
 192:	000e22        	l8ui	a2, a14, 0
 195:	012280        	slli	a2, a2, 24
 198:	312820        	srai	a2, a2, 24
 19b:	051237        	beq	a2, a3, 1a4 <at_setupCmdCipsend+0xe0>	19b: R_XTENSA_SLOT0_OP	.text.at_setupCmdCipsend+0x1a4
 19e:	ff9f21        	l32r	a2, 1c <at_setupCmdCipsend-0xa8>	19e: R_XTENSA_SLOT0_OP	.text.at_setupCmdCipsend+0x1c
 1a1:	f5f356        	bnez	a3, 104 <at_setupCmdCipsend+0x40>	1a1: R_XTENSA_SLOT0_OP	.text.at_setupCmdCipsend+0x104
 1a4:	9ca042        	movi	a4, 156
 1a7:	a0a032        	movi	a3, 160
 1aa:	b0a022        	movi	a2, 176
 1ad:	313a      	add.n	a3, a1, a3
 1af:	414a      	add.n	a4, a1, a4
 1b1:	212a      	add.n	a2, a1, a2
 1b3:	ffb401        	l32r	a0, 84 <at_setupCmdCipsend-0x40>	1b3: R_XTENSA_SLOT0_OP	.text.at_setupCmdCipsend+0x84
	1b3: R_XTENSA_ASM_EXPAND	at_get_next_int_dec
 1b6:	0000c0        	callx0	a0
 1b9:	282122        	l32i	a2, a1, 160
 1bc:	ff9931        	l32r	a3, 20 <at_setupCmdCipsend-0xa4>	1bc: R_XTENSA_SLOT0_OP	.text.at_setupCmdCipsend+0x20
 1bf:	05a327        	bge	a3, a2, 1c8 <at_setupCmdCipsend+0x104>	1bf: R_XTENSA_SLOT0_OP	.text.at_setupCmdCipsend+0x1c8
