
output/libc/lib_a-strerror.o:     file format elf32-xtensa-le


Disassembly of section .literal:

00000000 <.literal>:
   0:	00 00 00 00 		0: R_XTENSA_32	.rodata.str1.1
   4:	08 00 00 00 		4: R_XTENSA_32	.rodata.str1.1
   8:	12 00 00 00 		8: R_XTENSA_32	.rodata.str1.1
   c:	2c 00 00 00 		c: R_XTENSA_32	.rodata.str1.1
  10:	3c 00 00 00 		10: R_XTENSA_32	.rodata.str1.1
  14:	54 00 00 00 		14: R_XTENSA_32	.rodata.str1.1
  18:	5e 00 00 00 		18: R_XTENSA_32	.rodata.str1.1
  1c:	78 00 00 00 		1c: R_XTENSA_32	.rodata.str1.1
  20:	8a 00 00 00 		20: R_XTENSA_32	.rodata.str1.1
  24:	9c 00 00 00 		24: R_XTENSA_32	.rodata.str1.1
  28:	b5 00 00 00 		28: R_XTENSA_32	.rodata.str1.1
  2c:	c5 00 00 00 		2c: R_XTENSA_32	.rodata.str1.1
  30:	d1 00 00 00 		30: R_XTENSA_32	.rodata.str1.1
  34:	ee 00 00 00 		34: R_XTENSA_32	.rodata.str1.1
  38:	00 01 00 00 		38: R_XTENSA_32	.rodata.str1.1
  3c:	11 01 00 00 		3c: R_XTENSA_32	.rodata.str1.1
  40:	23 01 00 00 		40: R_XTENSA_32	.rodata.str1.1
  44:	2f 01 00 00 		44: R_XTENSA_32	.rodata.str1.1
  48:	47 01 00 00 		48: R_XTENSA_32	.rodata.str1.1
  4c:	53 01 00 00 		4c: R_XTENSA_32	.rodata.str1.1
  50:	65 01 00 00 		50: R_XTENSA_32	.rodata.str1.1
  54:	74 01 00 00 		54: R_XTENSA_32	.rodata.str1.1
  58:	84 01 00 00 		58: R_XTENSA_32	.rodata.str1.1
  5c:	91 01 00 00 		5c: R_XTENSA_32	.rodata.str1.1
  60:	b0 01 00 00 		60: R_XTENSA_32	.rodata.str1.1
  64:	bf 01 00 00 		64: R_XTENSA_32	.rodata.str1.1
  68:	d0 01 00 00 		68: R_XTENSA_32	.rodata.str1.1
  6c:	f4 01 00 00 		6c: R_XTENSA_32	.rodata.str1.1
  70:	12 02 00 00 		70: R_XTENSA_32	.rodata.str1.1
  74:	26 02 00 00 		74: R_XTENSA_32	.rodata.str1.1
  78:	3d 02 00 00 		78: R_XTENSA_32	.rodata.str1.1
  7c:	4c 02 00 00 		7c: R_XTENSA_32	.rodata.str1.1
  80:	5b 02 00 00 		80: R_XTENSA_32	.rodata.str1.1
  84:	6f 02 00 00 		84: R_XTENSA_32	.rodata.str1.1
  88:	87 02 00 00 		88: R_XTENSA_32	.rodata.str1.1
  8c:	95 02 00 00 		8c: R_XTENSA_32	.rodata.str1.1
  90:	a2 02 00 00 		90: R_XTENSA_32	.rodata.str1.1
  94:	b8 02 00 00 		94: R_XTENSA_32	.rodata.str1.1
  98:	c7 02 00 00 		98: R_XTENSA_32	.rodata.str1.1
  9c:	d3 02 00 00 		9c: R_XTENSA_32	.rodata.str1.1
  a0:	e1 02 00 00 		a0: R_XTENSA_32	.rodata.str1.1
  a4:	f2 02 00 00 		a4: R_XTENSA_32	.rodata.str1.1
  a8:	0d 03 00 00 		a8: R_XTENSA_32	.rodata.str1.1
  ac:	20 03 00 00 		ac: R_XTENSA_32	.rodata.str1.1
  b0:	29 03 00 00 		b0: R_XTENSA_32	.rodata.str1.1
  b4:	40 03 00 00 		b4: R_XTENSA_32	.rodata.str1.1
  b8:	48 03 00 00 		b8: R_XTENSA_32	.rodata.str1.1
  bc:	55 03 00 00 		bc: R_XTENSA_32	.rodata.str1.1
  c0:	6a 03 00 00 		c0: R_XTENSA_32	.rodata.str1.1
  c4:	7e 03 00 00 		c4: R_XTENSA_32	.rodata.str1.1
  c8:	96 03 00 00 		c8: R_XTENSA_32	.rodata.str1.1
  cc:	a5 03 00 00 		cc: R_XTENSA_32	.rodata.str1.1
  d0:	b6 03 00 00 		d0: R_XTENSA_32	.rodata.str1.1
  d4:	c9 03 00 00 		d4: R_XTENSA_32	.rodata.str1.1
  d8:	d5 03 00 00 		d8: R_XTENSA_32	.rodata.str1.1
  dc:	ee 03 00 00 		dc: R_XTENSA_32	.rodata.str1.1
  e0:	02 04 00 00 		e0: R_XTENSA_32	.rodata.str1.1
  e4:	1d 04 00 00 		e4: R_XTENSA_32	.rodata.str1.1
  e8:	35 04 00 00 		e8: R_XTENSA_32	.rodata.str1.1
  ec:	4f 04 00 00 		ec: R_XTENSA_32	.rodata.str1.1
  f0:	7f 04 00 00 		f0: R_XTENSA_32	.rodata.str1.1
  f4:	9e 04 00 00 		f4: R_XTENSA_32	.rodata.str1.1
  f8:	bd 04 00 00 		f8: R_XTENSA_32	.rodata.str1.1
  fc:	d4 04 00 00 		fc: R_XTENSA_32	.rodata.str1.1
 100:	e7 04 00 00 		100: R_XTENSA_32	.rodata.str1.1
 104:	fe 04 00 00 		104: R_XTENSA_32	.rodata.str1.1
 108:	1f 05 00 00 		108: R_XTENSA_32	.rodata.str1.1
 10c:	37 05 00 00 		10c: R_XTENSA_32	.rodata.str1.1
 110:	53 05 00 00 		110: R_XTENSA_32	.rodata.str1.1
 114:	66 05 00 00 		114: R_XTENSA_32	.rodata.str1.1
 118:	7c 05 00 00 		118: R_XTENSA_32	.rodata.str1.1
 11c:	90 05 00 00 		11c: R_XTENSA_32	.rodata.str1.1
 120:	b2 05 00 00 		120: R_XTENSA_32	.rodata.str1.1
 124:	c3 05 00 00 		124: R_XTENSA_32	.rodata.str1.1
 128:	d8 05 00 00 		128: R_XTENSA_32	.rodata.str1.1
	...
	12c: R_XTENSA_32	_user_strerror
	130: R_XTENSA_32	_impure_ptr

Disassembly of section .text:

00000000 <_strerror_r>:
   0:	f0c112        	addi	a1, a1, -16
   3:	028d      	mov.n	a8, a2
   5:	3109      	s32i.n	a0, a1, 12
   7:	d22c      	movi.n	a2, 45
   9:	029327        	bne	a3, a2, f <_strerror_r+0xf>	9: R_XTENSA_SLOT0_OP	.text+0xf
   c:	00d206        	j	358 <_strerror_r+0x358>	c: R_XTENSA_SLOT0_OP	.text+0x358
   f:	02a237        	bge	a2, a3, 15 <_strerror_r+0x15>	f: R_XTENSA_SLOT0_OP	.text+0x15
  12:	0056c6        	j	171 <_strerror_r+0x171>	12: R_XTENSA_SLOT0_OP	.text+0x171
  15:	221c      	movi.n	a2, 18
  17:	029327        	bne	a3, a2, 1d <_strerror_r+0x1d>	17: R_XTENSA_SLOT0_OP	.text+0x1d
  1a:	00c286        	j	328 <_strerror_r+0x328>	1a: R_XTENSA_SLOT0_OP	.text+0x328
  1d:	02a237        	bge	a2, a3, 23 <_strerror_r+0x23>	1d: R_XTENSA_SLOT0_OP	.text+0x23
  20:	002806        	j	c4 <_strerror_r+0xc4>	20: R_XTENSA_SLOT0_OP	.text+0xc4
  23:	028366        	bnei	a3, 8, 29 <_strerror_r+0x29>	23: R_XTENSA_SLOT0_OP	.text+0x29
  26:	00b886        	j	30c <_strerror_r+0x30c>	26: R_XTENSA_SLOT0_OP	.text+0x30c
  29:	820c      	movi.n	a2, 8
  2b:	4d2237        	blt	a2, a3, 7c <_strerror_r+0x7c>	2b: R_XTENSA_SLOT0_OP	.text+0x7c
  2e:	023366        	bnei	a3, 3, 34 <_strerror_r+0x34>	2e: R_XTENSA_SLOT0_OP	.text+0x34
  31:	00b406        	j	305 <_strerror_r+0x305>	31: R_XTENSA_SLOT0_OP	.text+0x305
  34:	1c43e6        	bgei	a3, 4, 54 <_strerror_r+0x54>	34: R_XTENSA_SLOT0_OP	.text+0x54
  37:	000061        	l32r	a6, fffc0038 <strerror+0xfffbfc90>	37: R_XTENSA_SLOT0_OP	.literal+0x4
  3a:	021366        	bnei	a3, 1, 40 <_strerror_r+0x40>	3a: R_XTENSA_SLOT0_OP	.text+0x40
  3d:	00d786        	j	39f <_strerror_r+0x39f>	3d: R_XTENSA_SLOT0_OP	.text+0x39f
  40:	000061        	l32r	a6, fffc0040 <strerror+0xfffbfc98>	40: R_XTENSA_SLOT0_OP	.literal+0x8
  43:	0223a6        	blti	a3, 2, 49 <_strerror_r+0x49>	43: R_XTENSA_SLOT0_OP	.text+0x49
  46:	00d546        	j	39f <_strerror_r+0x39f>	46: R_XTENSA_SLOT0_OP	.text+0x39f
  49:	000061        	l32r	a6, fffc004c <strerror+0xfffbfca4>	49: R_XTENSA_SLOT0_OP	.literal
  4c:	34f316        	beqz	a3, 39f <_strerror_r+0x39f>	4c: R_XTENSA_SLOT0_OP	.text+0x39f
  4f:	00cdc6        	j	38a <_strerror_r+0x38a>	4f: R_XTENSA_SLOT0_OP	.text+0x38a
  52:	00          	.byte 00
  53:	00          	.byte 00
  54:	000061        	l32r	a6, fffc0054 <strerror+0xfffbfcac>	54: R_XTENSA_SLOT0_OP	.literal+0x14
  57:	025366        	bnei	a3, 5, 5d <_strerror_r+0x5d>	57: R_XTENSA_SLOT0_OP	.text+0x5d
  5a:	00d046        	j	39f <_strerror_r+0x39f>	5a: R_XTENSA_SLOT0_OP	.text+0x39f
  5d:	000061        	l32r	a6, fffc0060 <strerror+0xfffbfcb8>	5d: R_XTENSA_SLOT0_OP	.literal+0x10
  60:	0253e6        	bgei	a3, 5, 66 <_strerror_r+0x66>	60: R_XTENSA_SLOT0_OP	.text+0x66
  63:	00ce06        	j	39f <_strerror_r+0x39f>	63: R_XTENSA_SLOT0_OP	.text+0x39f
  66:	000061        	l32r	a6, fffc0068 <strerror+0xfffbfcc0>	66: R_XTENSA_SLOT0_OP	.literal+0x18
  69:	026366        	bnei	a3, 6, 6f <_strerror_r+0x6f>	69: R_XTENSA_SLOT0_OP	.text+0x6f
  6c:	00cbc6        	j	39f <_strerror_r+0x39f>	6c: R_XTENSA_SLOT0_OP	.text+0x39f
  6f:	000061        	l32r	a6, fffc0070 <strerror+0xfffbfcc8>	6f: R_XTENSA_SLOT0_OP	.literal+0x1c
  72:	027366        	bnei	a3, 7, 78 <_strerror_r+0x78>	72: R_XTENSA_SLOT0_OP	.text+0x78
  75:	00c986        	j	39f <_strerror_r+0x39f>	75: R_XTENSA_SLOT0_OP	.text+0x39f
  78:	00c386        	j	38a <_strerror_r+0x38a>	78: R_XTENSA_SLOT0_OP	.text+0x38a
  7b:	00          	.byte 00
  7c:	02a366        	bnei	a3, 12, 82 <_strerror_r+0x82>	7c: R_XTENSA_SLOT0_OP	.text+0x82
  7f:	00a7c6        	j	322 <_strerror_r+0x322>	7f: R_XTENSA_SLOT0_OP	.text+0x322
  82:	c20c      	movi.n	a2, 12
  84:	162237        	blt	a2, a3, 9e <_strerror_r+0x9e>	84: R_XTENSA_SLOT0_OP	.text+0x9e
  87:	000061        	l32r	a6, fffc0088 <strerror+0xfffbfce0>	87: R_XTENSA_SLOT0_OP	.literal+0x2c
  8a:	029366        	bnei	a3, 10, 90 <_strerror_r+0x90>	8a: R_XTENSA_SLOT0_OP	.text+0x90
  8d:	00c386        	j	39f <_strerror_r+0x39f>	8d: R_XTENSA_SLOT0_OP	.text+0x39f
  90:	a20c      	movi.n	a2, 10
  92:	000061        	l32r	a6, fffc0094 <strerror+0xfffbfcec>	92: R_XTENSA_SLOT0_OP	.literal+0x34
  95:	022237        	blt	a2, a3, 9b <_strerror_r+0x9b>	95: R_XTENSA_SLOT0_OP	.text+0x9b
  98:	00a006        	j	31c <_strerror_r+0x31c>	98: R_XTENSA_SLOT0_OP	.text+0x31c
  9b:	00c006        	j	39f <_strerror_r+0x39f>	9b: R_XTENSA_SLOT0_OP	.text+0x39f
  9e:	e20c      	movi.n	a2, 14
  a0:	000061        	l32r	a6, fffc00a0 <strerror+0xfffbfcf8>	a0: R_XTENSA_SLOT0_OP	.literal+0x40
  a3:	029327        	bne	a3, a2, a9 <_strerror_r+0xa9>	a3: R_XTENSA_SLOT0_OP	.text+0xa9
  a6:	00bd46        	j	39f <_strerror_r+0x39f>	a6: R_XTENSA_SLOT0_OP	.text+0x39f
  a9:	000061        	l32r	a6, fffc00ac <strerror+0xfffbfd04>	a9: R_XTENSA_SLOT0_OP	.literal+0x3c
  ac:	02a327        	bge	a3, a2, b2 <_strerror_r+0xb2>	ac: R_XTENSA_SLOT0_OP	.text+0xb2
  af:	00bb06        	j	39f <_strerror_r+0x39f>	af: R_XTENSA_SLOT0_OP	.text+0x39f
  b2:	000061        	l32r	a6, fffc00b4 <strerror+0xfffbfd0c>	b2: R_XTENSA_SLOT0_OP	.literal+0x44
  b5:	02b366        	bnei	a3, 16, bb <_strerror_r+0xbb>	b5: R_XTENSA_SLOT0_OP	.text+0xbb
  b8:	00b8c6        	j	39f <_strerror_r+0x39f>	b8: R_XTENSA_SLOT0_OP	.text+0x39f
  bb:	000061        	l32r	a6, fffc00bc <strerror+0xfffbfd14>	bb: R_XTENSA_SLOT0_OP	.literal+0x48
  be:	121c      	movi.n	a2, 17
  c0:	003b46        	j	1b1 <_strerror_r+0x1b1>	c0: R_XTENSA_SLOT0_OP	.text+0x1b1
  c3:	00          	.byte 00
  c4:	b21c      	movi.n	a2, 27
  c6:	029327        	bne	a3, a2, cc <_strerror_r+0xcc>	c6: R_XTENSA_SLOT0_OP	.text+0xcc
  c9:	009ec6        	j	348 <_strerror_r+0x348>	c9: R_XTENSA_SLOT0_OP	.text+0x348
  cc:	482237        	blt	a2, a3, 118 <_strerror_r+0x118>	cc: R_XTENSA_SLOT0_OP	.text+0x118
  cf:	621c      	movi.n	a2, 22
  d1:	029327        	bne	a3, a2, d7 <_strerror_r+0xd7>	d1: R_XTENSA_SLOT0_OP	.text+0xd7
  d4:	009806        	j	338 <_strerror_r+0x338>	d4: R_XTENSA_SLOT0_OP	.text+0x338
  d7:	162237        	blt	a2, a3, f1 <_strerror_r+0xf1>	d7: R_XTENSA_SLOT0_OP	.text+0xf1
  da:	421c      	movi.n	a2, 20
  dc:	000061        	l32r	a6, fffc00dc <strerror+0xfffbfd34>	dc: R_XTENSA_SLOT0_OP	.literal+0x54
  df:	029327        	bne	a3, a2, e5 <_strerror_r+0xe5>	df: R_XTENSA_SLOT0_OP	.text+0xe5
  e2:	00ae46        	j	39f <_strerror_r+0x39f>	e2: R_XTENSA_SLOT0_OP	.text+0x39f
  e5:	000061        	l32r	a6, fffc00e8 <strerror+0xfffbfd40>	e5: R_XTENSA_SLOT0_OP	.literal+0x60
  e8:	022237        	blt	a2, a3, ee <_strerror_r+0xee>	e8: R_XTENSA_SLOT0_OP	.text+0xee
  eb:	009046        	j	330 <_strerror_r+0x330>	eb: R_XTENSA_SLOT0_OP	.text+0x330
  ee:	00ab46        	j	39f <_strerror_r+0x39f>	ee: R_XTENSA_SLOT0_OP	.text+0x39f
  f1:	821c      	movi.n	a2, 24
  f3:	000061        	l32r	a6, fffc00f4 <strerror+0xfffbfd4c>	f3: R_XTENSA_SLOT0_OP	.literal+0x70
  f6:	029327        	bne	a3, a2, fc <_strerror_r+0xfc>	f6: R_XTENSA_SLOT0_OP	.text+0xfc
  f9:	00a886        	j	39f <_strerror_r+0x39f>	f9: R_XTENSA_SLOT0_OP	.text+0x39f
  fc:	000061        	l32r	a6, fffc00fc <strerror+0xfffbfd54>	fc: R_XTENSA_SLOT0_OP	.literal+0x6c
  ff:	02a327        	bge	a3, a2, 105 <_strerror_r+0x105>	ff: R_XTENSA_SLOT0_OP	.text+0x105
 102:	00a646        	j	39f <_strerror_r+0x39f>	102: R_XTENSA_SLOT0_OP	.text+0x39f
 105:	921c      	movi.n	a2, 25
 107:	000061        	l32r	a6, fffc0108 <strerror+0xfffbfd60>	107: R_XTENSA_SLOT0_OP	.literal+0x74
 10a:	029327        	bne	a3, a2, 110 <_strerror_r+0x110>	10a: R_XTENSA_SLOT0_OP	.text+0x110
 10d:	00a386        	j	39f <_strerror_r+0x39f>	10d: R_XTENSA_SLOT0_OP	.text+0x39f
 110:	000061        	l32r	a6, fffc0110 <strerror+0xfffbfd68>	110: R_XTENSA_SLOT0_OP	.literal+0x78
 113:	a21c      	movi.n	a2, 26
 115:	002606        	j	1b1 <_strerror_r+0x1b1>	115: R_XTENSA_SLOT0_OP	.text+0x1b1
 118:	02c366        	bnei	a3, 32, 11e <_strerror_r+0x11e>	118: R_XTENSA_SLOT0_OP	.text+0x11e
 11b:	008c46        	j	350 <_strerror_r+0x350>	11b: R_XTENSA_SLOT0_OP	.text+0x350
 11e:	022c      	movi.n	a2, 32
 120:	262237        	blt	a2, a3, 14a <_strerror_r+0x14a>	120: R_XTENSA_SLOT0_OP	.text+0x14a
 123:	d21c      	movi.n	a2, 29
 125:	000061        	l32r	a6, fffc0128 <strerror+0xfffbfd80>	125: R_XTENSA_SLOT0_OP	.literal+0x8c
 128:	029327        	bne	a3, a2, 12e <_strerror_r+0x12e>	128: R_XTENSA_SLOT0_OP	.text+0x12e
 12b:	009c06        	j	39f <_strerror_r+0x39f>	12b: R_XTENSA_SLOT0_OP	.text+0x39f
 12e:	000061        	l32r	a6, fffc0130 <strerror+0xfffbfd88>	12e: R_XTENSA_SLOT0_OP	.literal+0x84
 131:	02a327        	bge	a3, a2, 137 <_strerror_r+0x137>	131: R_XTENSA_SLOT0_OP	.text+0x137
 134:	0099c6        	j	39f <_strerror_r+0x39f>	134: R_XTENSA_SLOT0_OP	.text+0x39f
 137:	e21c      	movi.n	a2, 30
 139:	000061        	l32r	a6, fffc013c <strerror+0xfffbfd94>	139: R_XTENSA_SLOT0_OP	.literal+0x90
 13c:	029327        	bne	a3, a2, 142 <_strerror_r+0x142>	13c: R_XTENSA_SLOT0_OP	.text+0x142
 13f:	009706        	j	39f <_strerror_r+0x39f>	13f: R_XTENSA_SLOT0_OP	.text+0x39f
 142:	000061        	l32r	a6, fffc0144 <strerror+0xfffbfd9c>	142: R_XTENSA_SLOT0_OP	.literal+0x94
 145:	f21c      	movi.n	a2, 31
 147:	001986        	j	1b1 <_strerror_r+0x1b1>	147: R_XTENSA_SLOT0_OP	.text+0x1b1
 14a:	222c      	movi.n	a2, 34
 14c:	000061        	l32r	a6, fffc014c <strerror+0xfffbfda4>	14c: R_XTENSA_SLOT0_OP	.literal+0xa0
 14f:	029327        	bne	a3, a2, 155 <_strerror_r+0x155>	14f: R_XTENSA_SLOT0_OP	.text+0x155
 152:	009246        	j	39f <_strerror_r+0x39f>	152: R_XTENSA_SLOT0_OP	.text+0x39f
 155:	000061        	l32r	a6, fffc0158 <strerror+0xfffbfdb0>	155: R_XTENSA_SLOT0_OP	.literal+0x9c
 158:	02a327        	bge	a3, a2, 15e <_strerror_r+0x15e>	158: R_XTENSA_SLOT0_OP	.text+0x15e
 15b:	009006        	j	39f <_strerror_r+0x39f>	15b: R_XTENSA_SLOT0_OP	.text+0x39f
 15e:	322c      	movi.n	a2, 35
 160:	000061        	l32r	a6, fffc0160 <strerror+0xfffbfdb8>	160: R_XTENSA_SLOT0_OP	.literal+0xa4
 163:	029327        	bne	a3, a2, 169 <_strerror_r+0x169>	163: R_XTENSA_SLOT0_OP	.text+0x169
 166:	008d46        	j	39f <_strerror_r+0x39f>	166: R_XTENSA_SLOT0_OP	.text+0x39f
 169:	000061        	l32r	a6, fffc016c <strerror+0xfffbfdc4>	169: R_XTENSA_SLOT0_OP	.literal+0xa8
 16c:	422c      	movi.n	a2, 36
 16e:	000fc6        	j	1b1 <_strerror_r+0x1b1>	16e: R_XTENSA_SLOT0_OP	.text+0x1b1
 171:	6fa022        	movi	a2, 111
 174:	029327        	bne	a3, a2, 17a <_strerror_r+0x17a>	174: R_XTENSA_SLOT0_OP	.text+0x17a
 177:	007ec6        	j	376 <_strerror_r+0x376>	177: R_XTENSA_SLOT0_OP	.text+0x376
 17a:	02a237        	bge	a2, a3, 180 <_strerror_r+0x180>	17a: R_XTENSA_SLOT0_OP	.text+0x180
 17d:	0030c6        	j	244 <_strerror_r+0x244>	17d: R_XTENSA_SLOT0_OP	.text+0x244
 180:	825c      	movi.n	a2, 88
 182:	029327        	bne	a3, a2, 188 <_strerror_r+0x188>	182: R_XTENSA_SLOT0_OP	.text+0x188
 185:	0077c6        	j	368 <_strerror_r+0x368>	185: R_XTENSA_SLOT0_OP	.text+0x368
 188:	572237        	blt	a2, a3, 1e3 <_strerror_r+0x1e3>	188: R_XTENSA_SLOT0_OP	.text+0x1e3
 18b:	f23c      	movi.n	a2, 63
 18d:	029327        	bne	a3, a2, 193 <_strerror_r+0x193>	18d: R_XTENSA_SLOT0_OP	.text+0x193
 190:	007306        	j	360 <_strerror_r+0x360>	190: R_XTENSA_SLOT0_OP	.text+0x360
 193:	232237        	blt	a2, a3, 1ba <_strerror_r+0x1ba>	193: R_XTENSA_SLOT0_OP	.text+0x1ba
 196:	c23c      	movi.n	a2, 60
 198:	000061        	l32r	a6, fffc0198 <strerror+0xfffbfdf0>	198: R_XTENSA_SLOT0_OP	.literal+0xb8
 19b:	029327        	bne	a3, a2, 1a1 <_strerror_r+0x1a1>	19b: R_XTENSA_SLOT0_OP	.text+0x1a1
 19e:	007f46        	j	39f <_strerror_r+0x39f>	19e: R_XTENSA_SLOT0_OP	.text+0x39f
 1a1:	e23c      	movi.n	a2, 62
 1a3:	000061        	l32r	a6, fffc01a4 <strerror+0xfffbfdfc>	1a3: R_XTENSA_SLOT0_OP	.literal+0xbc
 1a6:	029327        	bne	a3, a2, 1ac <_strerror_r+0x1ac>	1a6: R_XTENSA_SLOT0_OP	.text+0x1ac
 1a9:	007c86        	j	39f <_strerror_r+0x39f>	1a9: R_XTENSA_SLOT0_OP	.text+0x39f
 1ac:	000061        	l32r	a6, fffc01ac <strerror+0xfffbfe04>	1ac: R_XTENSA_SLOT0_OP	.literal+0xb4
 1af:	e22c      	movi.n	a2, 46
 1b1:	021327        	beq	a3, a2, 1b7 <_strerror_r+0x1b7>	1b1: R_XTENSA_SLOT0_OP	.text+0x1b7
 1b4:	007486        	j	38a <_strerror_r+0x38a>	1b4: R_XTENSA_SLOT0_OP	.text+0x38a
 1b7:	007906        	j	39f <_strerror_r+0x39f>	1b7: R_XTENSA_SLOT0_OP	.text+0x39f
 1ba:	724c      	movi.n	a2, 71
 1bc:	000061        	l32r	a6, fffc01bc <strerror+0xfffbfe14>	1bc: R_XTENSA_SLOT0_OP	.literal+0xc8
 1bf:	029327        	bne	a3, a2, 1c5 <_strerror_r+0x1c5>	1bf: R_XTENSA_SLOT0_OP	.text+0x1c5
 1c2:	007646        	j	39f <_strerror_r+0x39f>	1c2: R_XTENSA_SLOT0_OP	.text+0x39f
 1c5:	072237        	blt	a2, a3, 1d0 <_strerror_r+0x1d0>	1c5: R_XTENSA_SLOT0_OP	.text+0x1d0
 1c8:	000061        	l32r	a6, fffc01c8 <strerror+0xfffbfe20>	1c8: R_XTENSA_SLOT0_OP	.literal+0xc4
 1cb:	324c      	movi.n	a2, 67
 1cd:	fff806        	j	1b1 <_strerror_r+0x1b1>	1cd: R_XTENSA_SLOT0_OP	.text+0x1b1
 1d0:	a24c      	movi.n	a2, 74
 1d2:	000061        	l32r	a6, fffc01d4 <strerror+0xfffbfe2c>	1d2: R_XTENSA_SLOT0_OP	.literal+0xd0
 1d5:	029327        	bne	a3, a2, 1db <_strerror_r+0x1db>	1d5: R_XTENSA_SLOT0_OP	.text+0x1db
 1d8:	0070c6        	j	39f <_strerror_r+0x39f>	1d8: R_XTENSA_SLOT0_OP	.text+0x39f
 1db:	000061        	l32r	a6, fffc01dc <strerror+0xfffbfe34>	1db: R_XTENSA_SLOT0_OP	.literal+0xd4
 1de:	d24c      	movi.n	a2, 77
 1e0:	fff346        	j	1b1 <_strerror_r+0x1b1>	1e0: R_XTENSA_SLOT0_OP	.text+0x1b1
 1e3:	69a022        	movi	a2, 105
 1e6:	029327        	bne	a3, a2, 1ec <_strerror_r+0x1ec>	1e6: R_XTENSA_SLOT0_OP	.text+0x1ec
 1e9:	0060c6        	j	370 <_strerror_r+0x370>	1e9: R_XTENSA_SLOT0_OP	.text+0x370
 1ec:	282237        	blt	a2, a3, 218 <_strerror_r+0x218>	1ec: R_XTENSA_SLOT0_OP	.text+0x218
 1ef:	b25c      	movi.n	a2, 91
 1f1:	000061        	l32r	a6, fffc01f4 <strerror+0xfffbfe4c>	1f1: R_XTENSA_SLOT0_OP	.literal+0xe0
 1f4:	029327        	bne	a3, a2, 1fa <_strerror_r+0x1fa>	1f4: R_XTENSA_SLOT0_OP	.text+0x1fa
 1f7:	006906        	j	39f <_strerror_r+0x39f>	1f7: R_XTENSA_SLOT0_OP	.text+0x39f
 1fa:	072237        	blt	a2, a3, 205 <_strerror_r+0x205>	1fa: R_XTENSA_SLOT0_OP	.text+0x205
 1fd:	000061        	l32r	a6, fffc0200 <strerror+0xfffbfe58>	1fd: R_XTENSA_SLOT0_OP	.literal+0xdc
 200:	a25c      	movi.n	a2, 90
 202:	ffeac6        	j	1b1 <_strerror_r+0x1b1>	202: R_XTENSA_SLOT0_OP	.text+0x1b1
 205:	c25c      	movi.n	a2, 92
 207:	000061        	l32r	a6, fffc0208 <strerror+0xfffbfe60>	207: R_XTENSA_SLOT0_OP	.literal+0xe4
 20a:	029327        	bne	a3, a2, 210 <_strerror_r+0x210>	20a: R_XTENSA_SLOT0_OP	.text+0x210
 20d:	006386        	j	39f <_strerror_r+0x39f>	20d: R_XTENSA_SLOT0_OP	.text+0x39f
 210:	000061        	l32r	a6, fffc0210 <strerror+0xfffbfe68>	210: R_XTENSA_SLOT0_OP	.literal+0x11c
 213:	f25c      	movi.n	a2, 95
 215:	ffe606        	j	1b1 <_strerror_r+0x1b1>	215: R_XTENSA_SLOT0_OP	.text+0x1b1
 218:	6ba072        	movi	a7, 107
 21b:	000061        	l32r	a6, fffc021c <strerror+0xfffbfe74>	21b: R_XTENSA_SLOT0_OP	.literal+0xf0
 21e:	029377        	bne	a3, a7, 224 <_strerror_r+0x224>	21e: R_XTENSA_SLOT0_OP	.text+0x224
 221:	005e86        	j	39f <_strerror_r+0x39f>	221: R_XTENSA_SLOT0_OP	.text+0x39f
 224:	000061        	l32r	a6, fffc0224 <strerror+0xfffbfe7c>	224: R_XTENSA_SLOT0_OP	.literal+0xec
 227:	02a377        	bge	a3, a7, 22d <_strerror_r+0x22d>	227: R_XTENSA_SLOT0_OP	.text+0x22d
 22a:	005c46        	j	39f <_strerror_r+0x39f>	22a: R_XTENSA_SLOT0_OP	.text+0x39f
 22d:	6ca022        	movi	a2, 108
 230:	000061        	l32r	a6, fffc0230 <strerror+0xfffbfe88>	230: R_XTENSA_SLOT0_OP	.literal+0xf4
 233:	029327        	bne	a3, a2, 239 <_strerror_r+0x239>	233: R_XTENSA_SLOT0_OP	.text+0x239
 236:	005946        	j	39f <_strerror_r+0x39f>	236: R_XTENSA_SLOT0_OP	.text+0x39f
 239:	000061        	l32r	a6, fffc023c <strerror+0xfffbfe94>	239: R_XTENSA_SLOT0_OP	.literal+0xf8
 23c:	6da022        	movi	a2, 109
 23f:	ffdb86        	j	1b1 <_strerror_r+0x1b1>	23f: R_XTENSA_SLOT0_OP	.text+0x1b1
 242:	00          	.byte 00
 243:	00          	.byte 00
 244:	78a062        	movi	a6, 120
 247:	029367        	bne	a3, a6, 24d <_strerror_r+0x24d>	247: R_XTENSA_SLOT0_OP	.text+0x24d
 24a:	003186        	j	314 <_strerror_r+0x314>	24a: R_XTENSA_SLOT0_OP	.text+0x314
 24d:	4f2637        	blt	a6, a3, 2a0 <_strerror_r+0x2a0>	24d: R_XTENSA_SLOT0_OP	.text+0x2a0
 250:	73a062        	movi	a6, 115
 253:	029367        	bne	a3, a6, 259 <_strerror_r+0x259>	253: R_XTENSA_SLOT0_OP	.text+0x259
 256:	003986        	j	340 <_strerror_r+0x340>	256: R_XTENSA_SLOT0_OP	.text+0x340
 259:	172637        	blt	a6, a3, 274 <_strerror_r+0x274>	259: R_XTENSA_SLOT0_OP	.text+0x274
 25c:	71a022        	movi	a2, 113
 25f:	000061        	l32r	a6, fffc0260 <strerror+0xfffbfeb8>	25f: R_XTENSA_SLOT0_OP	.literal+0x104
 262:	029327        	bne	a3, a2, 268 <_strerror_r+0x268>	262: R_XTENSA_SLOT0_OP	.text+0x268
 265:	004d86        	j	39f <_strerror_r+0x39f>	265: R_XTENSA_SLOT0_OP	.text+0x39f
 268:	000061        	l32r	a6, fffc0268 <strerror+0xfffbfec0>	268: R_XTENSA_SLOT0_OP	.literal+0xb0
 26b:	022237        	blt	a2, a3, 271 <_strerror_r+0x271>	26b: R_XTENSA_SLOT0_OP	.text+0x271
 26e:	004286        	j	37c <_strerror_r+0x37c>	26e: R_XTENSA_SLOT0_OP	.text+0x37c
 271:	004a86        	j	39f <_strerror_r+0x39f>	271: R_XTENSA_SLOT0_OP	.text+0x39f
 274:	75a072        	movi	a7, 117
 277:	000061        	l32r	a6, fffc0278 <strerror+0xfffbfed0>	277: R_XTENSA_SLOT0_OP	.literal+0x58
 27a:	029377        	bne	a3, a7, 280 <_strerror_r+0x280>	27a: R_XTENSA_SLOT0_OP	.text+0x280
 27d:	004786        	j	39f <_strerror_r+0x39f>	27d: R_XTENSA_SLOT0_OP	.text+0x39f
 280:	000061        	l32r	a6, fffc0280 <strerror+0xfffbfed8>	280: R_XTENSA_SLOT0_OP	.literal+0x124
 283:	02a377        	bge	a3, a7, 289 <_strerror_r+0x289>	283: R_XTENSA_SLOT0_OP	.text+0x289
 286:	004546        	j	39f <_strerror_r+0x39f>	286: R_XTENSA_SLOT0_OP	.text+0x39f
 289:	76a022        	movi	a2, 118
 28c:	000061        	l32r	a6, fffc028c <strerror+0xfffbfee4>	28c: R_XTENSA_SLOT0_OP	.literal+0x80
 28f:	029327        	bne	a3, a2, 295 <_strerror_r+0x295>	28f: R_XTENSA_SLOT0_OP	.text+0x295
 292:	004246        	j	39f <_strerror_r+0x39f>	292: R_XTENSA_SLOT0_OP	.text+0x39f
 295:	000061        	l32r	a6, fffc0298 <strerror+0xfffbfef0>	295: R_XTENSA_SLOT0_OP	.literal+0x5c
 298:	77a022        	movi	a2, 119
 29b:	ffc486        	j	1b1 <_strerror_r+0x1b1>	29b: R_XTENSA_SLOT0_OP	.text+0x1b1
 29e:	00          	.byte 00
 29f:	00          	.byte 00
 2a0:	02e366        	bnei	a3, 128, 2a6 <_strerror_r+0x2a6>	2a0: R_XTENSA_SLOT0_OP	.text+0x2a6
 2a3:	003746        	j	384 <_strerror_r+0x384>	2a3: R_XTENSA_SLOT0_OP	.text+0x384
 2a6:	80a022        	movi	a2, 128
 2a9:	2b2237        	blt	a2, a3, 2d8 <_strerror_r+0x2d8>	2a9: R_XTENSA_SLOT0_OP	.text+0x2d8
 2ac:	7aa072        	movi	a7, 122
 2af:	000061        	l32r	a6, fffc02b0 <strerror+0xfffbff08>	2af: R_XTENSA_SLOT0_OP	.literal+0x120
 2b2:	029377        	bne	a3, a7, 2b8 <_strerror_r+0x2b8>	2b2: R_XTENSA_SLOT0_OP	.text+0x2b8
 2b5:	003986        	j	39f <_strerror_r+0x39f>	2b5: R_XTENSA_SLOT0_OP	.text+0x39f
 2b8:	000061        	l32r	a6, fffc02b8 <strerror+0xfffbff10>	2b8: R_XTENSA_SLOT0_OP	.literal+0x30
 2bb:	02a377        	bge	a3, a7, 2c1 <_strerror_r+0x2c1>	2bb: R_XTENSA_SLOT0_OP	.text+0x2c1
 2be:	003746        	j	39f <_strerror_r+0x39f>	2be: R_XTENSA_SLOT0_OP	.text+0x39f
 2c1:	7ba022        	movi	a2, 123
 2c4:	000061        	l32r	a6, fffc02c4 <strerror+0xfffbff1c>	2c4: R_XTENSA_SLOT0_OP	.literal+0xcc
 2c7:	029327        	bne	a3, a2, 2cd <_strerror_r+0x2cd>	2c7: R_XTENSA_SLOT0_OP	.text+0x2cd
 2ca:	003446        	j	39f <_strerror_r+0x39f>	2ca: R_XTENSA_SLOT0_OP	.text+0x39f
 2cd:	000061        	l32r	a6, fffc02d0 <strerror+0xfffbff28>	2cd: R_XTENSA_SLOT0_OP	.literal+0x10c
 2d0:	7fa022        	movi	a2, 127
 2d3:	ffb686        	j	1b1 <_strerror_r+0x1b1>	2d3: R_XTENSA_SLOT0_OP	.text+0x1b1
 2d6:	00          	.byte 00
 2d7:	00          	.byte 00
 2d8:	8ca072        	movi	a7, 140
 2db:	000061        	l32r	a6, fffc02dc <strerror+0xfffbff34>	2db: R_XTENSA_SLOT0_OP	.literal+0x110
 2de:	029377        	bne	a3, a7, 2e4 <_strerror_r+0x2e4>	2de: R_XTENSA_SLOT0_OP	.text+0x2e4
 2e1:	002e86        	j	39f <_strerror_r+0x39f>	2e1: R_XTENSA_SLOT0_OP	.text+0x39f
 2e4:	000061        	l32r	a6, fffc02e4 <strerror+0xfffbff3c>	2e4: R_XTENSA_SLOT0_OP	.literal+0x88
 2e7:	86a022        	movi	a2, 134
 2ea:	022737        	blt	a7, a3, 2f0 <_strerror_r+0x2f0>	2ea: R_XTENSA_SLOT0_OP	.text+0x2f0
 2ed:	ffb006        	j	1b1 <_strerror_r+0x1b1>	2ed: R_XTENSA_SLOT0_OP	.text+0x1b1
 2f0:	8da022        	movi	a2, 141
 2f3:	000061        	l32r	a6, fffc02f4 <strerror+0xfffbff4c>	2f3: R_XTENSA_SLOT0_OP	.literal+0x114
 2f6:	029327        	bne	a3, a2, 2fc <_strerror_r+0x2fc>	2f6: R_XTENSA_SLOT0_OP	.text+0x2fc
 2f9:	002886        	j	39f <_strerror_r+0x39f>	2f9: R_XTENSA_SLOT0_OP	.text+0x39f
 2fc:	000061        	l32r	a6, fffc02fc <strerror+0xfffbff54>	2fc: R_XTENSA_SLOT0_OP	.literal+0x118
 2ff:	8ea022        	movi	a2, 142
 302:	ffaac6        	j	1b1 <_strerror_r+0x1b1>	302: R_XTENSA_SLOT0_OP	.text+0x1b1
 305:	000061        	l32r	a6, fffc0308 <strerror+0xfffbff60>	305: R_XTENSA_SLOT0_OP	.literal+0xc
 308:	0024c6        	j	39f <_strerror_r+0x39f>	308: R_XTENSA_SLOT0_OP	.text+0x39f
 30b:	00          	.byte 00
 30c:	000061        	l32r	a6, fffc030c <strerror+0xfffbff64>	30c: R_XTENSA_SLOT0_OP	.literal+0x20
 30f:	002306        	j	39f <_strerror_r+0x39f>	30f: R_XTENSA_SLOT0_OP	.text+0x39f
 312:	00          	.byte 00
 313:	00          	.byte 00
 314:	000061        	l32r	a6, fffc0314 <strerror+0xfffbff6c>	314: R_XTENSA_SLOT0_OP	.literal+0x24
 317:	002106        	j	39f <_strerror_r+0x39f>	317: R_XTENSA_SLOT0_OP	.text+0x39f
 31a:	00          	.byte 00
 31b:	00          	.byte 00
 31c:	000061        	l32r	a6, fffc031c <strerror+0xfffbff74>	31c: R_XTENSA_SLOT0_OP	.literal+0x28
 31f:	001f06        	j	39f <_strerror_r+0x39f>	31f: R_XTENSA_SLOT0_OP	.text+0x39f
 322:	000061        	l32r	a6, fffc0324 <strerror+0xfffbff7c>	322: R_XTENSA_SLOT0_OP	.literal+0x38
 325:	001d86        	j	39f <_strerror_r+0x39f>	325: R_XTENSA_SLOT0_OP	.text+0x39f
 328:	000061        	l32r	a6, fffc0328 <strerror+0xfffbff80>	328: R_XTENSA_SLOT0_OP	.literal+0x4c
 32b:	001c06        	j	39f <_strerror_r+0x39f>	32b: R_XTENSA_SLOT0_OP	.text+0x39f
 32e:	00          	.byte 00
 32f:	00          	.byte 00
 330:	000061        	l32r	a6, fffc0330 <strerror+0xfffbff88>	330: R_XTENSA_SLOT0_OP	.literal+0x50
 333:	001a06        	j	39f <_strerror_r+0x39f>	333: R_XTENSA_SLOT0_OP	.text+0x39f
 336:	00          	.byte 00
 337:	00          	.byte 00
 338:	000061        	l32r	a6, fffc0338 <strerror+0xfffbff90>	338: R_XTENSA_SLOT0_OP	.literal+0x64
 33b:	001806        	j	39f <_strerror_r+0x39f>	33b: R_XTENSA_SLOT0_OP	.text+0x39f
 33e:	00          	.byte 00
 33f:	00          	.byte 00
 340:	000061        	l32r	a6, fffc0340 <strerror+0xfffbff98>	340: R_XTENSA_SLOT0_OP	.literal+0x68
 343:	001606        	j	39f <_strerror_r+0x39f>	343: R_XTENSA_SLOT0_OP	.text+0x39f
 346:	00          	.byte 00
 347:	00          	.byte 00
 348:	000061        	l32r	a6, fffc0348 <strerror+0xfffbffa0>	348: R_XTENSA_SLOT0_OP	.literal+0x7c
 34b:	001406        	j	39f <_strerror_r+0x39f>	34b: R_XTENSA_SLOT0_OP	.text+0x39f
 34e:	00          	.byte 00
 34f:	00          	.byte 00
 350:	000061        	l32r	a6, fffc0350 <strerror+0xfffbffa8>	350: R_XTENSA_SLOT0_OP	.literal+0x98
 353:	001206        	j	39f <_strerror_r+0x39f>	353: R_XTENSA_SLOT0_OP	.text+0x39f
 356:	00          	.byte 00
 357:	00          	.byte 00
 358:	000061        	l32r	a6, fffc0358 <strerror+0xfffbffb0>	358: R_XTENSA_SLOT0_OP	.literal+0xac
 35b:	001006        	j	39f <_strerror_r+0x39f>	35b: R_XTENSA_SLOT0_OP	.text+0x39f
 35e:	00          	.byte 00
 35f:	00          	.byte 00
 360:	000061        	l32r	a6, fffc0360 <strerror+0xfffbffb8>	360: R_XTENSA_SLOT0_OP	.literal+0xc0
 363:	000e06        	j	39f <_strerror_r+0x39f>	363: R_XTENSA_SLOT0_OP	.text+0x39f
 366:	00          	.byte 00
 367:	00          	.byte 00
 368:	000061        	l32r	a6, fffc0368 <strerror+0xfffbffc0>	368: R_XTENSA_SLOT0_OP	.literal+0xd8
 36b:	000c06        	j	39f <_strerror_r+0x39f>	36b: R_XTENSA_SLOT0_OP	.text+0x39f
 36e:	00          	.byte 00
 36f:	00          	.byte 00
 370:	000061        	l32r	a6, fffc0370 <strerror+0xfffbffc8>	370: R_XTENSA_SLOT0_OP	.literal+0xe8
 373:	000a06        	j	39f <_strerror_r+0x39f>	373: R_XTENSA_SLOT0_OP	.text+0x39f
 376:	000061        	l32r	a6, fffc0378 <strerror+0xfffbffd0>	376: R_XTENSA_SLOT0_OP	.literal+0xfc
 379:	000886        	j	39f <_strerror_r+0x39f>	379: R_XTENSA_SLOT0_OP	.text+0x39f
 37c:	000061        	l32r	a6, fffc037c <strerror+0xfffbffd4>	37c: R_XTENSA_SLOT0_OP	.literal+0x100
 37f:	000706        	j	39f <_strerror_r+0x39f>	37f: R_XTENSA_SLOT0_OP	.text+0x39f
 382:	00          	.byte 00
 383:	00          	.byte 00
 384:	000061        	l32r	a6, fffc0384 <strerror+0xfffbffdc>	384: R_XTENSA_SLOT0_OP	.literal+0x108
 387:	000506        	j	39f <_strerror_r+0x39f>	387: R_XTENSA_SLOT0_OP	.text+0x39f
 38a:	032d      	mov.n	a2, a3
 38c:	043d      	mov.n	a3, a4
 38e:	084d      	mov.n	a4, a8
 390:	934550        	movnez	a4, a5, a5
 393:	000001        	l32r	a0, fffc0394 <strerror+0xfffbffec>	393: R_XTENSA_SLOT0_OP	.literal+0x12c
	393: R_XTENSA_ASM_EXPAND	_user_strerror
 396:	0000c0        	callx0	a0
 399:	000061        	l32r	a6, fffc039c <strerror+0xfffbfff4>	399: R_XTENSA_SLOT0_OP	.literal+0x128
 39c:	936220        	movnez	a6, a2, a2
 39f:	3108      	l32i.n	a0, a1, 12
 3a1:	062d      	mov.n	a2, a6
 3a3:	10c112        	addi	a1, a1, 16
 3a6:	f00d      	ret.n

000003a8 <strerror>:
 3a8:	023d      	mov.n	a3, a2
 3aa:	000021        	l32r	a2, fffc03ac <strerror+0xfffc0004>	3aa: R_XTENSA_SLOT0_OP	.literal+0x130
 3ad:	040c      	movi.n	a4, 0
 3af:	0228      	l32i.n	a2, a2, 0
 3b1:	f0c112        	addi	a1, a1, -16
 3b4:	045d      	mov.n	a5, a4
 3b6:	036102        	s32i	a0, a1, 12
 3b9:	000005        	call0	3bc <strerror+0x14>	3b9: R_XTENSA_SLOT0_OP	_strerror_r
 3bc:	3108      	l32i.n	a0, a1, 12
 3be:	10c112        	addi	a1, a1, 16
 3c1:	f00d      	ret.n
