
output/libc/lib_a-strtod.o:     file format elf32-xtensa-le


Disassembly of section .literal:

00000000 <.literal>:
   0:	1f 4e 00 00 	
   4:	00 00 00 00 	
   8:	00 00 e0 3f 	
   c:	00 00 00 00 	
  10:	00 00 f0 3f 	
	...
  1c:	14 00 00 00 		1c: R_XTENSA_32	.data
  20:	ff ff ef ff 	
  24:	00 00 f0 7f 	
  28:	ff ff ff 7f 	
  2c:	00 00 00 80 	
  30:	00 00 00 00 		30: R_XTENSA_32	.rodata.str1.1
  34:	03 00 00 00 		34: R_XTENSA_32	.rodata.str1.1
  38:	09 00 00 00 		38: R_XTENSA_32	.rodata.str1.1
  3c:	00 00 00 00 		3c: R_XTENSA_32	.data
  40:	00 00 f8 ff 	
	...
	44: R_XTENSA_32	__mprec_tens
	48: R_XTENSA_32	__mprec_bigtens
  4c:	00 00 b0 fc 	
  50:	00 00 a0 7c 	
  54:	00 00 90 7c 	
  58:	ff ff ef 7f 	
  5c:	00 00 50 03 	
  60:	00 00 00 00 		60: R_XTENSA_32	.rodata
  64:	00 00 70 03 	
  68:	ff ff 0f 00 	
  6c:	00 00 b0 06 	
  70:	00 00 a0 06 	
  74:	00 00 10 00 	
  78:	00 00 f0 ff 	
  7c:	00 00 00 00 	
  80:	00 00 00 40 	
  84:	00 00 00 00 	
  88:	00 00 f0 bf 	
  8c:	00 00 e0 7f 	
  90:	ff ff 9f 7c 	
  94:	00 00 c0 ff 	
  98:	ff ff df 41 	
  9c:	95 35 a0 94 	
  a0:	ff ff df 3f 	
  a4:	35 e5 af 35 	
  a8:	00 00 e0 3f 	
  ac:	95 35 a0 94 	
  b0:	ff ff cf 3f 	
  b4:	00 00 50 39 	
	...
	b8: R_XTENSA_32	__gethex
	bc: R_XTENSA_32	__copybits
	c0: R_XTENSA_32	_Bfree
	c4: R_XTENSA_32	_localeconv_r
	c8: R_XTENSA_32	_localeconv_r
	cc: R_XTENSA_32	strlen
	d0: R_XTENSA_32	strncmp
	d4: R_XTENSA_32	_localeconv_r
	d8: R_XTENSA_32	strlen
	dc: R_XTENSA_32	__hexnan
	e0: R_XTENSA_32	__floatunsidf
	e4: R_XTENSA_32	__muldf3
	e8: R_XTENSA_32	__floatunsidf
	ec: R_XTENSA_32	__adddf3
	f0: R_XTENSA_32	__muldf3
	f4: R_XTENSA_32	__muldf3
	f8: R_XTENSA_32	__divdf3
	fc: R_XTENSA_32	__muldf3
	100: R_XTENSA_32	__muldf3
	104: R_XTENSA_32	__muldf3
	108: R_XTENSA_32	__divdf3
	10c: R_XTENSA_32	__muldf3
	110: R_XTENSA_32	__eqdf2
	114: R_XTENSA_32	__s2b
	118: R_XTENSA_32	_Balloc
	11c: R_XTENSA_32	memcpy
	120: R_XTENSA_32	__d2b
	124: R_XTENSA_32	__i2b
	128: R_XTENSA_32	__pow5mult
	12c: R_XTENSA_32	__multiply
	130: R_XTENSA_32	_Bfree
	134: R_XTENSA_32	__lshift
	138: R_XTENSA_32	__pow5mult
	13c: R_XTENSA_32	__lshift
	140: R_XTENSA_32	__lshift
	144: R_XTENSA_32	__mdiff
	148: R_XTENSA_32	__mcmp
	14c: R_XTENSA_32	__lshift
	150: R_XTENSA_32	__mcmp
	154: R_XTENSA_32	__ulp
	158: R_XTENSA_32	__adddf3
	15c: R_XTENSA_32	__ulp
	160: R_XTENSA_32	__subdf3
	164: R_XTENSA_32	__eqdf2
	168: R_XTENSA_32	__ratio
	16c: R_XTENSA_32	__ledf2
	170: R_XTENSA_32	__ltdf2
	174: R_XTENSA_32	__muldf3
	178: R_XTENSA_32	__muldf3
	17c: R_XTENSA_32	__ulp
	180: R_XTENSA_32	__muldf3
	184: R_XTENSA_32	__adddf3
	188: R_XTENSA_32	__ledf2
	18c: R_XTENSA_32	__fixunsdfsi
	190: R_XTENSA_32	__floatunsidf
	194: R_XTENSA_32	__ulp
	198: R_XTENSA_32	__muldf3
	19c: R_XTENSA_32	__adddf3
	1a0: R_XTENSA_32	__fixdfsi
	1a4: R_XTENSA_32	__floatsidf
	1a8: R_XTENSA_32	__subdf3
	1ac: R_XTENSA_32	__ltdf2
	1b0: R_XTENSA_32	__gtdf2
	1b4: R_XTENSA_32	__ltdf2
	1b8: R_XTENSA_32	_Bfree
	1bc: R_XTENSA_32	_Bfree
	1c0: R_XTENSA_32	_Bfree
	1c4: R_XTENSA_32	_Bfree
	1c8: R_XTENSA_32	__muldf3
	1cc: R_XTENSA_32	_Bfree
	1d0: R_XTENSA_32	_Bfree
	1d4: R_XTENSA_32	_Bfree
	1d8: R_XTENSA_32	_Bfree
	1dc: R_XTENSA_32	_Bfree
	1e0: R_XTENSA_32	_impure_ptr
	1e4: R_XTENSA_32	_impure_ptr
	1e8: R_XTENSA_32	__fpclassifyd
	1ec: R_XTENSA_32	nanf
	1f0: R_XTENSA_32	__truncdfsf2

Disassembly of section .text:

00000000 <match>:
   0:	0258      	l32i.n	a5, a2, 0
   2:	971c      	movi.n	a7, 25
   4:	000546        	j	1d <match+0x1d>	4: R_XTENSA_SLOT0_OP	.text+0x1d
   7:	00          	.byte 00
   8:	00          	.byte 00
   9:	000542        	l8ui	a4, a5, 0
   c:	bfc482        	addi	a8, a4, -65
   f:	748080        	extui	a8, a8, 0, 8
  12:	023787        	bltu	a7, a8, 18 <match+0x18>	12: R_XTENSA_SLOT0_OP	.text+0x18
  15:	20c442        	addi	a4, a4, 32
  18:	331b      	addi.n	a3, a3, 1
  1a:	0e9467        	bne	a4, a6, 2c <match+0x2c>	1a: R_XTENSA_SLOT0_OP	.text+0x2c
  1d:	000362        	l8ui	a6, a3, 0
  20:	551b      	addi.n	a5, a5, 1
  22:	fe3656        	bnez	a6, 9 <match+0x9>	22: R_XTENSA_SLOT0_OP	.text+0x9
  25:	0259      	s32i.n	a5, a2, 0
  27:	120c      	movi.n	a2, 1
  29:	f00d      	ret.n
  2b:	00          	.byte 00
  2c:	020c      	movi.n	a2, 0
  2e:	f00d      	ret.n

00000030 <_strtod_r>:
  30:	90a092        	movi	a9, 144
  33:	c01190        	sub	a1, a1, a9
  36:	2261c2        	s32i	a12, a1, 136
  39:	2161d2        	s32i	a13, a1, 132
  3c:	0000c1        	l32r	a12, fffc003c <strtof+0xfffbf318>	3c: R_XTENSA_SLOT0_OP	.literal+0x14
  3f:	0000d1        	l32r	a13, fffc0040 <strtof+0xfffbf31c>	3f: R_XTENSA_SLOT0_OP	.literal+0x18
  42:	2061e2        	s32i	a14, a1, 128
  45:	156142        	s32i	a4, a1, 84
  48:	236102        	s32i	a0, a1, 140
  4b:	1f61f2        	s32i	a15, a1, 124
  4e:	8129      	s32i.n	a2, a1, 32
  50:	03ed      	mov.n	a14, a3
  52:	4139      	s32i.n	a3, a1, 16
  54:	d40c      	movi.n	a4, 13
  56:	b52c      	movi.n	a5, 43
  58:	d62c      	movi.n	a6, 45
  5a:	970c      	movi.n	a7, 9
  5c:	4138      	l32i.n	a3, a1, 16
  5e:	000322        	l8ui	a2, a3, 0
  61:	083427        	bltu	a4, a2, 6d <_strtod_r+0x3d>	61: R_XTENSA_SLOT0_OP	.text+0x6d
  64:	28b277        	bgeu	a2, a7, 90 <_strtod_r+0x60>	64: R_XTENSA_SLOT0_OP	.text+0x90
  67:	3ce216        	beqz	a2, 439 <_strtod_r+0x409>	67: R_XTENSA_SLOT0_OP	.text+0x439
  6a:	000ac6        	j	99 <_strtod_r+0x69>	6a: R_XTENSA_SLOT0_OP	.text+0x99
  6d:	0d1257        	beq	a2, a5, 7e <_strtod_r+0x4e>	6d: R_XTENSA_SLOT0_OP	.text+0x7e
  70:	051267        	beq	a2, a6, 79 <_strtod_r+0x49>	70: R_XTENSA_SLOT0_OP	.text+0x79
  73:	22c266        	bnei	a2, 32, 99 <_strtod_r+0x69>	73: R_XTENSA_SLOT0_OP	.text+0x99
  76:	000586        	j	90 <_strtod_r+0x60>	76: R_XTENSA_SLOT0_OP	.text+0x90
  79:	1b0c      	movi.n	a11, 1
  7b:	000046        	j	80 <_strtod_r+0x50>	7b: R_XTENSA_SLOT0_OP	.text+0x80
  7e:	0b0c      	movi.n	a11, 0
  80:	231b      	addi.n	a2, a3, 1
  82:	4129      	s32i.n	a2, a1, 16
  84:	010322        	l8ui	a2, a3, 1
  87:	1161b2        	s32i	a11, a1, 68
  8a:	02dc      	bnez.n	a2, 9e <_strtod_r+0x6e>	8a: R_XTENSA_SLOT0_OP	.text+0x9e
  8c:	00ea46        	j	439 <_strtod_r+0x409>	8c: R_XTENSA_SLOT0_OP	.text+0x439
  8f:	00          	.byte 00
  90:	331b      	addi.n	a3, a3, 1
  92:	4139      	s32i.n	a3, a1, 16
  94:	fff106        	j	5c <_strtod_r+0x2c>	94: R_XTENSA_SLOT0_OP	.text+0x5c
  97:	00          	.byte 00
  98:	00          	.byte 00
  99:	0b0c      	movi.n	a11, 0
  9b:	1161b2        	s32i	a11, a1, 68
  9e:	41f8      	l32i.n	a15, a1, 16
  a0:	050c      	movi.n	a5, 0
  a2:	000f22        	l8ui	a2, a15, 0
  a5:	c159      	s32i.n	a5, a1, 48
  a7:	30a032        	movi	a3, 48
  aa:	021237        	beq	a2, a3, b0 <_strtod_r+0x80>	aa: R_XTENSA_SLOT0_OP	.text+0xb0
  ad:	0035c6        	j	188 <_strtod_r+0x158>	ad: R_XTENSA_SLOT0_OP	.text+0x188
  b0:	010f32        	l8ui	a3, a15, 1
  b3:	845c      	movi.n	a4, 88
  b5:	081347        	beq	a3, a4, c1 <_strtod_r+0x91>	b5: R_XTENSA_SLOT0_OP	.text+0xc1
  b8:	78a042        	movi	a4, 120
  bb:	021347        	beq	a3, a4, c1 <_strtod_r+0x91>	bb: R_XTENSA_SLOT0_OP	.text+0xc1
  be:	002b86        	j	170 <_strtod_r+0x140>	be: R_XTENSA_SLOT0_OP	.text+0x170
  c1:	8128      	l32i.n	a2, a1, 32
  c3:	000041        	l32r	a4, fffc00c4 <strtof+0xfffbf3a0>	c3: R_XTENSA_SLOT0_OP	.literal+0x1c
  c6:	112172        	l32i	a7, a1, 68
  c9:	08c152        	addi	a5, a1, 8
  cc:	10c132        	addi	a3, a1, 16
  cf:	0cc162        	addi	a6, a1, 12
  d2:	000001        	l32r	a0, fffc00d4 <strtof+0xfffbf3b0>	d2: R_XTENSA_SLOT0_OP	.literal+0xb8
	d2: R_XTENSA_ASM_EXPAND	__gethex
  d5:	0000c0        	callx0	a0
  d8:	24e020        	extui	a14, a2, 0, 3
  db:	025d      	mov.n	a5, a2
  dd:	1ecc      	bnez.n	a14, e2 <_strtod_r+0xb2>	dd: R_XTENSA_SLOT0_OP	.text+0xe2
  df:	02fc46        	j	cd4 <_strtod_r+0xca4>	df: R_XTENSA_SLOT0_OP	.text+0xcd4
  e2:	086e66        	bnei	a14, 6, ee <_strtod_r+0xbe>	e2: R_XTENSA_SLOT0_OP	.text+0xee
  e5:	ff1b      	addi.n	a15, a15, 1
  e7:	41f9      	s32i.n	a15, a1, 16
  e9:	02f9c6        	j	cd4 <_strtod_r+0xca4>	e9: R_XTENSA_SLOT0_OP	.text+0xcd4
  ec:	00          	.byte 00
  ed:	00          	.byte 00
  ee:	3148      	l32i.n	a4, a1, 12
  f0:	c49c      	beqz.n	a4, 110 <_strtod_r+0xe0>	f0: R_XTENSA_SLOT0_OP	.text+0x110
  f2:	000061        	l32r	a6, fffc00f4 <strtof+0xfffbf3d0>	f2: R_XTENSA_SLOT0_OP	.literal+0x1c
  f5:	012d      	mov.n	a2, a1
  f7:	0638      	l32i.n	a3, a6, 0
  f9:	176152        	s32i	a5, a1, 92
  fc:	000001        	l32r	a0, fffc00fc <strtof+0xfffbf3d8>	fc: R_XTENSA_SLOT0_OP	.literal+0xbc
	fc: R_XTENSA_ASM_EXPAND	__copybits
  ff:	0000c0        	callx0	a0
 102:	8128      	l32i.n	a2, a1, 32
 104:	032132        	l32i	a3, a1, 12
 107:	000001        	l32r	a0, fffc0108 <strtof+0xfffbf3e4>	107: R_XTENSA_SLOT0_OP	.literal+0xc0
	107: R_XTENSA_ASM_EXPAND	_Bfree
 10a:	0000c0        	callx0	a0
 10d:	172152        	l32i	a5, a1, 92
 110:	2138      	l32i.n	a3, a1, 8
 112:	3e3e26        	beqi	a14, 3, 154 <_strtod_r+0x124>	112: R_XTENSA_SLOT0_OP	.text+0x154
 115:	0b4ee6        	bgei	a14, 4, 124 <_strtod_r+0xf4>	115: R_XTENSA_SLOT0_OP	.text+0x124
 118:	201e26        	beqi	a14, 1, 13c <_strtod_r+0x10c>	118: R_XTENSA_SLOT0_OP	.text+0x13c
 11b:	152ee6        	bgei	a14, 2, 134 <_strtod_r+0x104>	11b: R_XTENSA_SLOT0_OP	.text+0x134
 11e:	be8c      	beqz.n	a14, 12d <_strtod_r+0xfd>	11e: R_XTENSA_SLOT0_OP	.text+0x12d
 120:	000f46        	j	161 <_strtod_r+0x131>	120: R_XTENSA_SLOT0_OP	.text+0x161
 123:	00          	.byte 00
 124:	145e26        	beqi	a14, 5, 13c <_strtod_r+0x10c>	124: R_XTENSA_SLOT0_OP	.text+0x13c
 127:	315ea6        	blti	a14, 5, 15c <_strtod_r+0x12c>	127: R_XTENSA_SLOT0_OP	.text+0x15c
 12a:	336e66        	bnei	a14, 6, 161 <_strtod_r+0x131>	12a: R_XTENSA_SLOT0_OP	.text+0x161
 12d:	0d0c      	movi.n	a13, 0
 12f:	0dcd      	mov.n	a12, a13
 131:	000b06        	j	161 <_strtod_r+0x131>	131: R_XTENSA_SLOT0_OP	.text+0x161
 134:	01c8      	l32i.n	a12, a1, 0
 136:	11d8      	l32i.n	a13, a1, 4
 138:	000946        	j	161 <_strtod_r+0x131>	138: R_XTENSA_SLOT0_OP	.text+0x161
 13b:	00          	.byte 00
 13c:	33a422        	movi	a2, 0x433
 13f:	332a      	add.n	a3, a3, a2
 141:	1148      	l32i.n	a4, a1, 4
 143:	000021        	l32r	a2, fffc0144 <strtof+0xfffbf420>	143: R_XTENSA_SLOT0_OP	.literal+0x20
 146:	0133c0        	slli	a3, a3, 20
 149:	102420        	and	a2, a4, a2
 14c:	01c8      	l32i.n	a12, a1, 0
 14e:	20d320        	or	a13, a3, a2
 151:	000306        	j	161 <_strtod_r+0x131>	151: R_XTENSA_SLOT0_OP	.text+0x161
 154:	0000d1        	l32r	a13, fffc0154 <strtof+0xfffbf430>	154: R_XTENSA_SLOT0_OP	.literal+0x24
 157:	0c0c      	movi.n	a12, 0
 159:	000106        	j	161 <_strtod_r+0x131>	159: R_XTENSA_SLOT0_OP	.text+0x161
 15c:	0000d1        	l32r	a13, fffc015c <strtof+0xfffbf438>	15c: R_XTENSA_SLOT0_OP	.literal+0x28
 15f:	fc7c      	movi.n	a12, -1
 161:	02e537        	bbsi	a5, 3, 167 <_strtod_r+0x137>	161: R_XTENSA_SLOT0_OP	.text+0x167
 164:	02db06        	j	cd4 <_strtod_r+0xca4>	164: R_XTENSA_SLOT0_OP	.text+0xcd4
 167:	000021        	l32r	a2, fffc0168 <strtof+0xfffbf444>	167: R_XTENSA_SLOT0_OP	.literal+0x2c
 16a:	20d2d0        	or	a13, a2, a13
 16d:	02d8c6        	j	cd4 <_strtod_r+0xca4>	16d: R_XTENSA_SLOT0_OP	.text+0xcd4
 170:	023d      	mov.n	a3, a2
 172:	4128      	l32i.n	a2, a1, 16
 174:	421b      	addi.n	a4, a2, 1
 176:	4149      	s32i.n	a4, a1, 16
 178:	010222        	l8ui	a2, a2, 1
 17b:	f31237        	beq	a2, a3, 172 <_strtod_r+0x142>	17b: R_XTENSA_SLOT0_OP	.text+0x172
 17e:	12cc      	bnez.n	a2, 183 <_strtod_r+0x153>	17e: R_XTENSA_SLOT0_OP	.text+0x183
 180:	02d406        	j	cd4 <_strtod_r+0xca4>	180: R_XTENSA_SLOT0_OP	.text+0xcd4
 183:	1b0c      	movi.n	a11, 1
 185:	0c61b2        	s32i	a11, a1, 48
 188:	4168      	l32i.n	a6, a1, 16
 18a:	080c      	movi.n	a8, 0
 18c:	e169      	s32i.n	a6, a1, 56
 18e:	a189      	s32i.n	a8, a1, 40
 190:	9189      	s32i.n	a8, a1, 36
 192:	940c      	movi.n	a4, 9
 194:	f60c      	movi.n	a6, 15
 196:	890c      	movi.n	a9, 8
 198:	000946        	j	1c1 <_strtod_r+0x191>	198: R_XTENSA_SLOT0_OP	.text+0x1c1
 19b:	00          	.byte 00
 19c:	91b8      	l32i.n	a11, a1, 36
 19e:	1526b7        	blt	a6, a11, 1b7 <_strtod_r+0x187>	19e: R_XTENSA_SLOT0_OP	.text+0x1b7
 1a1:	0c29b7        	blt	a9, a11, 1b1 <_strtod_r+0x181>	1a1: R_XTENSA_SLOT0_OP	.text+0x1b1
 1a4:	a1b8      	l32i.n	a11, a1, 40
 1a6:	a07bb0        	addx4	a7, a11, a11
 1a9:	902720        	addx2	a2, a7, a2
 1ac:	a129      	s32i.n	a2, a1, 40
 1ae:	000146        	j	1b7 <_strtod_r+0x187>	1ae: R_XTENSA_SLOT0_OP	.text+0x1b7
 1b1:	a08880        	addx4	a8, a8, a8
 1b4:	908820        	addx2	a8, a8, a2
 1b7:	91b8      	l32i.n	a11, a1, 36
 1b9:	ff1b      	addi.n	a15, a15, 1
 1bb:	bb1b      	addi.n	a11, a11, 1
 1bd:	91b9      	s32i.n	a11, a1, 36
 1bf:	41f9      	s32i.n	a15, a1, 16
 1c1:	41f8      	l32i.n	a15, a1, 16
 1c3:	000f52        	l8ui	a5, a15, 0
 1c6:	d0c522        	addi	a2, a5, -48
 1c9:	743020        	extui	a3, a2, 0, 8
 1cc:	ccb437        	bgeu	a4, a3, 19c <_strtod_r+0x16c>	1cc: R_XTENSA_SLOT0_OP	.text+0x19c
 1cf:	8128      	l32i.n	a2, a1, 32
 1d1:	176152        	s32i	a5, a1, 92
 1d4:	186182        	s32i	a8, a1, 96
 1d7:	000001        	l32r	a0, fffc01d8 <strtof+0xfffbf4b4>	1d7: R_XTENSA_SLOT0_OP	.literal+0xc4
	1d7: R_XTENSA_ASM_EXPAND	_localeconv_r
 1da:	0000c0        	callx0	a0
 1dd:	0238      	l32i.n	a3, a2, 0
 1df:	8128      	l32i.n	a2, a1, 32
 1e1:	166132        	s32i	a3, a1, 88
 1e4:	000001        	l32r	a0, fffc01e4 <strtof+0xfffbf4c0>	1e4: R_XTENSA_SLOT0_OP	.literal+0xc8
	1e4: R_XTENSA_ASM_EXPAND	_localeconv_r
 1e7:	0000c0        	callx0	a0
 1ea:	0228      	l32i.n	a2, a2, 0
 1ec:	000001        	l32r	a0, fffc01ec <strtof+0xfffbf4c8>	1ec: R_XTENSA_SLOT0_OP	.literal+0xcc
	1ec: R_XTENSA_ASM_EXPAND	strlen
 1ef:	0000c0        	callx0	a0
 1f2:	162132        	l32i	a3, a1, 88
 1f5:	024d      	mov.n	a4, a2
 1f7:	202ff0        	or	a2, a15, a15
 1fa:	000001        	l32r	a0, fffc01fc <strtof+0xfffbf4d8>	1fa: R_XTENSA_SLOT0_OP	.literal+0xd0
	1fa: R_XTENSA_ASM_EXPAND	strncmp
 1fd:	0000c0        	callx0	a0
 200:	02fd      	mov.n	a15, a2
 202:	172152        	l32i	a5, a1, 92
 205:	182182        	l32i	a8, a1, 96
 208:	c28c      	beqz.n	a2, 218 <_strtod_r+0x1e8>	208: R_XTENSA_SLOT0_OP	.text+0x218
 20a:	020c      	movi.n	a2, 0
 20c:	053d      	mov.n	a3, a5
 20e:	9168      	l32i.n	a6, a1, 36
 210:	02fd      	mov.n	a15, a2
 212:	b129      	s32i.n	a2, a1, 44
 214:	003706        	j	2f4 <_strtod_r+0x2c4>	214: R_XTENSA_SLOT0_OP	.text+0x2f4
 217:	00          	.byte 00
 218:	4138      	l32i.n	a3, a1, 16
 21a:	8128      	l32i.n	a2, a1, 32
 21c:	166132        	s32i	a3, a1, 88
 21f:	186182        	s32i	a8, a1, 96
 222:	000001        	l32r	a0, fffc0224 <strtof+0xfffbf500>	222: R_XTENSA_SLOT0_OP	.literal+0xd4
	222: R_XTENSA_ASM_EXPAND	_localeconv_r
 225:	0000c0        	callx0	a0
 228:	0228      	l32i.n	a2, a2, 0
 22a:	000001        	l32r	a0, fffc022c <strtof+0xfffbf508>	22a: R_XTENSA_SLOT0_OP	.literal+0xd8
	22a: R_XTENSA_ASM_EXPAND	strlen
 22d:	0000c0        	callx0	a0
 230:	162132        	l32i	a3, a1, 88
 233:	9168      	l32i.n	a6, a1, 36
 235:	232a      	add.n	a2, a3, a2
 237:	4129      	s32i.n	a2, a1, 16
 239:	000232        	l8ui	a3, a2, 0
 23c:	182182        	l32i	a8, a1, 96
 23f:	095656        	bnez	a6, 2d8 <_strtod_r+0x2a8>	23f: R_XTENSA_SLOT0_OP	.text+0x2d8
 242:	062d      	mov.n	a2, a6
 244:	043c      	movi.n	a4, 48
 246:	000286        	j	254 <_strtod_r+0x224>	246: R_XTENSA_SLOT0_OP	.text+0x254
 249:	4138      	l32i.n	a3, a1, 16
 24b:	221b      	addi.n	a2, a2, 1
 24d:	531b      	addi.n	a5, a3, 1
 24f:	4159      	s32i.n	a5, a1, 16
 251:	010332        	l8ui	a3, a3, 1
 254:	f11347        	beq	a3, a4, 249 <_strtod_r+0x219>	254: R_XTENSA_SLOT0_OP	.text+0x249
 257:	cfc342        	addi	a4, a3, -49
 25a:	850c      	movi.n	a5, 8
 25c:	02b547        	bgeu	a5, a4, 262 <_strtod_r+0x232>	25c: R_XTENSA_SLOT0_OP	.text+0x262
 25f:	002246        	j	2ec <_strtod_r+0x2bc>	25f: R_XTENSA_SLOT0_OP	.text+0x2ec
 262:	41b8      	l32i.n	a11, a1, 16
 264:	02fd      	mov.n	a15, a2
 266:	020c      	movi.n	a2, 0
 268:	e1b9      	s32i.n	a11, a1, 56
 26a:	026d      	mov.n	a6, a2
 26c:	d0c332        	addi	a3, a3, -48
 26f:	521b      	addi.n	a5, a2, 1
 271:	054316        	beqz	a3, 2c9 <_strtod_r+0x299>	271: R_XTENSA_SLOT0_OP	.text+0x2c9
 274:	ff5a      	add.n	a15, a15, a5
 276:	461b      	addi.n	a4, a6, 1
 278:	091c      	movi.n	a9, 16
 27a:	9a0c      	movi.n	a10, 9
 27c:	000746        	j	29d <_strtod_r+0x26d>	27c: R_XTENSA_SLOT0_OP	.text+0x29d
 27f:	00          	.byte 00
 280:	740b      	addi.n	a7, a4, -1
 282:	152977        	blt	a9, a7, 29b <_strtod_r+0x26b>	282: R_XTENSA_SLOT0_OP	.text+0x29b
 285:	0c2a47        	blt	a10, a4, 295 <_strtod_r+0x265>	285: R_XTENSA_SLOT0_OP	.text+0x295
 288:	a1b8      	l32i.n	a11, a1, 40
 28a:	a07bb0        	addx4	a7, a11, a11
 28d:	1177f0        	slli	a7, a7, 1
 290:	a179      	s32i.n	a7, a1, 40
 292:	000146        	j	29b <_strtod_r+0x26b>	292: R_XTENSA_SLOT0_OP	.text+0x29b
 295:	a08880        	addx4	a8, a8, a8
 298:	1188f0        	slli	a8, a8, 1
 29b:	441b      	addi.n	a4, a4, 1
 29d:	c07460        	sub	a7, a4, a6
 2a0:	dc2757        	blt	a7, a5, 280 <_strtod_r+0x250>	2a0: R_XTENSA_SLOT0_OP	.text+0x280
 2a3:	050c      	movi.n	a5, 0
 2a5:	a32520        	movltz	a2, a5, a2
 2a8:	262a      	add.n	a2, a6, a2
 2aa:	041c      	movi.n	a4, 16
 2ac:	621b      	addi.n	a6, a2, 1
 2ae:	172427        	blt	a4, a2, 2c9 <_strtod_r+0x299>	2ae: R_XTENSA_SLOT0_OP	.text+0x2c9
 2b1:	920c      	movi.n	a2, 9
 2b3:	0c2267        	blt	a2, a6, 2c3 <_strtod_r+0x293>	2b3: R_XTENSA_SLOT0_OP	.text+0x2c3
 2b6:	a1b8      	l32i.n	a11, a1, 40
 2b8:	a07bb0        	addx4	a7, a11, a11
 2bb:	907730        	addx2	a7, a7, a3
 2be:	a179      	s32i.n	a7, a1, 40
 2c0:	000146        	j	2c9 <_strtod_r+0x299>	2c0: R_XTENSA_SLOT0_OP	.text+0x2c9
 2c3:	a08880        	addx4	a8, a8, a8
 2c6:	908830        	addx2	a8, a8, a3
 2c9:	4128      	l32i.n	a2, a1, 16
 2cb:	321b      	addi.n	a3, a2, 1
 2cd:	4139      	s32i.n	a3, a1, 16
 2cf:	010232        	l8ui	a3, a2, 1
 2d2:	052d      	mov.n	a2, a5
 2d4:	000106        	j	2dc <_strtod_r+0x2ac>	2d4: R_XTENSA_SLOT0_OP	.text+0x2dc
 2d7:	00          	.byte 00
 2d8:	9168      	l32i.n	a6, a1, 36
 2da:	0f2d      	mov.n	a2, a15
 2dc:	d0c342        	addi	a4, a3, -48
 2df:	950c      	movi.n	a5, 9
 2e1:	87b547        	bgeu	a5, a4, 26c <_strtod_r+0x23c>	2e1: R_XTENSA_SLOT0_OP	.text+0x26c
 2e4:	140c      	movi.n	a4, 1
 2e6:	b149      	s32i.n	a4, a1, 44
 2e8:	000206        	j	2f4 <_strtod_r+0x2c4>	2e8: R_XTENSA_SLOT0_OP	.text+0x2f4
 2eb:	00          	.byte 00
 2ec:	060c      	movi.n	a6, 0
 2ee:	150c      	movi.n	a5, 1
 2f0:	06fd      	mov.n	a15, a6
 2f2:	b159      	s32i.n	a5, a1, 44
 2f4:	dfaf52        	movi	a5, -33
 2f7:	105350        	and	a5, a3, a5
 2fa:	544c      	movi.n	a4, 69
 2fc:	021547        	beq	a5, a4, 302 <_strtod_r+0x2d2>	2fc: R_XTENSA_SLOT0_OP	.text+0x302
 2ff:	002746        	j	3a0 <_strtod_r+0x370>	2ff: R_XTENSA_SLOT0_OP	.text+0x3a0
 302:	c1b8      	l32i.n	a11, a1, 48
 304:	203620        	or	a3, a6, a2
 307:	2033b0        	or	a3, a3, a11
 30a:	12b316        	beqz	a3, 439 <_strtod_r+0x409>	30a: R_XTENSA_SLOT0_OP	.text+0x439
 30d:	41e8      	l32i.n	a14, a1, 16
 30f:	b42c      	movi.n	a4, 43
 311:	3e1b      	addi.n	a3, a14, 1
 313:	4139      	s32i.n	a3, a1, 16
 315:	010e32        	l8ui	a3, a14, 1
 318:	081347        	beq	a3, a4, 324 <_strtod_r+0x2f4>	318: R_XTENSA_SLOT0_OP	.text+0x324
 31b:	d42c      	movi.n	a4, 45
 31d:	0d1347        	beq	a3, a4, 32e <_strtod_r+0x2fe>	31d: R_XTENSA_SLOT0_OP	.text+0x32e
 320:	000146        	j	329 <_strtod_r+0x2f9>	320: R_XTENSA_SLOT0_OP	.text+0x329
 323:	00          	.byte 00
 324:	070c      	movi.n	a7, 0
 326:	000186        	j	330 <_strtod_r+0x300>	326: R_XTENSA_SLOT0_OP	.text+0x330
 329:	070c      	movi.n	a7, 0
 32b:	000206        	j	337 <_strtod_r+0x307>	32b: R_XTENSA_SLOT0_OP	.text+0x337
 32e:	170c      	movi.n	a7, 1
 330:	3e2b      	addi.n	a3, a14, 2
 332:	4139      	s32i.n	a3, a1, 16
 334:	020e32        	l8ui	a3, a14, 2
 337:	d0c342        	addi	a4, a3, -48
 33a:	950c      	movi.n	a5, 9
 33c:	5e3547        	bltu	a5, a4, 39e <_strtod_r+0x36e>	33c: R_XTENSA_SLOT0_OP	.text+0x39e
 33f:	043c      	movi.n	a4, 48
 341:	000206        	j	34d <_strtod_r+0x31d>	341: R_XTENSA_SLOT0_OP	.text+0x34d
 344:	4138      	l32i.n	a3, a1, 16
 346:	531b      	addi.n	a5, a3, 1
 348:	4159      	s32i.n	a5, a1, 16
 34a:	010332        	l8ui	a3, a3, 1
 34d:	f31347        	beq	a3, a4, 344 <_strtod_r+0x314>	34d: R_XTENSA_SLOT0_OP	.text+0x344
 350:	cfc352        	addi	a5, a3, -49
 353:	890c      	movi.n	a9, 8
 355:	040c      	movi.n	a4, 0
 357:	473957        	bltu	a9, a5, 3a2 <_strtod_r+0x372>	357: R_XTENSA_SLOT0_OP	.text+0x3a2
 35a:	d0c352        	addi	a5, a3, -48
 35d:	41a8      	l32i.n	a10, a1, 16
 35f:	9b0c      	movi.n	a11, 9
 361:	000246        	j	36e <_strtod_r+0x33e>	361: R_XTENSA_SLOT0_OP	.text+0x36e
 364:	00          	.byte 00
 365:	a05550        	addx4	a5, a5, a5
 368:	905530        	addx2	a5, a5, a3
 36b:	d0c552        	addi	a5, a5, -48
 36e:	4138      	l32i.n	a3, a1, 16
 370:	431b      	addi.n	a4, a3, 1
 372:	4149      	s32i.n	a4, a1, 16
 374:	010332        	l8ui	a3, a3, 1
 377:	d0c392        	addi	a9, a3, -48
 37a:	749090        	extui	a9, a9, 0, 8
 37d:	e4bb97        	bgeu	a11, a9, 365 <_strtod_r+0x335>	37d: R_XTENSA_SLOT0_OP	.text+0x365
 380:	c0a4a0        	sub	a10, a4, a10
 383:	000041        	l32r	a4, fffc0384 <strtof+0xfffbf660>	383: R_XTENSA_SLOT0_OP	.literal
 386:	8b0c      	movi.n	a11, 8
 388:	049d      	mov.n	a9, a4
 38a:	062ba7        	blt	a11, a10, 394 <_strtod_r+0x364>	38a: R_XTENSA_SLOT0_OP	.text+0x394
 38d:	054d      	mov.n	a4, a5
 38f:	01a957        	bge	a9, a5, 394 <_strtod_r+0x364>	38f: R_XTENSA_SLOT0_OP	.text+0x394
 392:	094d      	mov.n	a4, a9
 394:	605040        	neg	a5, a4
 397:	934570        	movnez	a4, a5, a7
 39a:	000106        	j	3a2 <_strtod_r+0x372>	39a: R_XTENSA_SLOT0_OP	.text+0x3a2
 39d:	00          	.byte 00
 39e:	41e9      	s32i.n	a14, a1, 16
 3a0:	040c      	movi.n	a4, 0
 3a2:	09f656        	bnez	a6, 445 <_strtod_r+0x415>	3a2: R_XTENSA_SLOT0_OP	.text+0x445
 3a5:	c158      	l32i.n	a5, a1, 48
 3a7:	202250        	or	a2, a2, a5
 3aa:	128c      	beqz.n	a2, 3af <_strtod_r+0x37f>	3aa: R_XTENSA_SLOT0_OP	.text+0x3af
 3ac:	024906        	j	cd4 <_strtod_r+0xca4>	3ac: R_XTENSA_SLOT0_OP	.text+0xcd4
 3af:	b168      	l32i.n	a6, a1, 44
 3b1:	084656        	bnez	a6, 439 <_strtod_r+0x409>	3b1: R_XTENSA_SLOT0_OP	.text+0x439
 3b4:	e24c      	movi.n	a2, 78
 3b6:	441327        	beq	a3, a2, 3fe <_strtod_r+0x3ce>	3b6: R_XTENSA_SLOT0_OP	.text+0x3fe
 3b9:	072237        	blt	a2, a3, 3c4 <_strtod_r+0x394>	3b9: R_XTENSA_SLOT0_OP	.text+0x3c4
 3bc:	924c      	movi.n	a2, 73
 3be:	121327        	beq	a3, a2, 3d4 <_strtod_r+0x3a4>	3be: R_XTENSA_SLOT0_OP	.text+0x3d4
 3c1:	001d06        	j	439 <_strtod_r+0x409>	3c1: R_XTENSA_SLOT0_OP	.text+0x439
 3c4:	69a022        	movi	a2, 105
 3c7:	091327        	beq	a3, a2, 3d4 <_strtod_r+0x3a4>	3c7: R_XTENSA_SLOT0_OP	.text+0x3d4
 3ca:	6ea022        	movi	a2, 110
 3cd:	2d1327        	beq	a3, a2, 3fe <_strtod_r+0x3ce>	3cd: R_XTENSA_SLOT0_OP	.text+0x3fe
 3d0:	001946        	j	439 <_strtod_r+0x409>	3d0: R_XTENSA_SLOT0_OP	.text+0x439
 3d3:	00          	.byte 00
 3d4:	000031        	l32r	a3, fffc03d4 <strtof+0xfffbf6b0>	3d4: R_XTENSA_SLOT0_OP	.literal+0x30
 3d7:	10c122        	addi	a2, a1, 16
 3da:	ffc245        	call0	0 <match>	3da: R_XTENSA_SLOT0_OP	.text
 3dd:	058216        	beqz	a2, 439 <_strtod_r+0x409>	3dd: R_XTENSA_SLOT0_OP	.text+0x439
 3e0:	4128      	l32i.n	a2, a1, 16
 3e2:	000031        	l32r	a3, fffc03e4 <strtof+0xfffbf6c0>	3e2: R_XTENSA_SLOT0_OP	.literal+0x34
 3e5:	220b      	addi.n	a2, a2, -1
 3e7:	046122        	s32i	a2, a1, 16
 3ea:	10c122        	addi	a2, a1, 16
 3ed:	ffc105        	call0	0 <match>	3ed: R_XTENSA_SLOT0_OP	.text
 3f0:	42cc      	bnez.n	a2, 3f8 <_strtod_r+0x3c8>	3f0: R_XTENSA_SLOT0_OP	.text+0x3f8
 3f2:	4128      	l32i.n	a2, a1, 16
 3f4:	221b      	addi.n	a2, a2, 1
 3f6:	4129      	s32i.n	a2, a1, 16
 3f8:	0000d1        	l32r	a13, fffc03f8 <strtof+0xfffbf6d4>	3f8: R_XTENSA_SLOT0_OP	.literal+0x24
 3fb:	000d46        	j	434 <_strtod_r+0x404>	3fb: R_XTENSA_SLOT0_OP	.text+0x434
 3fe:	000031        	l32r	a3, fffc0400 <strtof+0xfffbf6dc>	3fe: R_XTENSA_SLOT0_OP	.literal+0x38
 401:	10c122        	addi	a2, a1, 16
 404:	ffbf85        	call0	0 <match>	404: R_XTENSA_SLOT0_OP	.text
 407:	e2ac      	beqz.n	a2, 439 <_strtod_r+0x409>	407: R_XTENSA_SLOT0_OP	.text+0x439
 409:	4128      	l32i.n	a2, a1, 16
 40b:	000232        	l8ui	a3, a2, 0
 40e:	822c      	movi.n	a2, 40
 410:	1d9327        	bne	a3, a2, 431 <_strtod_r+0x401>	410: R_XTENSA_SLOT0_OP	.text+0x431
 413:	000031        	l32r	a3, fffc0414 <strtof+0xfffbf6f0>	413: R_XTENSA_SLOT0_OP	.literal+0x3c
 416:	10c122        	addi	a2, a1, 16
 419:	014d      	mov.n	a4, a1
 41b:	000001        	l32r	a0, fffc041c <strtof+0xfffbf6f8>	41b: R_XTENSA_SLOT0_OP	.literal+0xdc
	41b: R_XTENSA_ASM_EXPAND	__hexnan
 41e:	0000c0        	callx0	a0
 421:	0c5266        	bnei	a2, 5, 431 <_strtod_r+0x401>	421: R_XTENSA_SLOT0_OP	.text+0x431
 424:	000021        	l32r	a2, fffc0424 <strtof+0xfffbf700>	424: R_XTENSA_SLOT0_OP	.literal+0x24
 427:	1138      	l32i.n	a3, a1, 4
 429:	01c8      	l32i.n	a12, a1, 0
 42b:	20d320        	or	a13, a3, a2
 42e:	022886        	j	cd4 <_strtod_r+0xca4>	42e: R_XTENSA_SLOT0_OP	.text+0xcd4
 431:	0000d1        	l32r	a13, fffc0434 <strtof+0xfffbf710>	431: R_XTENSA_SLOT0_OP	.literal+0x40
 434:	0c0c      	movi.n	a12, 0
 436:	022686        	j	cd4 <_strtod_r+0xca4>	436: R_XTENSA_SLOT0_OP	.text+0xcd4
 439:	0b0c      	movi.n	a11, 0
 43b:	41e9      	s32i.n	a14, a1, 16
 43d:	1161b2        	s32i	a11, a1, 68
 440:	022406        	j	cd4 <_strtod_r+0xca4>	440: R_XTENSA_SLOT0_OP	.text+0xcd4
 443:	00          	.byte 00
 444:	00          	.byte 00
 445:	91b8      	l32i.n	a11, a1, 36
 447:	c044f0        	sub	a4, a4, a15
 44a:	83b6b0        	moveqz	a11, a6, a11
 44d:	c149      	s32i.n	a4, a1, 48
 44f:	91b9      	s32i.n	a11, a1, 36
 451:	021c      	movi.n	a2, 16
 453:	20e660        	or	a14, a6, a6
 456:	02a267        	bge	a2, a6, 45c <_strtod_r+0x42c>	456: R_XTENSA_SLOT0_OP	.text+0x45c
 459:	20e220        	or	a14, a2, a2
 45c:	a128      	l32i.n	a2, a1, 40
 45e:	196162        	s32i	a6, a1, 100
 461:	186182        	s32i	a8, a1, 96
 464:	000001        	l32r	a0, fffc0464 <strtof+0xfffbf740>	464: R_XTENSA_SLOT0_OP	.literal+0xe0
	464: R_XTENSA_ASM_EXPAND	__floatunsidf
 467:	0000c0        	callx0	a0
 46a:	940c      	movi.n	a4, 9
 46c:	02cd      	mov.n	a12, a2
 46e:	03dd      	mov.n	a13, a3
 470:	192162        	l32i	a6, a1, 100
 473:	39a4e7        	bge	a4, a14, 4b0 <_strtod_r+0x480>	473: R_XTENSA_SLOT0_OP	.text+0x4b0
 476:	000051        	l32r	a5, fffc0478 <strtof+0xfffbf754>	476: R_XTENSA_SLOT0_OP	.literal+0x44
 479:	f7ce42        	addi	a4, a14, -9
 47c:	b04450        	addx8	a4, a4, a5
 47f:	1458      	l32i.n	a5, a4, 4
 481:	0448      	l32i.n	a4, a4, 0
 483:	000001        	l32r	a0, fffc0484 <strtof+0xfffbf760>	483: R_XTENSA_SLOT0_OP	.literal+0xe4
	483: R_XTENSA_ASM_EXPAND	__muldf3
 486:	0000c0        	callx0	a0
 489:	182182        	l32i	a8, a1, 96
 48c:	02cd      	mov.n	a12, a2
 48e:	202880        	or	a2, a8, a8
 491:	20d330        	or	a13, a3, a3
 494:	000001        	l32r	a0, fffc0494 <strtof+0xfffbf770>	494: R_XTENSA_SLOT0_OP	.literal+0xe8
	494: R_XTENSA_ASM_EXPAND	__floatunsidf
 497:	0000c0        	callx0	a0
 49a:	024d      	mov.n	a4, a2
 49c:	035d      	mov.n	a5, a3
 49e:	0c2d      	mov.n	a2, a12
 4a0:	203dd0        	or	a3, a13, a13
 4a3:	000001        	l32r	a0, fffc04a4 <strtof+0xfffbf780>	4a3: R_XTENSA_SLOT0_OP	.literal+0xec
	4a3: R_XTENSA_ASM_EXPAND	__adddf3
 4a6:	0000c0        	callx0	a0
 4a9:	192162        	l32i	a6, a1, 100
 4ac:	02cd      	mov.n	a12, a2
 4ae:	03dd      	mov.n	a13, a3
 4b0:	ff0c      	movi.n	a15, 15
 4b2:	7e2f67        	blt	a15, a6, 534 <_strtod_r+0x504>	4b2: R_XTENSA_SLOT0_OP	.text+0x534
 4b5:	c1b8      	l32i.n	a11, a1, 48
 4b7:	1bcc      	bnez.n	a11, 4bc <_strtod_r+0x48c>	4b7: R_XTENSA_SLOT0_OP	.text+0x4bc
 4b9:	0205c6        	j	cd4 <_strtod_r+0xca4>	4b9: R_XTENSA_SLOT0_OP	.text+0xcd4
 4bc:	521ba6        	blti	a11, 1, 512 <_strtod_r+0x4e2>	4bc: R_XTENSA_SLOT0_OP	.text+0x512
 4bf:	621c      	movi.n	a2, 22
 4c1:	1022b7        	blt	a2, a11, 4d5 <_strtod_r+0x4a5>	4c1: R_XTENSA_SLOT0_OP	.text+0x4d5
 4c4:	000041        	l32r	a4, fffc04c4 <strtof+0xfffbf7a0>	4c4: R_XTENSA_SLOT0_OP	.literal+0x44
 4c7:	0d5d      	mov.n	a5, a13
 4c9:	b04b40        	addx8	a4, a11, a4
 4cc:	0428      	l32i.n	a2, a4, 0
 4ce:	1438      	l32i.n	a3, a4, 4
 4d0:	0c4d      	mov.n	a4, a12
 4d2:	000b06        	j	502 <_strtod_r+0x4d2>	4d2: R_XTENSA_SLOT0_OP	.text+0x502
 4d5:	522c      	movi.n	a2, 37
 4d7:	c1b8      	l32i.n	a11, a1, 48
 4d9:	c02260        	sub	a2, a2, a6
 4dc:	5422b7        	blt	a2, a11, 534 <_strtod_r+0x504>	4dc: R_XTENSA_SLOT0_OP	.text+0x534
 4df:	0000e1        	l32r	a14, fffc04e0 <strtof+0xfffbf7bc>	4df: R_XTENSA_SLOT0_OP	.literal+0x44
 4e2:	c0ff60        	sub	a15, a15, a6
 4e5:	b02fe0        	addx8	a2, a15, a14
 4e8:	1238      	l32i.n	a3, a2, 4
 4ea:	0228      	l32i.n	a2, a2, 0
 4ec:	0c4d      	mov.n	a4, a12
 4ee:	0d5d      	mov.n	a5, a13
 4f0:	000001        	l32r	a0, fffc04f0 <strtof+0xfffbf7cc>	4f0: R_XTENSA_SLOT0_OP	.literal+0xf0
	4f0: R_XTENSA_ASM_EXPAND	__muldf3
 4f3:	0000c0        	callx0	a0
 4f6:	c1b8      	l32i.n	a11, a1, 48
 4f8:	c0fbf0        	sub	a15, a11, a15
 4fb:	b0cfe0        	addx8	a12, a15, a14
 4fe:	0c48      	l32i.n	a4, a12, 0
 500:	1c58      	l32i.n	a5, a12, 4
 502:	000001        	l32r	a0, fffc0504 <strtof+0xfffbf7e0>	502: R_XTENSA_SLOT0_OP	.literal+0xf4
	502: R_XTENSA_ASM_EXPAND	__muldf3
 505:	0000c0        	callx0	a0
 508:	02cd      	mov.n	a12, a2
 50a:	03dd      	mov.n	a13, a3
 50c:	01f106        	j	cd4 <_strtod_r+0xca4>	50c: R_XTENSA_SLOT0_OP	.text+0xcd4
 50f:	00          	.byte 00
 510:	00          	.byte 00
 511:	00          	.byte 00
 512:	c1b8      	l32i.n	a11, a1, 48
 514:	a26c      	movi.n	a2, -22
 516:	1a2b27        	blt	a11, a2, 534 <_strtod_r+0x504>	516: R_XTENSA_SLOT0_OP	.text+0x534
 519:	000021        	l32r	a2, fffc051c <strtof+0xfffbf7f8>	519: R_XTENSA_SLOT0_OP	.literal+0x44
 51c:	6040b0        	neg	a4, a11
 51f:	b04420        	addx8	a4, a4, a2
 522:	1458      	l32i.n	a5, a4, 4
 524:	0448      	l32i.n	a4, a4, 0
 526:	0c2d      	mov.n	a2, a12
 528:	0d3d      	mov.n	a3, a13
 52a:	000001        	l32r	a0, fffc052c <strtof+0xfffbf808>	52a: R_XTENSA_SLOT0_OP	.literal+0xf8
	52a: R_XTENSA_ASM_EXPAND	__divdf3
 52d:	0000c0        	callx0	a0
 530:	fff506        	j	508 <_strtod_r+0x4d8>	530: R_XTENSA_SLOT0_OP	.text+0x508
 533:	00          	.byte 00
 534:	c1b8      	l32i.n	a11, a1, 48
 536:	c076e0        	sub	a7, a6, a14
 539:	eb7a      	add.n	a14, a11, a7
 53b:	021ee6        	bgei	a14, 1, 541 <_strtod_r+0x511>	53b: R_XTENSA_SLOT0_OP	.text+0x541
 53e:	0031c6        	j	609 <_strtod_r+0x5d9>	53e: R_XTENSA_SLOT0_OP	.text+0x609
 541:	3420e0        	extui	a2, a14, 0, 4
 544:	c29c      	beqz.n	a2, 564 <_strtod_r+0x534>	544: R_XTENSA_SLOT0_OP	.text+0x564
 546:	000031        	l32r	a3, fffc0548 <strtof+0xfffbf824>	546: R_XTENSA_SLOT0_OP	.literal+0x44
 549:	0c4d      	mov.n	a4, a12
 54b:	b02230        	addx8	a2, a2, a3
 54e:	1238      	l32i.n	a3, a2, 4
 550:	0228      	l32i.n	a2, a2, 0
 552:	0d5d      	mov.n	a5, a13
 554:	196162        	s32i	a6, a1, 100
 557:	000001        	l32r	a0, fffc0558 <strtof+0xfffbf834>	557: R_XTENSA_SLOT0_OP	.literal+0xfc
	557: R_XTENSA_ASM_EXPAND	__muldf3
 55a:	0000c0        	callx0	a0
 55d:	192162        	l32i	a6, a1, 100
 560:	02cd      	mov.n	a12, a2
 562:	03dd      	mov.n	a13, a3
 564:	077c      	movi.n	a7, -16
 566:	107e70        	and	a7, a14, a7
 569:	180716        	beqz	a7, 6ed <_strtod_r+0x6bd>	569: R_XTENSA_SLOT0_OP	.text+0x6ed
 56c:	34a122        	movi	a2, 0x134
 56f:	1da277        	bge	a2, a7, 590 <_strtod_r+0x560>	56f: R_XTENSA_SLOT0_OP	.text+0x590
 572:	0e0c      	movi.n	a14, 0
 574:	0efd      	mov.n	a15, a14
 576:	a1e9      	s32i.n	a14, a1, 40
 578:	91e9      	s32i.n	a14, a1, 36
 57a:	81b8      	l32i.n	a11, a1, 32
 57c:	222c      	movi.n	a2, 34
 57e:	0b29      	s32i.n	a2, a11, 0
 580:	a1b8      	l32i.n	a11, a1, 40
 582:	0c0c      	movi.n	a12, 0
 584:	0000d1        	l32r	a13, fffc0584 <strtof+0xfffbf860>	584: R_XTENSA_SLOT0_OP	.literal+0x24
 587:	021bc7        	beq	a11, a12, 58d <_strtod_r+0x55d>	587: R_XTENSA_SLOT0_OP	.text+0x58d
 58a:	01c506        	j	ca2 <_strtod_r+0xc72>	58a: R_XTENSA_SLOT0_OP	.text+0xca2
 58d:	01d0c6        	j	cd4 <_strtod_r+0xca4>	58d: R_XTENSA_SLOT0_OP	.text+0xcd4
 590:	0c2d      	mov.n	a2, a12
 592:	21e470        	srai	a14, a7, 4
 595:	0d3d      	mov.n	a3, a13
 597:	0f0c      	movi.n	a15, 0
 599:	0000c1        	l32r	a12, fffc059c <strtof+0xfffbf878>	599: R_XTENSA_SLOT0_OP	.literal+0x48
 59c:	000746        	j	5bd <_strtod_r+0x58d>	59c: R_XTENSA_SLOT0_OP	.text+0x5bd
 59f:	00          	.byte 00
 5a0:	00          	.byte 00
 5a1:	136e07        	bbci	a14, 0, 5b8 <_strtod_r+0x588>	5a1: R_XTENSA_SLOT0_OP	.text+0x5b8
 5a4:	b04fc0        	addx8	a4, a15, a12
 5a7:	1458      	l32i.n	a5, a4, 4
 5a9:	002442        	l32i	a4, a4, 0
 5ac:	196162        	s32i	a6, a1, 100
 5af:	000001        	l32r	a0, fffc05b0 <strtof+0xfffbf88c>	5af: R_XTENSA_SLOT0_OP	.literal+0x100
	5af: R_XTENSA_ASM_EXPAND	__muldf3
 5b2:	0000c0        	callx0	a0
 5b5:	192162        	l32i	a6, a1, 100
 5b8:	ff1b      	addi.n	a15, a15, 1
 5ba:	21e1e0        	srai	a14, a14, 1
 5bd:	e02ee6        	bgei	a14, 2, 5a1 <_strtod_r+0x571>	5bd: R_XTENSA_SLOT0_OP	.text+0x5a1
 5c0:	02cd      	mov.n	a12, a2
 5c2:	000021        	l32r	a2, fffc05c4 <strtof+0xfffbf8a0>	5c2: R_XTENSA_SLOT0_OP	.literal+0x4c
 5c5:	0c4d      	mov.n	a4, a12
 5c7:	d23a      	add.n	a13, a2, a3
 5c9:	000021        	l32r	a2, fffc05cc <strtof+0xfffbf8a8>	5c9: R_XTENSA_SLOT0_OP	.literal+0x48
 5cc:	0d5d      	mov.n	a5, a13
 5ce:	b0ff20        	addx8	a15, a15, a2
 5d1:	0f28      	l32i.n	a2, a15, 0
 5d3:	1f38      	l32i.n	a3, a15, 4
 5d5:	196162        	s32i	a6, a1, 100
 5d8:	000001        	l32r	a0, fffc05d8 <strtof+0xfffbf8b4>	5d8: R_XTENSA_SLOT0_OP	.literal+0x104
	5d8: R_XTENSA_ASM_EXPAND	__muldf3
 5db:	0000c0        	callx0	a0
 5de:	02cd      	mov.n	a12, a2
 5e0:	000021        	l32r	a2, fffc05e0 <strtof+0xfffbf8bc>	5e0: R_XTENSA_SLOT0_OP	.literal+0x24
 5e3:	03dd      	mov.n	a13, a3
 5e5:	000041        	l32r	a4, fffc05e8 <strtof+0xfffbf8c4>	5e5: R_XTENSA_SLOT0_OP	.literal+0x50
 5e8:	1022d0        	and	a2, a2, a13
 5eb:	192162        	l32i	a6, a1, 100
 5ee:	803427        	bltu	a4, a2, 572 <_strtod_r+0x542>	5ee: R_XTENSA_SLOT0_OP	.text+0x572
 5f1:	000041        	l32r	a4, fffc05f4 <strtof+0xfffbf8d0>	5f1: R_XTENSA_SLOT0_OP	.literal+0x54
 5f4:	08b427        	bgeu	a4, a2, 600 <_strtod_r+0x5d0>	5f4: R_XTENSA_SLOT0_OP	.text+0x600
 5f7:	0000d1        	l32r	a13, fffc05f8 <strtof+0xfffbf8d4>	5f7: R_XTENSA_SLOT0_OP	.literal+0x58
 5fa:	fc7c      	movi.n	a12, -1
 5fc:	003b46        	j	6ed <_strtod_r+0x6bd>	5fc: R_XTENSA_SLOT0_OP	.text+0x6ed
 5ff:	00          	.byte 00
 600:	000021        	l32r	a2, fffc0600 <strtof+0xfffbf8dc>	600: R_XTENSA_SLOT0_OP	.literal+0x5c
 603:	d32a      	add.n	a13, a3, a2
 605:	003906        	j	6ed <_strtod_r+0x6bd>	605: R_XTENSA_SLOT0_OP	.text+0x6ed
 608:	00          	.byte 00
 609:	0e0e16        	beqz	a14, 6ed <_strtod_r+0x6bd>	609: R_XTENSA_SLOT0_OP	.text+0x6ed
 60c:	60e0e0        	neg	a14, a14
 60f:	3420e0        	extui	a2, a14, 0, 4
 612:	e29c      	beqz.n	a2, 634 <_strtod_r+0x604>	612: R_XTENSA_SLOT0_OP	.text+0x634
 614:	000041        	l32r	a4, fffc0614 <strtof+0xfffbf8f0>	614: R_XTENSA_SLOT0_OP	.literal+0x44
 617:	0d3d      	mov.n	a3, a13
 619:	b04240        	addx8	a4, a2, a4
 61c:	1458      	l32i.n	a5, a4, 4
 61e:	0448      	l32i.n	a4, a4, 0
 620:	202cc0        	or	a2, a12, a12
 623:	196162        	s32i	a6, a1, 100
 626:	000001        	l32r	a0, fffc0628 <strtof+0xfffbf904>	626: R_XTENSA_SLOT0_OP	.literal+0x108
	626: R_XTENSA_ASM_EXPAND	__divdf3
 629:	0000c0        	callx0	a0
 62c:	192162        	l32i	a6, a1, 100
 62f:	02cd      	mov.n	a12, a2
 631:	20d330        	or	a13, a3, a3
 634:	21e4e0        	srai	a14, a14, 4
 637:	0b2e16        	beqz	a14, 6ed <_strtod_r+0x6bd>	637: R_XTENSA_SLOT0_OP	.text+0x6ed
 63a:	1fa022        	movi	a2, 31
 63d:	0aa2e7        	bge	a2, a14, 64b <_strtod_r+0x61b>	63d: R_XTENSA_SLOT0_OP	.text+0x64b
 640:	0e0c      	movi.n	a14, 0
 642:	0efd      	mov.n	a15, a14
 644:	a1e9      	s32i.n	a14, a1, 40
 646:	91e9      	s32i.n	a14, a1, 36
 648:	002346        	j	6d9 <_strtod_r+0x6a9>	648: R_XTENSA_SLOT0_OP	.text+0x6d9
 64b:	031c      	movi.n	a3, 16
 64d:	103e30        	and	a3, a14, a3
 650:	6aa022        	movi	a2, 106
 653:	0b0c      	movi.n	a11, 0
 655:	93b230        	movnez	a11, a2, a3
 658:	b1b9      	s32i.n	a11, a1, 44
 65a:	0c2d      	mov.n	a2, a12
 65c:	0d3d      	mov.n	a3, a13
 65e:	0000f1        	l32r	a15, fffc0660 <strtof+0xfffbf93c>	65e: R_XTENSA_SLOT0_OP	.literal+0x60
 661:	000606        	j	67d <_strtod_r+0x64d>	661: R_XTENSA_SLOT0_OP	.text+0x67d
 664:	00          	.byte 00
 665:	0f6e07        	bbci	a14, 0, 678 <_strtod_r+0x648>	665: R_XTENSA_SLOT0_OP	.text+0x678
 668:	0f48      	l32i.n	a4, a15, 0
 66a:	1f58      	l32i.n	a5, a15, 4
 66c:	196162        	s32i	a6, a1, 100
 66f:	000001        	l32r	a0, fffc0670 <strtof+0xfffbf94c>	66f: R_XTENSA_SLOT0_OP	.literal+0x10c
	66f: R_XTENSA_ASM_EXPAND	__muldf3
 672:	0000c0        	callx0	a0
 675:	192162        	l32i	a6, a1, 100
 678:	21e1e0        	srai	a14, a14, 1
 67b:	ff8b      	addi.n	a15, a15, 8
 67d:	e41ee6        	bgei	a14, 1, 665 <_strtod_r+0x635>	67d: R_XTENSA_SLOT0_OP	.text+0x665
 680:	b1b8      	l32i.n	a11, a1, 44
 682:	02cd      	mov.n	a12, a2
 684:	03dd      	mov.n	a13, a3
 686:	3bbc      	beqz.n	a11, 6bd <_strtod_r+0x68d>	686: R_XTENSA_SLOT0_OP	.text+0x6bd
 688:	a524d0        	extui	a2, a13, 20, 11
 68b:	6ba042        	movi	a4, 107
 68e:	c02420        	sub	a2, a4, a2
 691:	2812a6        	blti	a2, 1, 6bd <_strtod_r+0x68d>	691: R_XTENSA_SLOT0_OP	.text+0x6bd
 694:	f41c      	movi.n	a4, 31
 696:	18a427        	bge	a4, a2, 6b2 <_strtod_r+0x682>	696: R_XTENSA_SLOT0_OP	.text+0x6b2
 699:	443c      	movi.n	a4, 52
 69b:	0c0c      	movi.n	a12, 0
 69d:	0000d1        	l32r	a13, fffc06a0 <strtof+0xfffbf97c>	69d: R_XTENSA_SLOT0_OP	.literal+0x64
 6a0:	192427        	blt	a4, a2, 6bd <_strtod_r+0x68d>	6a0: R_XTENSA_SLOT0_OP	.text+0x6bd
 6a3:	f47c      	movi.n	a4, -1
 6a5:	401200        	ssl	a2
 6a8:	a12400        	sll	a2, a4
 6ab:	10d230        	and	a13, a2, a3
 6ae:	0002c6        	j	6bd <_strtod_r+0x68d>	6ae: R_XTENSA_SLOT0_OP	.text+0x6bd
 6b1:	00          	.byte 00
 6b2:	f37c      	movi.n	a3, -1
 6b4:	401200        	ssl	a2
 6b7:	a12300        	sll	a2, a3
 6ba:	10c2c0        	and	a12, a2, a12
 6bd:	000041        	l32r	a4, fffc06c0 <strtof+0xfffbf99c>	6bd: R_XTENSA_SLOT0_OP	.literal+0x14
 6c0:	000051        	l32r	a5, fffc06c0 <strtof+0xfffbf99c>	6c0: R_XTENSA_SLOT0_OP	.literal+0x18
 6c3:	0c2d      	mov.n	a2, a12
 6c5:	0d3d      	mov.n	a3, a13
 6c7:	196162        	s32i	a6, a1, 100
 6ca:	000001        	l32r	a0, fffc06cc <strtof+0xfffbf9a8>	6ca: R_XTENSA_SLOT0_OP	.literal+0x110
	6ca: R_XTENSA_ASM_EXPAND	__eqdf2
 6cd:	0000c0        	callx0	a0
 6d0:	192162        	l32i	a6, a1, 100
 6d3:	f69216        	beqz	a2, 640 <_strtod_r+0x610>	6d3: R_XTENSA_SLOT0_OP	.text+0x640
 6d6:	0005c6        	j	6f1 <_strtod_r+0x6c1>	6d6: R_XTENSA_SLOT0_OP	.text+0x6f1
 6d9:	81b8      	l32i.n	a11, a1, 32
 6db:	222c      	movi.n	a2, 34
 6dd:	0b29      	s32i.n	a2, a11, 0
 6df:	a1b8      	l32i.n	a11, a1, 40
 6e1:	0000c1        	l32r	a12, fffc06e4 <strtof+0xfffbf9c0>	6e1: R_XTENSA_SLOT0_OP	.literal+0x14
 6e4:	0000d1        	l32r	a13, fffc06e4 <strtof+0xfffbf9c0>	6e4: R_XTENSA_SLOT0_OP	.literal+0x18
 6e7:	5b7b56        	bnez	a11, ca2 <_strtod_r+0xc72>	6e7: R_XTENSA_SLOT0_OP	.text+0xca2
 6ea:	017986        	j	cd4 <_strtod_r+0xca4>	6ea: R_XTENSA_SLOT0_OP	.text+0xcd4
 6ed:	0b0c      	movi.n	a11, 0
 6ef:	b1b9      	s32i.n	a11, a1, 44
 6f1:	e138      	l32i.n	a3, a1, 56
 6f3:	065d      	mov.n	a5, a6
 6f5:	8128      	l32i.n	a2, a1, 32
 6f7:	9148      	l32i.n	a4, a1, 36
 6f9:	a168      	l32i.n	a6, a1, 40
 6fb:	000001        	l32r	a0, fffc06fc <strtof+0xfffbf9d8>	6fb: R_XTENSA_SLOT0_OP	.literal+0x114
	6fb: R_XTENSA_ASM_EXPAND	__s2b
 6fe:	0000c0        	callx0	a0
 701:	c1b8      	l32i.n	a11, a1, 48
 703:	c138      	l32i.n	a3, a1, 48
 705:	a129      	s32i.n	a2, a1, 40
 707:	6020b0        	neg	a2, a11
 70a:	0b0c      	movi.n	a11, 0
 70c:	a3b230        	movltz	a11, a2, a3
 70f:	1061b2        	s32i	a11, a1, 64
 712:	a1b8      	l32i.n	a11, a1, 40
 714:	8128      	l32i.n	a2, a1, 32
 716:	1b38      	l32i.n	a3, a11, 4
 718:	000001        	l32r	a0, fffc0718 <strtof+0xfffbf9f4>	718: R_XTENSA_SLOT0_OP	.literal+0x118
	718: R_XTENSA_ASM_EXPAND	_Balloc
 71b:	0000c0        	callx0	a0
 71e:	a1b8      	l32i.n	a11, a1, 40
 720:	9129      	s32i.n	a2, a1, 36
 722:	4b48      	l32i.n	a4, a11, 16
 724:	3bcb      	addi.n	a3, a11, 12
 726:	442b      	addi.n	a4, a4, 2
 728:	1144e0        	slli	a4, a4, 2
 72b:	0cc222        	addi	a2, a2, 12
 72e:	000001        	l32r	a0, fffc0730 <strtof+0xfffbfa0c>	72e: R_XTENSA_SLOT0_OP	.literal+0x11c
	72e: R_XTENSA_ASM_EXPAND	memcpy
 731:	0000c0        	callx0	a0
 734:	8128      	l32i.n	a2, a1, 32
 736:	0d5d      	mov.n	a5, a13
 738:	0c4d      	mov.n	a4, a12
 73a:	618b      	addi.n	a6, a1, 8
 73c:	017d      	mov.n	a7, a1
 73e:	e1c9      	s32i.n	a12, a1, 56
 740:	0f61d2        	s32i	a13, a1, 60
 743:	000001        	l32r	a0, fffc0744 <strtof+0xfffbfa20>	743: R_XTENSA_SLOT0_OP	.literal+0x120
	743: R_XTENSA_ASM_EXPAND	__d2b
 746:	0000c0        	callx0	a0
 749:	3129      	s32i.n	a2, a1, 12
 74b:	8128      	l32i.n	a2, a1, 32
 74d:	130c      	movi.n	a3, 1
 74f:	000001        	l32r	a0, fffc0750 <strtof+0xfffbfa2c>	74f: R_XTENSA_SLOT0_OP	.literal+0x124
	74f: R_XTENSA_ASM_EXPAND	__i2b
 752:	0000c0        	callx0	a0
 755:	c1b8      	l32i.n	a11, a1, 48
 757:	050c      	movi.n	a5, 0
 759:	02fd      	mov.n	a15, a2
 75b:	01a5b7        	bge	a5, a11, 760 <_strtod_r+0x730>	75b: R_XTENSA_SLOT0_OP	.text+0x760
 75e:	0b5d      	mov.n	a5, a11
 760:	2128      	l32i.n	a2, a1, 8
 762:	00a296        	bltz	a2, 770 <_strtod_r+0x740>	762: R_XTENSA_SLOT0_OP	.text+0x770
 765:	1021b2        	l32i	a11, a1, 64
 768:	05ed      	mov.n	a14, a5
 76a:	7b2a      	add.n	a7, a11, a2
 76c:	000186        	j	776 <_strtod_r+0x746>	76c: R_XTENSA_SLOT0_OP	.text+0x776
 76f:	00          	.byte 00
 770:	102172        	l32i	a7, a1, 64
 773:	c0e520        	sub	a14, a5, a2
 776:	b1b8      	l32i.n	a11, a1, 44
 778:	0138      	l32i.n	a3, a1, 0
 77a:	c022b0        	sub	a2, a2, a11
 77d:	623a      	add.n	a6, a2, a3
 77f:	03ac42        	movi	a4, 0xfffffc03
 782:	07a647        	bge	a6, a4, 78d <_strtod_r+0x75d>	782: R_XTENSA_SLOT0_OP	.text+0x78d
 785:	33a432        	movi	a3, 0x433
 788:	223a      	add.n	a2, a2, a3
 78a:	000106        	j	792 <_strtod_r+0x762>	78a: R_XTENSA_SLOT0_OP	.text+0x792
 78d:	623c      	movi.n	a2, 54
 78f:	c02230        	sub	a2, a2, a3
 792:	b1b8      	l32i.n	a11, a1, 44
 794:	ee2a      	add.n	a14, a14, a2
 796:	672a      	add.n	a6, a7, a2
 798:	eeba      	add.n	a14, a14, a11
 79a:	062d      	mov.n	a2, a6
 79c:	01a767        	bge	a7, a6, 7a1 <_strtod_r+0x771>	79c: R_XTENSA_SLOT0_OP	.text+0x7a1
 79f:	072d      	mov.n	a2, a7
 7a1:	01ae27        	bge	a14, a2, 7a6 <_strtod_r+0x776>	7a1: R_XTENSA_SLOT0_OP	.text+0x7a6
 7a4:	0e2d      	mov.n	a2, a14
 7a6:	0812a6        	blti	a2, 1, 7b2 <_strtod_r+0x782>	7a6: R_XTENSA_SLOT0_OP	.text+0x7b2
 7a9:	c06620        	sub	a6, a6, a2
 7ac:	c0ee20        	sub	a14, a14, a2
 7af:	c07720        	sub	a7, a7, a2
 7b2:	1021b2        	l32i	a11, a1, 64
 7b5:	fbbc      	beqz.n	a11, 7f8 <_strtod_r+0x7c8>	7b5: R_XTENSA_SLOT0_OP	.text+0x7f8
 7b7:	8128      	l32i.n	a2, a1, 32
 7b9:	0b4d      	mov.n	a4, a11
 7bb:	0f3d      	mov.n	a3, a15
 7bd:	176152        	s32i	a5, a1, 92
 7c0:	196162        	s32i	a6, a1, 100
 7c3:	186172        	s32i	a7, a1, 96
 7c6:	000001        	l32r	a0, fffc07c8 <strtof+0xfffbfaa4>	7c6: R_XTENSA_SLOT0_OP	.literal+0x128
	7c6: R_XTENSA_ASM_EXPAND	__pow5mult
 7c9:	0000c0        	callx0	a0
 7cc:	02fd      	mov.n	a15, a2
 7ce:	3148      	l32i.n	a4, a1, 12
 7d0:	8128      	l32i.n	a2, a1, 32
 7d2:	0f3d      	mov.n	a3, a15
 7d4:	000001        	l32r	a0, fffc07d4 <strtof+0xfffbfab0>	7d4: R_XTENSA_SLOT0_OP	.literal+0x12c
	7d4: R_XTENSA_ASM_EXPAND	__multiply
 7d7:	0000c0        	callx0	a0
 7da:	024d      	mov.n	a4, a2
 7dc:	3138      	l32i.n	a3, a1, 12
 7de:	8128      	l32i.n	a2, a1, 32
 7e0:	166142        	s32i	a4, a1, 88
 7e3:	000001        	l32r	a0, fffc07e4 <strtof+0xfffbfac0>	7e3: R_XTENSA_SLOT0_OP	.literal+0x130
	7e3: R_XTENSA_ASM_EXPAND	_Bfree
 7e6:	0000c0        	callx0	a0
 7e9:	162142        	l32i	a4, a1, 88
 7ec:	182172        	l32i	a7, a1, 96
 7ef:	192162        	l32i	a6, a1, 100
 7f2:	172152        	l32i	a5, a1, 92
 7f5:	036142        	s32i	a4, a1, 12
 7f8:	1916a6        	blti	a6, 1, 815 <_strtod_r+0x7e5>	7f8: R_XTENSA_SLOT0_OP	.text+0x815
 7fb:	8128      	l32i.n	a2, a1, 32
 7fd:	3138      	l32i.n	a3, a1, 12
 7ff:	064d      	mov.n	a4, a6
 801:	176152        	s32i	a5, a1, 92
 804:	186172        	s32i	a7, a1, 96
 807:	000001        	l32r	a0, fffc0808 <strtof+0xfffbfae4>	807: R_XTENSA_SLOT0_OP	.literal+0x134
	807: R_XTENSA_ASM_EXPAND	__lshift
 80a:	0000c0        	callx0	a0
 80d:	182172        	l32i	a7, a1, 96
 810:	172152        	l32i	a5, a1, 92
 813:	3129      	s32i.n	a2, a1, 12
 815:	459c      	beqz.n	a5, 82d <_strtod_r+0x7fd>	815: R_XTENSA_SLOT0_OP	.text+0x82d
 817:	082122        	l32i	a2, a1, 32
 81a:	092132        	l32i	a3, a1, 36
 81d:	054d      	mov.n	a4, a5
 81f:	186172        	s32i	a7, a1, 96
 822:	000001        	l32r	a0, fffc0824 <strtof+0xfffbfb00>	822: R_XTENSA_SLOT0_OP	.literal+0x138
	822: R_XTENSA_ASM_EXPAND	__pow5mult
 825:	0000c0        	callx0	a0
 828:	182172        	l32i	a7, a1, 96
 82b:	9129      	s32i.n	a2, a1, 36
 82d:	141ea6        	blti	a14, 1, 845 <_strtod_r+0x815>	82d: R_XTENSA_SLOT0_OP	.text+0x845
 830:	8128      	l32i.n	a2, a1, 32
 832:	092132        	l32i	a3, a1, 36
 835:	0e4d      	mov.n	a4, a14
 837:	186172        	s32i	a7, a1, 96
 83a:	000001        	l32r	a0, fffc083c <strtof+0xfffbfb18>	83a: R_XTENSA_SLOT0_OP	.literal+0x13c
	83a: R_XTENSA_ASM_EXPAND	__lshift
 83d:	0000c0        	callx0	a0
 840:	182172        	l32i	a7, a1, 96
 843:	9129      	s32i.n	a2, a1, 36
 845:	0d17a6        	blti	a7, 1, 856 <_strtod_r+0x826>	845: R_XTENSA_SLOT0_OP	.text+0x856
 848:	8128      	l32i.n	a2, a1, 32
 84a:	0f3d      	mov.n	a3, a15
 84c:	074d      	mov.n	a4, a7
 84e:	000001        	l32r	a0, fffc0850 <strtof+0xfffbfb2c>	84e: R_XTENSA_SLOT0_OP	.literal+0x140
	84e: R_XTENSA_ASM_EXPAND	__lshift
 851:	0000c0        	callx0	a0
 854:	02fd      	mov.n	a15, a2
 856:	3138      	l32i.n	a3, a1, 12
 858:	8128      	l32i.n	a2, a1, 32
 85a:	9148      	l32i.n	a4, a1, 36
 85c:	000001        	l32r	a0, fffc085c <strtof+0xfffbfb38>	85c: R_XTENSA_SLOT0_OP	.literal+0x144
	85c: R_XTENSA_ASM_EXPAND	__mdiff
 85f:	0000c0        	callx0	a0
 862:	02ed      	mov.n	a14, a2
 864:	3268      	l32i.n	a6, a2, 12
 866:	020c      	movi.n	a2, 0
 868:	3e29      	s32i.n	a2, a14, 12
 86a:	0f3d      	mov.n	a3, a15
 86c:	202ee0        	or	a2, a14, a14
 86f:	0d6162        	s32i	a6, a1, 52
 872:	000001        	l32r	a0, fffc0874 <strtof+0xfffbfb50>	872: R_XTENSA_SLOT0_OP	.literal+0x148
	872: R_XTENSA_ASM_EXPAND	__mcmp
 875:	0000c0        	callx0	a0
 878:	04c2d6        	bgez	a2, 8c8 <_strtod_r+0x898>	878: R_XTENSA_SLOT0_OP	.text+0x8c8
 87b:	d1b8      	l32i.n	a11, a1, 52
 87d:	3f4b56        	bnez	a11, c75 <_strtod_r+0xc45>	87d: R_XTENSA_SLOT0_OP	.text+0xc75
 880:	3f1c56        	bnez	a12, c75 <_strtod_r+0xc45>	880: R_XTENSA_SLOT0_OP	.text+0xc75
 883:	000021        	l32r	a2, fffc0884 <strtof+0xfffbfb60>	883: R_XTENSA_SLOT0_OP	.literal+0x68
 886:	0202d7        	bnone	a2, a13, 88c <_strtod_r+0x85c>	886: R_XTENSA_SLOT0_OP	.text+0x88c
 889:	00fa06        	j	c75 <_strtod_r+0xc45>	889: R_XTENSA_SLOT0_OP	.text+0xc75
 88c:	000021        	l32r	a2, fffc088c <strtof+0xfffbfb68>	88c: R_XTENSA_SLOT0_OP	.literal+0x24
 88f:	000031        	l32r	a3, fffc0890 <strtof+0xfffbfb6c>	88f: R_XTENSA_SLOT0_OP	.literal+0x6c
 892:	1022d0        	and	a2, a2, a13
 895:	023327        	bltu	a3, a2, 89b <_strtod_r+0x86b>	895: R_XTENSA_SLOT0_OP	.text+0x89b
 898:	00f646        	j	c75 <_strtod_r+0xc45>	898: R_XTENSA_SLOT0_OP	.text+0xc75
 89b:	5e28      	l32i.n	a2, a14, 20
 89d:	007256        	bnez	a2, 8a8 <_strtod_r+0x878>	89d: R_XTENSA_SLOT0_OP	.text+0x8a8
 8a0:	4e28      	l32i.n	a2, a14, 16
 8a2:	0222e6        	bgei	a2, 2, 8a8 <_strtod_r+0x878>	8a2: R_XTENSA_SLOT0_OP	.text+0x8a8
 8a5:	00f306        	j	c75 <_strtod_r+0xc45>	8a5: R_XTENSA_SLOT0_OP	.text+0xc75
 8a8:	8128      	l32i.n	a2, a1, 32
 8aa:	203ee0        	or	a3, a14, a14
 8ad:	01a042        	movi	a4, 1
 8b0:	000001        	l32r	a0, fffc08b0 <strtof+0xfffbfb8c>	8b0: R_XTENSA_SLOT0_OP	.literal+0x14c
	8b0: R_XTENSA_ASM_EXPAND	__lshift
 8b3:	0000c0        	callx0	a0
 8b6:	0f3d      	mov.n	a3, a15
 8b8:	02ed      	mov.n	a14, a2
 8ba:	000001        	l32r	a0, fffc08bc <strtof+0xfffbfb98>	8ba: R_XTENSA_SLOT0_OP	.literal+0x150
	8ba: R_XTENSA_ASM_EXPAND	__mcmp
 8bd:	0000c0        	callx0	a0
 8c0:	5112e6        	bgei	a2, 1, 915 <_strtod_r+0x8e5>	8c0: R_XTENSA_SLOT0_OP	.text+0x915
 8c3:	00eb86        	j	c75 <_strtod_r+0xc45>	8c3: R_XTENSA_SLOT0_OP	.text+0xc75
 8c6:	00          	.byte 00
 8c7:	00          	.byte 00
 8c8:	0ce256        	bnez	a2, 99a <_strtod_r+0x96a>	8c8: R_XTENSA_SLOT0_OP	.text+0x99a
 8cb:	d168      	l32i.n	a6, a1, 52
 8cd:	000021        	l32r	a2, fffc08d0 <strtof+0xfffbfbac>	8cd: R_XTENSA_SLOT0_OP	.literal+0x68
 8d0:	c6bc      	beqz.n	a6, 910 <_strtod_r+0x8e0>	8d0: R_XTENSA_SLOT0_OP	.text+0x910
 8d2:	1042d0        	and	a4, a2, a13
 8d5:	0d3d      	mov.n	a3, a13
 8d7:	699427        	bne	a4, a2, 944 <_strtod_r+0x914>	8d7: R_XTENSA_SLOT0_OP	.text+0x944
 8da:	b1b8      	l32i.n	a11, a1, 44
 8dc:	0c5d      	mov.n	a5, a12
 8de:	f27c      	movi.n	a2, -1
 8e0:	9b9c      	beqz.n	a11, 8fd <_strtod_r+0x8cd>	8e0: R_XTENSA_SLOT0_OP	.text+0x8fd
 8e2:	000041        	l32r	a4, fffc08e4 <strtof+0xfffbfbc0>	8e2: R_XTENSA_SLOT0_OP	.literal+0x24
 8e5:	000061        	l32r	a6, fffc08e8 <strtof+0xfffbfbc4>	8e5: R_XTENSA_SLOT0_OP	.literal+0x70
 8e8:	104d40        	and	a4, a13, a4
 8eb:	0e3647        	bltu	a6, a4, 8fd <_strtod_r+0x8cd>	8eb: R_XTENSA_SLOT0_OP	.text+0x8fd
 8ee:	b54440        	extui	a4, a4, 20, 12
 8f1:	6ba062        	movi	a6, 107
 8f4:	c04640        	sub	a4, a6, a4
 8f7:	401400        	ssl	a4
 8fa:	a12200        	sll	a2, a2
 8fd:	439527        	bne	a5, a2, 944 <_strtod_r+0x914>	8fd: R_XTENSA_SLOT0_OP	.text+0x944
 900:	000021        	l32r	a2, fffc0900 <strtof+0xfffbfbdc>	900: R_XTENSA_SLOT0_OP	.literal+0x24
 903:	0c0c      	movi.n	a12, 0
 905:	103320        	and	a3, a3, a2
 908:	000021        	l32r	a2, fffc0908 <strtof+0xfffbfbe4>	908: R_XTENSA_SLOT0_OP	.literal+0x74
 90b:	d32a      	add.n	a13, a3, a2
 90d:	00d906        	j	c75 <_strtod_r+0xc45>	90d: R_XTENSA_SLOT0_OP	.text+0xc75
 910:	3082d7        	bany	a2, a13, 944 <_strtod_r+0x914>	910: R_XTENSA_SLOT0_OP	.text+0x944
 913:	dcec      	bnez.n	a12, 944 <_strtod_r+0x914>	913: R_XTENSA_SLOT0_OP	.text+0x944
 915:	b1b8      	l32i.n	a11, a1, 44
 917:	000021        	l32r	a2, fffc0918 <strtof+0xfffbfbf4>	917: R_XTENSA_SLOT0_OP	.literal+0x24
 91a:	3b9c      	beqz.n	a11, 931 <_strtod_r+0x901>	91a: R_XTENSA_SLOT0_OP	.text+0x931
 91c:	000041        	l32r	a4, fffc091c <strtof+0xfffbfbf8>	91c: R_XTENSA_SLOT0_OP	.literal+0x6c
 91f:	1032d0        	and	a3, a2, a13
 922:	0b3437        	bltu	a4, a3, 931 <_strtod_r+0x901>	922: R_XTENSA_SLOT0_OP	.text+0x931
 925:	000021        	l32r	a2, fffc0928 <strtof+0xfffbfc04>	925: R_XTENSA_SLOT0_OP	.literal+0x64
 928:	02b237        	bgeu	a2, a3, 92e <_strtod_r+0x8fe>	928: R_XTENSA_SLOT0_OP	.text+0x92e
 92b:	00d286        	j	c79 <_strtod_r+0xc49>	92b: R_XTENSA_SLOT0_OP	.text+0xc79
 92e:	ff69c6        	j	6d9 <_strtod_r+0x6a9>	92e: R_XTENSA_SLOT0_OP	.text+0x6d9
 931:	000031        	l32r	a3, fffc0934 <strtof+0xfffbfc10>	931: R_XTENSA_SLOT0_OP	.literal+0x78
 934:	1022d0        	and	a2, a2, a13
 937:	223a      	add.n	a2, a2, a3
 939:	000031        	l32r	a3, fffc093c <strtof+0xfffbfc18>	939: R_XTENSA_SLOT0_OP	.literal+0x68
 93c:	fc7c      	movi.n	a12, -1
 93e:	20d230        	or	a13, a2, a3
 941:	00cc06        	j	c75 <_strtod_r+0xc45>	941: R_XTENSA_SLOT0_OP	.text+0xc75
 944:	0420c0        	extui	a2, a12, 0, 1
 947:	32a216        	beqz	a2, c75 <_strtod_r+0xc45>	947: R_XTENSA_SLOT0_OP	.text+0xc75
 94a:	d168      	l32i.n	a6, a1, 52
 94c:	e128      	l32i.n	a2, a1, 56
 94e:	f138      	l32i.n	a3, a1, 60
 950:	969c      	beqz.n	a6, 96d <_strtod_r+0x93d>	950: R_XTENSA_SLOT0_OP	.text+0x96d
 952:	000001        	l32r	a0, fffc0954 <strtof+0xfffbfc30>	952: R_XTENSA_SLOT0_OP	.literal+0x154
	952: R_XTENSA_ASM_EXPAND	__ulp
 955:	0000c0        	callx0	a0
 958:	024d      	mov.n	a4, a2
 95a:	035d      	mov.n	a5, a3
 95c:	e128      	l32i.n	a2, a1, 56
 95e:	f138      	l32i.n	a3, a1, 60
 960:	000001        	l32r	a0, fffc0960 <strtof+0xfffbfc3c>	960: R_XTENSA_SLOT0_OP	.literal+0x158
	960: R_XTENSA_ASM_EXPAND	__adddf3
 963:	0000c0        	callx0	a0
 966:	02cd      	mov.n	a12, a2
 968:	03dd      	mov.n	a13, a3
 96a:	00c1c6        	j	c75 <_strtod_r+0xc45>	96a: R_XTENSA_SLOT0_OP	.text+0xc75
 96d:	000001        	l32r	a0, fffc0970 <strtof+0xfffbfc4c>	96d: R_XTENSA_SLOT0_OP	.literal+0x15c
	96d: R_XTENSA_ASM_EXPAND	__ulp
 970:	0000c0        	callx0	a0
 973:	024d      	mov.n	a4, a2
 975:	035d      	mov.n	a5, a3
 977:	e128      	l32i.n	a2, a1, 56
 979:	f138      	l32i.n	a3, a1, 60
 97b:	000001        	l32r	a0, fffc097c <strtof+0xfffbfc58>	97b: R_XTENSA_SLOT0_OP	.literal+0x160
	97b: R_XTENSA_ASM_EXPAND	__subdf3
 97e:	0000c0        	callx0	a0
 981:	000041        	l32r	a4, fffc0984 <strtof+0xfffbfc60>	981: R_XTENSA_SLOT0_OP	.literal+0x14
 984:	000051        	l32r	a5, fffc0984 <strtof+0xfffbfc60>	984: R_XTENSA_SLOT0_OP	.literal+0x18
 987:	02cd      	mov.n	a12, a2
 989:	03dd      	mov.n	a13, a3
 98b:	000001        	l32r	a0, fffc098c <strtof+0xfffbfc68>	98b: R_XTENSA_SLOT0_OP	.literal+0x164
	98b: R_XTENSA_ASM_EXPAND	__eqdf2
 98e:	0000c0        	callx0	a0
 991:	d44216        	beqz	a2, 6d9 <_strtod_r+0x6a9>	991: R_XTENSA_SLOT0_OP	.text+0x6d9
 994:	00b746        	j	c75 <_strtod_r+0xc45>	994: R_XTENSA_SLOT0_OP	.text+0xc75
 997:	00          	.byte 00
 998:	00          	.byte 00
 999:	00          	.byte 00
 99a:	0e2d      	mov.n	a2, a14
 99c:	0f3d      	mov.n	a3, a15
 99e:	000001        	l32r	a0, fffc09a0 <strtof+0xfffbfc7c>	99e: R_XTENSA_SLOT0_OP	.literal+0x168
	99e: R_XTENSA_ASM_EXPAND	__ratio
 9a1:	0000c0        	callx0	a0
 9a4:	000041        	l32r	a4, fffc09a4 <strtof+0xfffbfc80>	9a4: R_XTENSA_SLOT0_OP	.literal+0x7c
 9a7:	000051        	l32r	a5, fffc09a8 <strtof+0xfffbfc84>	9a7: R_XTENSA_SLOT0_OP	.literal+0x80
 9aa:	206220        	or	a6, a2, a2
 9ad:	207330        	or	a7, a3, a3
 9b0:	196162        	s32i	a6, a1, 100
 9b3:	186172        	s32i	a7, a1, 96
 9b6:	000001        	l32r	a0, fffc09b8 <strtof+0xfffbfc94>	9b6: R_XTENSA_SLOT0_OP	.literal+0x16c
	9b6: R_XTENSA_ASM_EXPAND	__ledf2
 9b9:	0000c0        	callx0	a0
 9bc:	192162        	l32i	a6, a1, 100
 9bf:	182172        	l32i	a7, a1, 96
 9c2:	7712e6        	bgei	a2, 1, a3d <_strtod_r+0xa0d>	9c2: R_XTENSA_SLOT0_OP	.text+0xa3d
 9c5:	d1b8      	l32i.n	a11, a1, 52
 9c7:	bb8c      	beqz.n	a11, 9d6 <_strtod_r+0x9a6>	9c7: R_XTENSA_SLOT0_OP	.text+0x9d6
 9c9:	000061        	l32r	a6, fffc09cc <strtof+0xfffbfca8>	9c9: R_XTENSA_SLOT0_OP	.literal+0xc
 9cc:	000071        	l32r	a7, fffc09cc <strtof+0xfffbfca8>	9cc: R_XTENSA_SLOT0_OP	.literal+0x10
 9cf:	06ad      	mov.n	a10, a6
 9d1:	07bd      	mov.n	a11, a7
 9d3:	0023c6        	j	a66 <_strtod_r+0xa36>	9d3: R_XTENSA_SLOT0_OP	.text+0xa66
 9d6:	7ccc      	bnez.n	a12, 9e1 <_strtod_r+0x9b1>	9d6: R_XTENSA_SLOT0_OP	.text+0x9e1
 9d8:	000021        	l32r	a2, fffc09d8 <strtof+0xfffbfcb4>	9d8: R_XTENSA_SLOT0_OP	.literal+0x68
 9db:	0882d7        	bany	a2, a13, 9e7 <_strtod_r+0x9b7>	9db: R_XTENSA_SLOT0_OP	.text+0x9e7
 9de:	000506        	j	9f6 <_strtod_r+0x9c6>	9de: R_XTENSA_SLOT0_OP	.text+0x9f6
 9e1:	021c66        	bnei	a12, 1, 9e7 <_strtod_r+0x9b7>	9e1: R_XTENSA_SLOT0_OP	.text+0x9e7
 9e4:	cf1d16        	beqz	a13, 6d9 <_strtod_r+0x6a9>	9e4: R_XTENSA_SLOT0_OP	.text+0x6d9
 9e7:	000061        	l32r	a6, fffc09e8 <strtof+0xfffbfcc4>	9e7: R_XTENSA_SLOT0_OP	.literal+0x84
 9ea:	000071        	l32r	a7, fffc09ec <strtof+0xfffbfcc8>	9ea: R_XTENSA_SLOT0_OP	.literal+0x88
 9ed:	0000a1        	l32r	a10, fffc09f0 <strtof+0xfffbfccc>	9ed: R_XTENSA_SLOT0_OP	.literal+0xc
 9f0:	0000b1        	l32r	a11, fffc09f0 <strtof+0xfffbfccc>	9f0: R_XTENSA_SLOT0_OP	.literal+0x10
 9f3:	001bc6        	j	a66 <_strtod_r+0xa36>	9f3: R_XTENSA_SLOT0_OP	.text+0xa66
 9f6:	000041        	l32r	a4, fffc09f8 <strtof+0xfffbfcd4>	9f6: R_XTENSA_SLOT0_OP	.literal+0xc
 9f9:	000051        	l32r	a5, fffc09fc <strtof+0xfffbfcd8>	9f9: R_XTENSA_SLOT0_OP	.literal+0x10
 9fc:	062d      	mov.n	a2, a6
 9fe:	073d      	mov.n	a3, a7
 a00:	196162        	s32i	a6, a1, 100
 a03:	186172        	s32i	a7, a1, 96
 a06:	000001        	l32r	a0, fffc0a08 <strtof+0xfffbfce4>	a06: R_XTENSA_SLOT0_OP	.literal+0x170
	a06: R_XTENSA_ASM_EXPAND	__ltdf2
 a09:	0000c0        	callx0	a0
 a0c:	192162        	l32i	a6, a1, 100
 a0f:	182172        	l32i	a7, a1, 96
 a12:	016296        	bltz	a2, a2c <_strtod_r+0x9fc>	a12: R_XTENSA_SLOT0_OP	.text+0xa2c
 a15:	000041        	l32r	a4, fffc0a18 <strtof+0xfffbfcf4>	a15: R_XTENSA_SLOT0_OP	.literal+0x4
 a18:	000051        	l32r	a5, fffc0a18 <strtof+0xfffbfcf4>	a18: R_XTENSA_SLOT0_OP	.literal+0x8
 a1b:	062d      	mov.n	a2, a6
 a1d:	073d      	mov.n	a3, a7
 a1f:	000001        	l32r	a0, fffc0a20 <strtof+0xfffbfcfc>	a1f: R_XTENSA_SLOT0_OP	.literal+0x174
	a1f: R_XTENSA_ASM_EXPAND	__muldf3
 a22:	0000c0        	callx0	a0
 a25:	02ad      	mov.n	a10, a2
 a27:	03bd      	mov.n	a11, a3
 a29:	000146        	j	a32 <_strtod_r+0xa02>	a29: R_XTENSA_SLOT0_OP	.text+0xa32
 a2c:	0000a1        	l32r	a10, fffc0a2c <strtof+0xfffbfd08>	a2c: R_XTENSA_SLOT0_OP	.literal+0x4
 a2f:	0000b1        	l32r	a11, fffc0a30 <strtof+0xfffbfd0c>	a2f: R_XTENSA_SLOT0_OP	.literal+0x8
 a32:	000021        	l32r	a2, fffc0a34 <strtof+0xfffbfd10>	a32: R_XTENSA_SLOT0_OP	.literal+0x2c
 a35:	0a6d      	mov.n	a6, a10
 a37:	3072b0        	xor	a7, a2, a11
 a3a:	000a06        	j	a66 <_strtod_r+0xa36>	a3a: R_XTENSA_SLOT0_OP	.text+0xa66
 a3d:	000041        	l32r	a4, fffc0a40 <strtof+0xfffbfd1c>	a3d: R_XTENSA_SLOT0_OP	.literal+0x4
 a40:	000051        	l32r	a5, fffc0a40 <strtof+0xfffbfd1c>	a40: R_XTENSA_SLOT0_OP	.literal+0x8
 a43:	062d      	mov.n	a2, a6
 a45:	073d      	mov.n	a3, a7
 a47:	000001        	l32r	a0, fffc0a48 <strtof+0xfffbfd24>	a47: R_XTENSA_SLOT0_OP	.literal+0x178
	a47: R_XTENSA_ASM_EXPAND	__muldf3
 a4a:	0000c0        	callx0	a0
 a4d:	d168      	l32i.n	a6, a1, 52
 a4f:	03bd      	mov.n	a11, a3
 a51:	02ad      	mov.n	a10, a2
 a53:	023d      	mov.n	a3, a2
 a55:	0b2d      	mov.n	a2, a11
 a57:	76cc      	bnez.n	a6, a62 <_strtod_r+0xa32>	a57: R_XTENSA_SLOT0_OP	.text+0xa62
 a59:	000021        	l32r	a2, fffc0a5c <strtof+0xfffbfd38>	a59: R_XTENSA_SLOT0_OP	.literal+0x2c
 a5c:	302b20        	xor	a2, a11, a2
 a5f:	ffffc6        	j	a62 <_strtod_r+0xa32>	a5f: R_XTENSA_SLOT0_OP	.text+0xa62
 a62:	036d      	mov.n	a6, a3
 a64:	027d      	mov.n	a7, a2
 a66:	000021        	l32r	a2, fffc0a68 <strtof+0xfffbfd44>	a66: R_XTENSA_SLOT0_OP	.literal+0x24
 a69:	1022d0        	and	a2, a2, a13
 a6c:	146122        	s32i	a2, a1, 80
 a6f:	142132        	l32i	a3, a1, 80
 a72:	000021        	l32r	a2, fffc0a74 <strtof+0xfffbfd50>	a72: R_XTENSA_SLOT0_OP	.literal+0x8c
 a75:	021327        	beq	a3, a2, a7b <_strtod_r+0xa4b>	a75: R_XTENSA_SLOT0_OP	.text+0xa7b
 a78:	002086        	j	afe <_strtod_r+0xace>	a78: R_XTENSA_SLOT0_OP	.text+0xafe
 a7b:	000021        	l32r	a2, fffc0a7c <strtof+0xfffbfd58>	a7b: R_XTENSA_SLOT0_OP	.literal+0x4c
 a7e:	e148      	l32i.n	a4, a1, 56
 a80:	d2da      	add.n	a13, a2, a13
 a82:	f158      	l32i.n	a5, a1, 60
 a84:	0c2d      	mov.n	a2, a12
 a86:	203dd0        	or	a3, a13, a13
 a89:	1661a2        	s32i	a10, a1, 88
 a8c:	1761b2        	s32i	a11, a1, 92
 a8f:	126142        	s32i	a4, a1, 72
 a92:	136152        	s32i	a5, a1, 76
 a95:	196162        	s32i	a6, a1, 100
 a98:	186172        	s32i	a7, a1, 96
 a9b:	000001        	l32r	a0, fffc0a9c <strtof+0xfffbfd78>	a9b: R_XTENSA_SLOT0_OP	.literal+0x17c
	a9b: R_XTENSA_ASM_EXPAND	__ulp
 a9e:	0000c0        	callx0	a0
 aa1:	192162        	l32i	a6, a1, 100
 aa4:	182172        	l32i	a7, a1, 96
 aa7:	024d      	mov.n	a4, a2
 aa9:	035d      	mov.n	a5, a3
 aab:	062d      	mov.n	a2, a6
 aad:	203770        	or	a3, a7, a7
 ab0:	000001        	l32r	a0, fffc0ab0 <strtof+0xfffbfd8c>	ab0: R_XTENSA_SLOT0_OP	.literal+0x180
	ab0: R_XTENSA_ASM_EXPAND	__muldf3
 ab3:	0000c0        	callx0	a0
 ab6:	035d      	mov.n	a5, a3
 ab8:	024d      	mov.n	a4, a2
 aba:	0d3d      	mov.n	a3, a13
 abc:	0c2d      	mov.n	a2, a12
 abe:	000001        	l32r	a0, fffc0ac0 <strtof+0xfffbfd9c>	abe: R_XTENSA_SLOT0_OP	.literal+0x184
	abe: R_XTENSA_ASM_EXPAND	__adddf3
 ac1:	0000c0        	callx0	a0
 ac4:	000051        	l32r	a5, fffc0ac4 <strtof+0xfffbfda0>	ac4: R_XTENSA_SLOT0_OP	.literal+0x24
 ac7:	02cd      	mov.n	a12, a2
 ac9:	03dd      	mov.n	a13, a3
 acb:	102530        	and	a2, a5, a3
 ace:	000031        	l32r	a3, fffc0ad0 <strtof+0xfffbfdac>	ace: R_XTENSA_SLOT0_OP	.literal+0x90
 ad1:	1621a2        	l32i	a10, a1, 88
 ad4:	1721b2        	l32i	a11, a1, 92
 ad7:	19b327        	bgeu	a3, a2, af4 <_strtod_r+0xac4>	ad7: R_XTENSA_SLOT0_OP	.text+0xaf4
 ada:	000021        	l32r	a2, fffc0adc <strtof+0xfffbfdb8>	ada: R_XTENSA_SLOT0_OP	.literal+0x58
 add:	132162        	l32i	a6, a1, 76
 ae0:	089627        	bne	a6, a2, aec <_strtod_r+0xabc>	ae0: R_XTENSA_SLOT0_OP	.text+0xaec
 ae3:	1221b2        	l32i	a11, a1, 72
 ae6:	020b66        	bnei	a11, -1, aec <_strtod_r+0xabc>	ae6: R_XTENSA_SLOT0_OP	.text+0xaec
 ae9:	fea346        	j	57a <_strtod_r+0x54a>	ae9: R_XTENSA_SLOT0_OP	.text+0x57a
 aec:	0000d1        	l32r	a13, fffc0aec <strtof+0xfffbfdc8>	aec: R_XTENSA_SLOT0_OP	.literal+0x58
 aef:	fc7c      	movi.n	a12, -1
 af1:	0054c6        	j	c48 <_strtod_r+0xc18>	af1: R_XTENSA_SLOT0_OP	.text+0xc48
 af4:	000021        	l32r	a2, fffc0af4 <strtof+0xfffbfdd0>	af4: R_XTENSA_SLOT0_OP	.literal+0x5c
 af7:	d2da      	add.n	a13, a2, a13
 af9:	002b46        	j	baa <_strtod_r+0xb7a>	af9: R_XTENSA_SLOT0_OP	.text+0xbaa
 afc:	00          	.byte 00
 afd:	00          	.byte 00
 afe:	b128      	l32i.n	a2, a1, 44
 b00:	06c216        	beqz	a2, b70 <_strtod_r+0xb40>	b00: R_XTENSA_SLOT0_OP	.text+0xb70
 b03:	000021        	l32r	a2, fffc0b04 <strtof+0xfffbfde0>	b03: R_XTENSA_SLOT0_OP	.literal+0x70
 b06:	142132        	l32i	a3, a1, 80
 b09:	633237        	bltu	a2, a3, b70 <_strtod_r+0xb40>	b09: R_XTENSA_SLOT0_OP	.text+0xb70
 b0c:	000041        	l32r	a4, fffc0b0c <strtof+0xfffbfde8>	b0c: R_XTENSA_SLOT0_OP	.literal+0x94
 b0f:	000051        	l32r	a5, fffc0b10 <strtof+0xfffbfdec>	b0f: R_XTENSA_SLOT0_OP	.literal+0x98
 b12:	0a2d      	mov.n	a2, a10
 b14:	0b3d      	mov.n	a3, a11
 b16:	196162        	s32i	a6, a1, 100
 b19:	186172        	s32i	a7, a1, 96
 b1c:	1661a2        	s32i	a10, a1, 88
 b1f:	1761b2        	s32i	a11, a1, 92
 b22:	000001        	l32r	a0, fffc0b24 <strtof+0xfffbfe00>	b22: R_XTENSA_SLOT0_OP	.literal+0x188
	b22: R_XTENSA_ASM_EXPAND	__ledf2
 b25:	0000c0        	callx0	a0
 b28:	192162        	l32i	a6, a1, 100
 b2b:	182172        	l32i	a7, a1, 96
 b2e:	1621a2        	l32i	a10, a1, 88
 b31:	1721b2        	l32i	a11, a1, 92
 b34:	2d12e6        	bgei	a2, 1, b65 <_strtod_r+0xb35>	b34: R_XTENSA_SLOT0_OP	.text+0xb65
 b37:	0b3d      	mov.n	a3, a11
 b39:	0a2d      	mov.n	a2, a10
 b3b:	000001        	l32r	a0, fffc0b3c <strtof+0xfffbfe18>	b3b: R_XTENSA_SLOT0_OP	.literal+0x18c
	b3b: R_XTENSA_ASM_EXPAND	__fixunsdfsi
 b3e:	0000c0        	callx0	a0
 b41:	130c      	movi.n	a3, 1
 b43:	832320        	moveqz	a2, a3, a2
 b46:	000001        	l32r	a0, fffc0b48 <strtof+0xfffbfe24>	b46: R_XTENSA_SLOT0_OP	.literal+0x190
	b46: R_XTENSA_ASM_EXPAND	__floatunsidf
 b49:	0000c0        	callx0	a0
 b4c:	d168      	l32i.n	a6, a1, 52
 b4e:	03bd      	mov.n	a11, a3
 b50:	02ad      	mov.n	a10, a2
 b52:	023d      	mov.n	a3, a2
 b54:	0b2d      	mov.n	a2, a11
 b56:	76cc      	bnez.n	a6, b61 <_strtod_r+0xb31>	b56: R_XTENSA_SLOT0_OP	.text+0xb61
 b58:	000021        	l32r	a2, fffc0b58 <strtof+0xfffbfe34>	b58: R_XTENSA_SLOT0_OP	.literal+0x2c
 b5b:	302b20        	xor	a2, a11, a2
 b5e:	ffffc6        	j	b61 <_strtod_r+0xb31>	b5e: R_XTENSA_SLOT0_OP	.text+0xb61
 b61:	036d      	mov.n	a6, a3
 b63:	027d      	mov.n	a7, a2
 b65:	000021        	l32r	a2, fffc0b68 <strtof+0xfffbfe44>	b65: R_XTENSA_SLOT0_OP	.literal+0x6c
 b68:	142132        	l32i	a3, a1, 80
 b6b:	272a      	add.n	a2, a7, a2
 b6d:	c07230        	sub	a7, a2, a3
 b70:	e128      	l32i.n	a2, a1, 56
 b72:	f138      	l32i.n	a3, a1, 60
 b74:	06cd      	mov.n	a12, a6
 b76:	07dd      	mov.n	a13, a7
 b78:	1661a2        	s32i	a10, a1, 88
 b7b:	1761b2        	s32i	a11, a1, 92
 b7e:	000001        	l32r	a0, fffc0b80 <strtof+0xfffbfe5c>	b7e: R_XTENSA_SLOT0_OP	.literal+0x194
	b7e: R_XTENSA_ASM_EXPAND	__ulp
 b81:	0000c0        	callx0	a0
 b84:	024d      	mov.n	a4, a2
 b86:	035d      	mov.n	a5, a3
 b88:	0c2d      	mov.n	a2, a12
 b8a:	0d3d      	mov.n	a3, a13
 b8c:	000001        	l32r	a0, fffc0b8c <strtof+0xfffbfe68>	b8c: R_XTENSA_SLOT0_OP	.literal+0x198
	b8c: R_XTENSA_ASM_EXPAND	__muldf3
 b8f:	0000c0        	callx0	a0
 b92:	024d      	mov.n	a4, a2
 b94:	035d      	mov.n	a5, a3
 b96:	e128      	l32i.n	a2, a1, 56
 b98:	f138      	l32i.n	a3, a1, 60
 b9a:	000001        	l32r	a0, fffc0b9c <strtof+0xfffbfe78>	b9a: R_XTENSA_SLOT0_OP	.literal+0x19c
	b9a: R_XTENSA_ASM_EXPAND	__adddf3
 b9d:	0000c0        	callx0	a0
 ba0:	1721b2        	l32i	a11, a1, 92
 ba3:	1621a2        	l32i	a10, a1, 88
 ba6:	02cd      	mov.n	a12, a2
 ba8:	03dd      	mov.n	a13, a3
 baa:	b148      	l32i.n	a4, a1, 44
 bac:	098456        	bnez	a4, c48 <_strtod_r+0xc18>	bac: R_XTENSA_SLOT0_OP	.text+0xc48
 baf:	000021        	l32r	a2, fffc0bb0 <strtof+0xfffbfe8c>	baf: R_XTENSA_SLOT0_OP	.literal+0x24
 bb2:	142162        	l32i	a6, a1, 80
 bb5:	1022d0        	and	a2, a2, a13
 bb8:	021627        	beq	a6, a2, bbe <_strtod_r+0xb8e>	bb8: R_XTENSA_SLOT0_OP	.text+0xbbe
 bbb:	002246        	j	c48 <_strtod_r+0xc18>	bbb: R_XTENSA_SLOT0_OP	.text+0xc48
 bbe:	0a2d      	mov.n	a2, a10
 bc0:	0b3d      	mov.n	a3, a11
 bc2:	1661a2        	s32i	a10, a1, 88
 bc5:	1761b2        	s32i	a11, a1, 92
 bc8:	1861d2        	s32i	a13, a1, 96
 bcb:	000001        	l32r	a0, fffc0bcc <strtof+0xfffbfea8>	bcb: R_XTENSA_SLOT0_OP	.literal+0x1a0
	bcb: R_XTENSA_ASM_EXPAND	__fixdfsi
 bce:	0000c0        	callx0	a0
 bd1:	000001        	l32r	a0, fffc0bd4 <strtof+0xfffbfeb0>	bd1: R_XTENSA_SLOT0_OP	.literal+0x1a4
	bd1: R_XTENSA_ASM_EXPAND	__floatsidf
 bd4:	0000c0        	callx0	a0
 bd7:	1721b2        	l32i	a11, a1, 92
 bda:	1621a2        	l32i	a10, a1, 88
 bdd:	024d      	mov.n	a4, a2
 bdf:	035d      	mov.n	a5, a3
 be1:	202aa0        	or	a2, a10, a10
 be4:	0b3d      	mov.n	a3, a11
 be6:	000001        	l32r	a0, fffc0be8 <strtof+0xfffbfec4>	be6: R_XTENSA_SLOT0_OP	.literal+0x1a8
	be6: R_XTENSA_ASM_EXPAND	__subdf3
 be9:	0000c0        	callx0	a0
 bec:	d1b8      	l32i.n	a11, a1, 52
 bee:	026d      	mov.n	a6, a2
 bf0:	037d      	mov.n	a7, a3
 bf2:	182182        	l32i	a8, a1, 96
 bf5:	007b56        	bnez	a11, c00 <_strtod_r+0xbd0>	bf5: R_XTENSA_SLOT0_OP	.text+0xc00
 bf8:	4ccc      	bnez.n	a12, c00 <_strtod_r+0xbd0>	bf8: R_XTENSA_SLOT0_OP	.text+0xc00
 bfa:	000021        	l32r	a2, fffc0bfc <strtof+0xfffbfed8>	bfa: R_XTENSA_SLOT0_OP	.literal+0x68
 bfd:	360827        	bnone	a8, a2, c37 <_strtod_r+0xc07>	bfd: R_XTENSA_SLOT0_OP	.text+0xc37
 c00:	000041        	l32r	a4, fffc0c00 <strtof+0xfffbfedc>	c00: R_XTENSA_SLOT0_OP	.literal+0x9c
 c03:	000051        	l32r	a5, fffc0c04 <strtof+0xfffbfee0>	c03: R_XTENSA_SLOT0_OP	.literal+0xa0
 c06:	202660        	or	a2, a6, a6
 c09:	203770        	or	a3, a7, a7
 c0c:	196162        	s32i	a6, a1, 100
 c0f:	186172        	s32i	a7, a1, 96
 c12:	000001        	l32r	a0, fffc0c14 <strtof+0xfffbfef0>	c12: R_XTENSA_SLOT0_OP	.literal+0x1ac
	c12: R_XTENSA_ASM_EXPAND	__ltdf2
 c15:	0000c0        	callx0	a0
 c18:	192162        	l32i	a6, a1, 100
 c1b:	182172        	l32i	a7, a1, 96
 c1e:	080296        	bltz	a2, ca2 <_strtod_r+0xc72>	c1e: R_XTENSA_SLOT0_OP	.text+0xca2
 c21:	000041        	l32r	a4, fffc0c24 <strtof+0xfffbff00>	c21: R_XTENSA_SLOT0_OP	.literal+0xa4
 c24:	000051        	l32r	a5, fffc0c24 <strtof+0xfffbff00>	c24: R_XTENSA_SLOT0_OP	.literal+0xa8
 c27:	062d      	mov.n	a2, a6
 c29:	073d      	mov.n	a3, a7
 c2b:	000001        	l32r	a0, fffc0c2c <strtof+0xfffbff08>	c2b: R_XTENSA_SLOT0_OP	.literal+0x1b0
	c2b: R_XTENSA_ASM_EXPAND	__gtdf2
 c2e:	0000c0        	callx0	a0
 c31:	1312a6        	blti	a2, 1, c48 <_strtod_r+0xc18>	c31: R_XTENSA_SLOT0_OP	.text+0xc48
 c34:	001a86        	j	ca2 <_strtod_r+0xc72>	c34: R_XTENSA_SLOT0_OP	.text+0xca2
 c37:	000041        	l32r	a4, fffc0c38 <strtof+0xfffbff14>	c37: R_XTENSA_SLOT0_OP	.literal+0xac
 c3a:	000051        	l32r	a5, fffc0c3c <strtof+0xfffbff18>	c3a: R_XTENSA_SLOT0_OP	.literal+0xb0
 c3d:	062d      	mov.n	a2, a6
 c3f:	000001        	l32r	a0, fffc0c40 <strtof+0xfffbff1c>	c3f: R_XTENSA_SLOT0_OP	.literal+0x1b4
	c3f: R_XTENSA_ASM_EXPAND	__ltdf2
 c42:	0000c0        	callx0	a0
 c45:	059296        	bltz	a2, ca2 <_strtod_r+0xc72>	c45: R_XTENSA_SLOT0_OP	.text+0xca2
 c48:	8128      	l32i.n	a2, a1, 32
 c4a:	3138      	l32i.n	a3, a1, 12
 c4c:	000001        	l32r	a0, fffc0c4c <strtof+0xfffbff28>	c4c: R_XTENSA_SLOT0_OP	.literal+0x1b8
	c4c: R_XTENSA_ASM_EXPAND	_Bfree
 c4f:	0000c0        	callx0	a0
 c52:	8128      	l32i.n	a2, a1, 32
 c54:	9138      	l32i.n	a3, a1, 36
 c56:	000001        	l32r	a0, fffc0c58 <strtof+0xfffbff34>	c56: R_XTENSA_SLOT0_OP	.literal+0x1bc
	c56: R_XTENSA_ASM_EXPAND	_Bfree
 c59:	0000c0        	callx0	a0
 c5c:	8128      	l32i.n	a2, a1, 32
 c5e:	0f3d      	mov.n	a3, a15
 c60:	000001        	l32r	a0, fffc0c60 <strtof+0xfffbff3c>	c60: R_XTENSA_SLOT0_OP	.literal+0x1c0
	c60: R_XTENSA_ASM_EXPAND	_Bfree
 c63:	0000c0        	callx0	a0
 c66:	8128      	l32i.n	a2, a1, 32
 c68:	0e3d      	mov.n	a3, a14
 c6a:	000001        	l32r	a0, fffc0c6c <strtof+0xfffbff48>	c6a: R_XTENSA_SLOT0_OP	.literal+0x1c4
	c6a: R_XTENSA_ASM_EXPAND	_Bfree
 c6d:	0000c0        	callx0	a0
 c70:	fea786        	j	712 <_strtod_r+0x6e2>	c70: R_XTENSA_SLOT0_OP	.text+0x712
 c73:	00          	.byte 00
 c74:	00          	.byte 00
 c75:	b1b8      	l32i.n	a11, a1, 44
 c77:	7bac      	beqz.n	a11, ca2 <_strtod_r+0xc72>	c77: R_XTENSA_SLOT0_OP	.text+0xca2
 c79:	000021        	l32r	a2, fffc0c7c <strtof+0xfffbff58>	c79: R_XTENSA_SLOT0_OP	.literal+0xb4
 c7c:	030c      	movi.n	a3, 0
 c7e:	136122        	s32i	a2, a1, 76
 c81:	126132        	s32i	a3, a1, 72
 c84:	122142        	l32i	a4, a1, 72
 c87:	132152        	l32i	a5, a1, 76
 c8a:	0c2d      	mov.n	a2, a12
 c8c:	0d3d      	mov.n	a3, a13
 c8e:	000001        	l32r	a0, fffc0c90 <strtof+0xfffbff6c>	c8e: R_XTENSA_SLOT0_OP	.literal+0x1c8
	c8e: R_XTENSA_ASM_EXPAND	__muldf3
 c91:	0000c0        	callx0	a0
 c94:	02cd      	mov.n	a12, a2
 c96:	03dd      	mov.n	a13, a3
 c98:	63cc      	bnez.n	a3, ca2 <_strtod_r+0xc72>	c98: R_XTENSA_SLOT0_OP	.text+0xca2
 c9a:	42cc      	bnez.n	a2, ca2 <_strtod_r+0xc72>	c9a: R_XTENSA_SLOT0_OP	.text+0xca2
 c9c:	81b8      	l32i.n	a11, a1, 32
 c9e:	222c      	movi.n	a2, 34
 ca0:	0b29      	s32i.n	a2, a11, 0
 ca2:	8128      	l32i.n	a2, a1, 32
 ca4:	3138      	l32i.n	a3, a1, 12
 ca6:	000001        	l32r	a0, fffc0ca8 <strtof+0xfffbff84>	ca6: R_XTENSA_SLOT0_OP	.literal+0x1cc
	ca6: R_XTENSA_ASM_EXPAND	_Bfree
 ca9:	0000c0        	callx0	a0
 cac:	8128      	l32i.n	a2, a1, 32
 cae:	9138      	l32i.n	a3, a1, 36
 cb0:	000001        	l32r	a0, fffc0cb0 <strtof+0xfffbff8c>	cb0: R_XTENSA_SLOT0_OP	.literal+0x1d0
	cb0: R_XTENSA_ASM_EXPAND	_Bfree
 cb3:	0000c0        	callx0	a0
 cb6:	8128      	l32i.n	a2, a1, 32
 cb8:	0f3d      	mov.n	a3, a15
 cba:	000001        	l32r	a0, fffc0cbc <strtof+0xfffbff98>	cba: R_XTENSA_SLOT0_OP	.literal+0x1d4
	cba: R_XTENSA_ASM_EXPAND	_Bfree
 cbd:	0000c0        	callx0	a0
 cc0:	8128      	l32i.n	a2, a1, 32
 cc2:	a138      	l32i.n	a3, a1, 40
 cc4:	000001        	l32r	a0, fffc0cc4 <strtof+0xfffbffa0>	cc4: R_XTENSA_SLOT0_OP	.literal+0x1d8
	cc4: R_XTENSA_ASM_EXPAND	_Bfree
 cc7:	0000c0        	callx0	a0
 cca:	8128      	l32i.n	a2, a1, 32
 ccc:	0e3d      	mov.n	a3, a14
 cce:	000001        	l32r	a0, fffc0cd0 <strtof+0xfffbffac>	cce: R_XTENSA_SLOT0_OP	.literal+0x1dc
	cce: R_XTENSA_ASM_EXPAND	_Bfree
 cd1:	0000c0        	callx0	a0
 cd4:	1521b2        	l32i	a11, a1, 84
 cd7:	2b8c      	beqz.n	a11, cdd <_strtod_r+0xcad>	cd7: R_XTENSA_SLOT0_OP	.text+0xcdd
 cd9:	4128      	l32i.n	a2, a1, 16
 cdb:	0b29      	s32i.n	a2, a11, 0
 cdd:	1121b2        	l32i	a11, a1, 68
 ce0:	0c5d      	mov.n	a5, a12
 ce2:	0d4d      	mov.n	a4, a13
 ce4:	4b8c      	beqz.n	a11, cec <_strtod_r+0xcbc>	ce4: R_XTENSA_SLOT0_OP	.text+0xcec
 ce6:	000041        	l32r	a4, fffc0ce8 <strtof+0xfffbffc4>	ce6: R_XTENSA_SLOT0_OP	.literal+0x2c
 ce9:	304d40        	xor	a4, a13, a4
 cec:	232102        	l32i	a0, a1, 140
 cef:	90a092        	movi	a9, 144
 cf2:	052d      	mov.n	a2, a5
 cf4:	043d      	mov.n	a3, a4
 cf6:	2221c2        	l32i	a12, a1, 136
 cf9:	2121d2        	l32i	a13, a1, 132
 cfc:	2021e2        	l32i	a14, a1, 128
 cff:	1f21f2        	l32i	a15, a1, 124
 d02:	119a      	add.n	a1, a1, a9
 d04:	f00d      	ret.n
	...

00000d08 <strtod>:
 d08:	025d      	mov.n	a5, a2
 d0a:	000021        	l32r	a2, fffc0d0c <strtof+0xfffbffe8>	d0a: R_XTENSA_SLOT0_OP	.literal+0x1e0
 d0d:	f0c112        	addi	a1, a1, -16
 d10:	0228      	l32i.n	a2, a2, 0
 d12:	034d      	mov.n	a4, a3
 d14:	053d      	mov.n	a3, a5
 d16:	036102        	s32i	a0, a1, 12
 d19:	000005        	call0	d1c <strtod+0x14>	d19: R_XTENSA_SLOT0_OP	_strtod_r
 d1c:	3108      	l32i.n	a0, a1, 12
 d1e:	10c112        	addi	a1, a1, 16
 d21:	f00d      	ret.n
	...

00000d24 <strtof>:
 d24:	025d      	mov.n	a5, a2
 d26:	000021        	l32r	a2, fffc0d28 <strtof+0xfffc0004>	d26: R_XTENSA_SLOT0_OP	.literal+0x1e4
 d29:	f0c112        	addi	a1, a1, -16
 d2c:	0228      	l32i.n	a2, a2, 0
 d2e:	034d      	mov.n	a4, a3
 d30:	053d      	mov.n	a3, a5
 d32:	21c9      	s32i.n	a12, a1, 8
 d34:	0161d2        	s32i	a13, a1, 4
 d37:	3109      	s32i.n	a0, a1, 12
 d39:	000005        	call0	d3c <strtof+0x18>	d39: R_XTENSA_SLOT0_OP	_strtod_r
 d3c:	02cd      	mov.n	a12, a2
 d3e:	03dd      	mov.n	a13, a3
 d40:	000001        	l32r	a0, fffc0d40 <strtof+0xfffc001c>	d40: R_XTENSA_SLOT0_OP	.literal+0x1e8
	d40: R_XTENSA_ASM_EXPAND	__fpclassifyd
 d43:	0000c0        	callx0	a0
 d46:	82cc      	bnez.n	a2, d52 <strtof+0x2e>	d46: R_XTENSA_SLOT0_OP	.text+0xd52
 d48:	000001        	l32r	a0, fffc0d48 <strtof+0xfffc0024>	d48: R_XTENSA_SLOT0_OP	.literal+0x1ec
	d48: R_XTENSA_ASM_EXPAND	nanf
 d4b:	0000c0        	callx0	a0
 d4e:	000286        	j	d5c <strtof+0x38>	d4e: R_XTENSA_SLOT0_OP	.text+0xd5c
 d51:	00          	.byte 00
 d52:	0c2d      	mov.n	a2, a12
 d54:	0d3d      	mov.n	a3, a13
 d56:	000001        	l32r	a0, fffc0d58 <strtof+0xfffc0034>	d56: R_XTENSA_SLOT0_OP	.literal+0x1f0
	d56: R_XTENSA_ASM_EXPAND	__truncdfsf2
 d59:	0000c0        	callx0	a0
 d5c:	3108      	l32i.n	a0, a1, 12
 d5e:	21c8      	l32i.n	a12, a1, 8
 d60:	11d8      	l32i.n	a13, a1, 4
 d62:	10c112        	addi	a1, a1, 16
 d65:	f00d      	ret.n
