
output/libc/lib_a-dtoa.o:     file format elf32-xtensa-le


Disassembly of section .literal:

00000000 <.literal>:
	...
	0: R_XTENSA_32	__udivsi3
	4: R_XTENSA_32	__mcmp
	8: R_XTENSA_32	.rodata.str1.1
   c:	09 00 00 00 		c: R_XTENSA_32	.rodata.str1.1
  10:	0d 00 00 00 		10: R_XTENSA_32	.rodata.str1.1
  14:	ff ff ff 7f 	
  18:	00 00 f0 7f 	
  1c:	0f 27 00 00 	
  20:	ff ff 0f 00 	
	...
	2c: R_XTENSA_32	.LC9+0x1
  30:	00 00 f0 3f 	
  34:	00 00 10 fe 	
  38:	00 00 00 00 	
  3c:	00 00 f8 3f 	
  40:	61 43 6f 63 	
  44:	a7 87 d2 3f 	
  48:	b3 c8 60 8b 	
  4c:	28 8a c6 3f 	
  50:	fb 79 9f 50 	
  54:	13 44 d3 3f 	
	...
	58: R_XTENSA_32	__mprec_tens
	5c: R_XTENSA_32	__mprec_bigtens
  64:	00 00 f0 3f 	
  68:	00 00 00 00 	
  6c:	00 00 24 40 	
  70:	00 00 00 00 	
  74:	00 00 1c 40 	
  78:	00 00 c0 fc 	
  7c:	00 00 00 00 	
  80:	00 00 14 40 	
  84:	00 00 00 80 	
  88:	00 00 00 00 	
  8c:	00 00 e0 3f 	
	...
	90: R_XTENSA_32	_Bfree
	94: R_XTENSA_32	__eqdf2
	98: R_XTENSA_32	__d2b
	9c: R_XTENSA_32	__floatunsidf
	a0: R_XTENSA_32	__subdf3
	a4: R_XTENSA_32	__muldf3
	a8: R_XTENSA_32	__adddf3
	ac: R_XTENSA_32	__floatsidf
	b0: R_XTENSA_32	__muldf3
	b4: R_XTENSA_32	__adddf3
	b8: R_XTENSA_32	__fixdfsi
	bc: R_XTENSA_32	__ltdf2
	c0: R_XTENSA_32	__floatsidf
	c4: R_XTENSA_32	__nedf2
	c8: R_XTENSA_32	__gtdf2
	cc: R_XTENSA_32	_Balloc
	d0: R_XTENSA_32	__divdf3
	d4: R_XTENSA_32	__muldf3
	d8: R_XTENSA_32	__divdf3
	dc: R_XTENSA_32	__muldf3
	e0: R_XTENSA_32	__muldf3
	e4: R_XTENSA_32	__ltdf2
	e8: R_XTENSA_32	__muldf3
	ec: R_XTENSA_32	__floatsidf
	f0: R_XTENSA_32	__muldf3
	f4: R_XTENSA_32	__adddf3
	f8: R_XTENSA_32	__subdf3
	fc: R_XTENSA_32	__gtdf2
	100: R_XTENSA_32	__ltdf2
	104: R_XTENSA_32	__divdf3
	108: R_XTENSA_32	__subdf3
	10c: R_XTENSA_32	__fixdfsi
	110: R_XTENSA_32	__floatsidf
	114: R_XTENSA_32	__subdf3
	118: R_XTENSA_32	__ltdf2
	11c: R_XTENSA_32	__subdf3
	120: R_XTENSA_32	__ltdf2
	124: R_XTENSA_32	__muldf3
	128: R_XTENSA_32	__muldf3
	12c: R_XTENSA_32	__muldf3
	130: R_XTENSA_32	__fixdfsi
	134: R_XTENSA_32	__floatsidf
	138: R_XTENSA_32	__subdf3
	13c: R_XTENSA_32	__adddf3
	140: R_XTENSA_32	__gtdf2
	144: R_XTENSA_32	__subdf3
	148: R_XTENSA_32	__ltdf2
	14c: R_XTENSA_32	__muldf3
	150: R_XTENSA_32	__muldf3
	154: R_XTENSA_32	__gedf2
	158: R_XTENSA_32	__divdf3
	15c: R_XTENSA_32	__fixdfsi
	160: R_XTENSA_32	__floatsidf
	164: R_XTENSA_32	__muldf3
	168: R_XTENSA_32	__subdf3
	16c: R_XTENSA_32	__adddf3
	170: R_XTENSA_32	__gtdf2
	174: R_XTENSA_32	__eqdf2
	178: R_XTENSA_32	__muldf3
	17c: R_XTENSA_32	__eqdf2
	180: R_XTENSA_32	__i2b
	184: R_XTENSA_32	__pow5mult
	188: R_XTENSA_32	__multiply
	18c: R_XTENSA_32	_Bfree
	190: R_XTENSA_32	__pow5mult
	194: R_XTENSA_32	__i2b
	198: R_XTENSA_32	__pow5mult
	19c: R_XTENSA_32	__hi0bits
	1a0: R_XTENSA_32	__lshift
	1a4: R_XTENSA_32	__lshift
	1a8: R_XTENSA_32	__mcmp
	1ac: R_XTENSA_32	__multadd
	1b0: R_XTENSA_32	__multadd
	1b4: R_XTENSA_32	__multadd
	1b8: R_XTENSA_32	__mcmp
	1bc: R_XTENSA_32	__lshift
	1c0: R_XTENSA_32	_Balloc
	1c4: R_XTENSA_32	memcpy
	1c8: R_XTENSA_32	__lshift
	1cc: R_XTENSA_32	__mcmp
	1d0: R_XTENSA_32	__mdiff
	1d4: R_XTENSA_32	__mcmp
	1d8: R_XTENSA_32	_Bfree
	1dc: R_XTENSA_32	__lshift
	1e0: R_XTENSA_32	__mcmp
	1e4: R_XTENSA_32	__multadd
	1e8: R_XTENSA_32	__multadd
	1ec: R_XTENSA_32	__multadd
	1f0: R_XTENSA_32	__multadd
	1f4: R_XTENSA_32	__multadd
	1f8: R_XTENSA_32	__lshift
	1fc: R_XTENSA_32	__mcmp
	200: R_XTENSA_32	_Bfree
	204: R_XTENSA_32	_Bfree
	208: R_XTENSA_32	_Bfree
	20c: R_XTENSA_32	_Bfree

Disassembly of section .text:

00000000 <quorem>:
   0:	c0c112        	addi	a1, a1, -64
   3:	e1c9      	s32i.n	a12, a1, 56
   5:	024d      	mov.n	a4, a2
   7:	43c8      	l32i.n	a12, a3, 16
   9:	4228      	l32i.n	a2, a2, 16
   b:	f109      	s32i.n	a0, a1, 60
   d:	d1d9      	s32i.n	a13, a1, 52
   f:	c1e9      	s32i.n	a14, a1, 48
  11:	b1f9      	s32i.n	a15, a1, 44
  13:	039d      	mov.n	a9, a3
  15:	0a0c      	movi.n	a10, 0
  17:	02a2c7        	bge	a2, a12, 1d <quorem+0x1d>	17: R_XTENSA_SLOT0_OP	.text+0x1d
  1a:	004486        	j	130 <quorem+0x130>	1a: R_XTENSA_SLOT0_OP	.text+0x130
  1d:	cc0b      	addi.n	a12, a12, -1
  1f:	14c3b2        	addi	a11, a3, 20
  22:	11fce0        	slli	a15, a12, 2
  25:	7bfa      	add.n	a7, a11, a15
  27:	14c4e2        	addi	a14, a4, 20
  2a:	0738      	l32i.n	a3, a7, 0
  2c:	fefa      	add.n	a15, a14, a15
  2e:	0f28      	l32i.n	a2, a15, 0
  30:	331b      	addi.n	a3, a3, 1
  32:	4149      	s32i.n	a4, a1, 16
  34:	3179      	s32i.n	a7, a1, 12
  36:	2199      	s32i.n	a9, a1, 8
  38:	11a9      	s32i.n	a10, a1, 4
  3a:	01b9      	s32i.n	a11, a1, 0
  3c:	000001        	l32r	a0, fffc003c <_dtoa_r+0xfffbfef8>	3c: R_XTENSA_SLOT0_OP	.literal
	3c: R_XTENSA_ASM_EXPAND	__udivsi3
  3f:	0000c0        	callx0	a0
  42:	02dd      	mov.n	a13, a2
  44:	4148      	l32i.n	a4, a1, 16
  46:	3178      	l32i.n	a7, a1, 12
  48:	2198      	l32i.n	a9, a1, 8
  4a:	11a8      	l32i.n	a10, a1, 4
  4c:	06e216        	beqz	a2, be <quorem+0xbe>	4c: R_XTENSA_SLOT0_OP	.text+0xbe
  4f:	0158      	l32i.n	a5, a1, 0
  51:	0e6d      	mov.n	a6, a14
  53:	0a2d      	mov.n	a2, a10
  55:	203aa0        	or	a3, a10, a10
  58:	05b8      	l32i.n	a11, a5, 0
  5a:	554b      	addi.n	a5, a5, 4
  5c:	f4a0b0        	extui	a10, a11, 0, 16
  5f:	82aad0        	mull	a10, a10, a13
  62:	f5b0b0        	extui	a11, a11, 16, 16
  65:	a2aa      	add.n	a10, a2, a10
  67:	82bbd0        	mull	a11, a11, a13
  6a:	f520a0        	extui	a2, a10, 16, 16
  6d:	82ba      	add.n	a8, a2, a11
  6f:	06b8      	l32i.n	a11, a6, 0
  71:	f4a0a0        	extui	a10, a10, 0, 16
  74:	f4b0b0        	extui	a11, a11, 0, 16
  77:	3b3a      	add.n	a3, a11, a3
  79:	06b8      	l32i.n	a11, a6, 0
  7b:	c0a3a0        	sub	a10, a3, a10
  7e:	f530b0        	extui	a3, a11, 16, 16
  81:	f4b080        	extui	a11, a8, 0, 16
  84:	c0b3b0        	sub	a11, a3, a11
  87:	3130a0        	srai	a3, a10, 16
  8a:	bb3a      	add.n	a11, a11, a3
  8c:	3130b0        	srai	a3, a11, 16
  8f:	f4a0a0        	extui	a10, a10, 0, 16
  92:	11bb00        	slli	a11, a11, 16
  95:	20aba0        	or	a10, a11, a10
  98:	06a9      	s32i.n	a10, a6, 0
  9a:	f52080        	extui	a2, a8, 16, 16
  9d:	664b      	addi.n	a6, a6, 4
  9f:	b5b757        	bgeu	a7, a5, 58 <quorem+0x58>	9f: R_XTENSA_SLOT0_OP	.text+0x58
  a2:	0f28      	l32i.n	a2, a15, 0
  a4:	62dc      	bnez.n	a2, be <quorem+0xbe>	a4: R_XTENSA_SLOT0_OP	.text+0xbe
  a6:	000046        	j	ab <quorem+0xab>	a6: R_XTENSA_SLOT0_OP	.text+0xab
  a9:	cc0b      	addi.n	a12, a12, -1
  ab:	fccff2        	addi	a15, a15, -4
  ae:	043ef7        	bltu	a14, a15, b6 <quorem+0xb6>	ae: R_XTENSA_SLOT0_OP	.text+0xb6
  b1:	44c9      	s32i.n	a12, a4, 16
  b3:	0001c6        	j	be <quorem+0xbe>	b3: R_XTENSA_SLOT0_OP	.text+0xbe
  b6:	0f28      	l32i.n	a2, a15, 0
  b8:	fed216        	beqz	a2, a9 <quorem+0xa9>	b8: R_XTENSA_SLOT0_OP	.text+0xa9
  bb:	fffc86        	j	b1 <quorem+0xb1>	bb: R_XTENSA_SLOT0_OP	.text+0xb1
  be:	042d      	mov.n	a2, a4
  c0:	093d      	mov.n	a3, a9
  c2:	4149      	s32i.n	a4, a1, 16
  c4:	036172        	s32i	a7, a1, 12
  c7:	000001        	l32r	a0, fffc00c8 <_dtoa_r+0xfffbff84>	c7: R_XTENSA_SLOT0_OP	.literal+0x4
	c7: R_XTENSA_ASM_EXPAND	__mcmp
  ca:	0000c0        	callx0	a0
  cd:	4148      	l32i.n	a4, a1, 16
  cf:	3178      	l32i.n	a7, a1, 12
  d1:	059296        	bltz	a2, 12e <quorem+0x12e>	d1: R_XTENSA_SLOT0_OP	.text+0x12e
  d4:	0188      	l32i.n	a8, a1, 0
  d6:	dd1b      	addi.n	a13, a13, 1
  d8:	0e2d      	mov.n	a2, a14
  da:	060c      	movi.n	a6, 0
  dc:	0258      	l32i.n	a5, a2, 0
  de:	0898      	l32i.n	a9, a8, 0
  e0:	f43050        	extui	a3, a5, 0, 16
  e3:	336a      	add.n	a3, a3, a6
  e5:	f4a090        	extui	a10, a9, 0, 16
  e8:	c033a0        	sub	a3, a3, a10
  eb:	f55050        	extui	a5, a5, 16, 16
  ee:	f59090        	extui	a9, a9, 16, 16
  f1:	316030        	srai	a6, a3, 16
  f4:	c05590        	sub	a5, a5, a9
  f7:	556a      	add.n	a5, a5, a6
  f9:	316050        	srai	a6, a5, 16
  fc:	f43030        	extui	a3, a3, 0, 16
  ff:	115500        	slli	a5, a5, 16
 102:	203530        	or	a3, a5, a3
 105:	0239      	s32i.n	a3, a2, 0
 107:	884b      	addi.n	a8, a8, 4
 109:	224b      	addi.n	a2, a2, 4
 10b:	cdb787        	bgeu	a7, a8, dc <quorem+0xdc>	10b: R_XTENSA_SLOT0_OP	.text+0xdc
 10e:	a02ce0        	addx4	a2, a12, a14
 111:	0238      	l32i.n	a3, a2, 0
 113:	73dc      	bnez.n	a3, 12e <quorem+0x12e>	113: R_XTENSA_SLOT0_OP	.text+0x12e
 115:	000046        	j	11a <quorem+0x11a>	115: R_XTENSA_SLOT0_OP	.text+0x11a
 118:	cc0b      	addi.n	a12, a12, -1
 11a:	fcc222        	addi	a2, a2, -4
 11d:	043e27        	bltu	a14, a2, 125 <quorem+0x125>	11d: R_XTENSA_SLOT0_OP	.text+0x125
 120:	44c9      	s32i.n	a12, a4, 16
 122:	000206        	j	12e <quorem+0x12e>	122: R_XTENSA_SLOT0_OP	.text+0x12e
 125:	0238      	l32i.n	a3, a2, 0
 127:	fed316        	beqz	a3, 118 <quorem+0x118>	127: R_XTENSA_SLOT0_OP	.text+0x118
 12a:	fffc86        	j	120 <quorem+0x120>	12a: R_XTENSA_SLOT0_OP	.text+0x120
 12d:	00          	.byte 00
 12e:	0dad      	mov.n	a10, a13
 130:	f108      	l32i.n	a0, a1, 60
 132:	0a2d      	mov.n	a2, a10
 134:	e1c8      	l32i.n	a12, a1, 56
 136:	d1d8      	l32i.n	a13, a1, 52
 138:	c1e8      	l32i.n	a14, a1, 48
 13a:	b1f8      	l32i.n	a15, a1, 44
 13c:	40c112        	addi	a1, a1, 64
 13f:	f00d      	ret.n
 141:	000000        	ill

00000144 <_dtoa_r>:
 144:	90a092        	movi	a9, 144
 147:	c01190        	sub	a1, a1, a9
 14a:	102232        	l32i	a3, a2, 64
 14d:	2261c2        	s32i	a12, a1, 136
 150:	236102        	s32i	a0, a1, 140
 153:	2161d2        	s32i	a13, a1, 132
 156:	2061e2        	s32i	a14, a1, 128
 159:	1f61f2        	s32i	a15, a1, 124
 15c:	4129      	s32i.n	a2, a1, 16
 15e:	d169      	s32i.n	a6, a1, 52
 160:	116172        	s32i	a7, a1, 68
 163:	8149      	s32i.n	a4, a1, 32
 165:	9159      	s32i.n	a5, a1, 36
 167:	2521c2        	l32i	a12, a1, 148
 16a:	e39c      	beqz.n	a3, 18c <_dtoa_r+0x48>	16a: R_XTENSA_SLOT0_OP	.text+0x18c
 16c:	028d      	mov.n	a8, a2
 16e:	112222        	l32i	a2, a2, 68
 171:	140c      	movi.n	a4, 1
 173:	1329      	s32i.n	a2, a3, 4
 175:	401200        	ssl	a2
 178:	a12400        	sll	a2, a4
 17b:	2329      	s32i.n	a2, a3, 8
 17d:	082d      	mov.n	a2, a8
 17f:	000001        	l32r	a0, fffc0180 <_dtoa_r+0xfffc003c>	17f: R_XTENSA_SLOT0_OP	.literal+0x90
	17f: R_XTENSA_ASM_EXPAND	_Bfree
 182:	0000c0        	callx0	a0
 185:	4188      	l32i.n	a8, a1, 16
 187:	020c      	movi.n	a2, 0
 189:	106822        	s32i	a2, a8, 64
 18c:	9128      	l32i.n	a2, a1, 36
 18e:	0102d6        	bgez	a2, 1a2 <_dtoa_r+0x5e>	18e: R_XTENSA_SLOT0_OP	.text+0x1a2
 191:	120c      	movi.n	a2, 1
 193:	9138      	l32i.n	a3, a1, 36
 195:	0c29      	s32i.n	a2, a12, 0
 197:	000021        	l32r	a2, fffc0198 <_dtoa_r+0xfffc0054>	197: R_XTENSA_SLOT0_OP	.literal+0x14
 19a:	102230        	and	a2, a2, a3
 19d:	9129      	s32i.n	a2, a1, 36
 19f:	0000c6        	j	1a6 <_dtoa_r+0x62>	19f: R_XTENSA_SLOT0_OP	.text+0x1a6
 1a2:	020c      	movi.n	a2, 0
 1a4:	0c29      	s32i.n	a2, a12, 0
 1a6:	91f8      	l32i.n	a15, a1, 36
 1a8:	000021        	l32r	a2, fffc01a8 <_dtoa_r+0xfffc0064>	1a8: R_XTENSA_SLOT0_OP	.literal+0x18
 1ab:	1032f0        	and	a3, a2, a15
 1ae:	2f9327        	bne	a3, a2, 1e1 <_dtoa_r+0x9d>	1ae: R_XTENSA_SLOT0_OP	.text+0x1e1
 1b1:	000021        	l32r	a2, fffc01b4 <_dtoa_r+0xfffc0070>	1b1: R_XTENSA_SLOT0_OP	.literal+0x1c
 1b4:	242182        	l32i	a8, a1, 144
 1b7:	8138      	l32i.n	a3, a1, 32
 1b9:	0829      	s32i.n	a2, a8, 0
 1bb:	000021        	l32r	a2, fffc01bc <_dtoa_r+0xfffc0078>	1bb: R_XTENSA_SLOT0_OP	.literal+0xc
 1be:	a3cc      	bnez.n	a3, 1cc <_dtoa_r+0x88>	1be: R_XTENSA_SLOT0_OP	.text+0x1cc
 1c0:	000031        	l32r	a3, fffc01c0 <_dtoa_r+0xfffc007c>	1c0: R_XTENSA_SLOT0_OP	.literal+0x20
 1c3:	10ff30        	and	a15, a15, a3
 1c6:	000031        	l32r	a3, fffc01c8 <_dtoa_r+0xfffc0084>	1c6: R_XTENSA_SLOT0_OP	.literal+0x8
 1c9:	8323f0        	moveqz	a2, a3, a15
 1cc:	262182        	l32i	a8, a1, 152
 1cf:	18cc      	bnez.n	a8, 1d4 <_dtoa_r+0x90>	1cf: R_XTENSA_SLOT0_OP	.text+0x1d4
 1d1:	031cc6        	j	e48 <_dtoa_r+0xd04>	1d1: R_XTENSA_SLOT0_OP	.text+0xe48
 1d4:	030252        	l8ui	a5, a2, 3
 1d7:	328b      	addi.n	a3, a2, 8
 1d9:	423b      	addi.n	a4, a2, 3
 1db:	833450        	moveqz	a3, a4, a5
 1de:	000a86        	j	20c <_dtoa_r+0xc8>	1de: R_XTENSA_SLOT0_OP	.text+0x20c
 1e1:	81c8      	l32i.n	a12, a1, 32
 1e3:	91d8      	l32i.n	a13, a1, 36
 1e5:	000041        	l32r	a4, fffc01e8 <_dtoa_r+0xfffc00a4>	1e5: R_XTENSA_SLOT0_OP	.literal+0x24
 1e8:	000051        	l32r	a5, fffc01e8 <_dtoa_r+0xfffc00a4>	1e8: R_XTENSA_SLOT0_OP	.literal+0x28
 1eb:	0c2d      	mov.n	a2, a12
 1ed:	0d3d      	mov.n	a3, a13
 1ef:	000001        	l32r	a0, fffc01f0 <_dtoa_r+0xfffc00ac>	1ef: R_XTENSA_SLOT0_OP	.literal+0x94
	1ef: R_XTENSA_ASM_EXPAND	__eqdf2
 1f2:	0000c0        	callx0	a0
 1f5:	82dc      	bnez.n	a2, 211 <_dtoa_r+0xcd>	1f5: R_XTENSA_SLOT0_OP	.text+0x211
 1f7:	242182        	l32i	a8, a1, 144
 1fa:	120c      	movi.n	a2, 1
 1fc:	0829      	s32i.n	a2, a8, 0
 1fe:	262182        	l32i	a8, a1, 152
 201:	000021        	l32r	a2, fffc0204 <_dtoa_r+0xfffc00c0>	201: R_XTENSA_SLOT0_OP	.literal+0x10
 204:	18cc      	bnez.n	a8, 209 <_dtoa_r+0xc5>	204: R_XTENSA_SLOT0_OP	.text+0x209
 206:	030f86        	j	e48 <_dtoa_r+0xd04>	206: R_XTENSA_SLOT0_OP	.text+0xe48
 209:	000031        	l32r	a3, fffc020c <_dtoa_r+0xfffc00c8>	209: R_XTENSA_SLOT0_OP	.literal+0x2c
 20c:	0839      	s32i.n	a3, a8, 0
 20e:	030d86        	j	e48 <_dtoa_r+0xd04>	20e: R_XTENSA_SLOT0_OP	.text+0xe48
 211:	4128      	l32i.n	a2, a1, 16
 213:	0c4d      	mov.n	a4, a12
 215:	0d5d      	mov.n	a5, a13
 217:	016d      	mov.n	a6, a1
 219:	714b      	addi.n	a7, a1, 4
 21b:	000001        	l32r	a0, fffc021c <_dtoa_r+0xfffc00d8>	21b: R_XTENSA_SLOT0_OP	.literal+0x98
	21b: R_XTENSA_ASM_EXPAND	__d2b
 21e:	0000c0        	callx0	a0
 221:	7129      	s32i.n	a2, a1, 28
 223:	a544f0        	extui	a4, a15, 20, 11
 226:	649c      	beqz.n	a4, 240 <_dtoa_r+0xfc>	226: R_XTENSA_SLOT0_OP	.text+0x240
 228:	000061        	l32r	a6, fffc0228 <_dtoa_r+0xfffc00e4>	228: R_XTENSA_SLOT0_OP	.literal+0x20
 22b:	000051        	l32r	a5, fffc022c <_dtoa_r+0xfffc00e8>	22b: R_XTENSA_SLOT0_OP	.literal+0x30
 22e:	106d60        	and	a6, a13, a6
 231:	01ace2        	movi	a14, 0xfffffc01
 234:	0c2d      	mov.n	a2, a12
 236:	203650        	or	a3, a6, a5
 239:	e4ea      	add.n	a14, a4, a14
 23b:	070c      	movi.n	a7, 0
 23d:	001146        	j	286 <_dtoa_r+0x142>	23d: R_XTENSA_SLOT0_OP	.text+0x286
 240:	0128      	l32i.n	a2, a1, 0
 242:	11e8      	l32i.n	a14, a1, 4
 244:	ee2a      	add.n	a14, a14, a2
 246:	efab22        	movi	a2, 0xfffffbef
 249:	1c2e27        	blt	a14, a2, 269 <_dtoa_r+0x125>	249: R_XTENSA_SLOT0_OP	.text+0x269
 24c:	8188      	l32i.n	a8, a1, 32
 24e:	0eac32        	movi	a3, 0xfffffc0e
 251:	12ce22        	addi	a2, a14, 18
 254:	c033e0        	sub	a3, a3, a14
 257:	400200        	ssr	a2
 25a:	912080        	srl	a2, a8
 25d:	401300        	ssl	a3
 260:	a1ff00        	sll	a15, a15
 263:	2022f0        	or	a2, a2, a15
 266:	000346        	j	277 <_dtoa_r+0x133>	266: R_XTENSA_SLOT0_OP	.text+0x277
 269:	eeab22        	movi	a2, 0xfffffbee
 26c:	8138      	l32i.n	a3, a1, 32
 26e:	c022e0        	sub	a2, a2, a14
 271:	401200        	ssl	a2
 274:	a12300        	sll	a2, a3
 277:	000001        	l32r	a0, fffc0278 <_dtoa_r+0xfffc0134>	277: R_XTENSA_SLOT0_OP	.literal+0x9c
	277: R_XTENSA_ASM_EXPAND	__floatunsidf
 27a:	0000c0        	callx0	a0
 27d:	000041        	l32r	a4, fffc0280 <_dtoa_r+0xfffc013c>	27d: R_XTENSA_SLOT0_OP	.literal+0x34
 280:	ee0b      	addi.n	a14, a14, -1
 282:	343a      	add.n	a3, a4, a3
 284:	170c      	movi.n	a7, 1
 286:	000041        	l32r	a4, fffc0288 <_dtoa_r+0xfffc0144>	286: R_XTENSA_SLOT0_OP	.literal+0x38
 289:	000051        	l32r	a5, fffc028c <_dtoa_r+0xfffc0148>	289: R_XTENSA_SLOT0_OP	.literal+0x3c
 28c:	156172        	s32i	a7, a1, 84
 28f:	000001        	l32r	a0, fffc0290 <_dtoa_r+0xfffc014c>	28f: R_XTENSA_SLOT0_OP	.literal+0xa0
	28f: R_XTENSA_ASM_EXPAND	__subdf3
 292:	0000c0        	callx0	a0
 295:	000041        	l32r	a4, fffc0298 <_dtoa_r+0xfffc0154>	295: R_XTENSA_SLOT0_OP	.literal+0x40
 298:	000051        	l32r	a5, fffc0298 <_dtoa_r+0xfffc0154>	298: R_XTENSA_SLOT0_OP	.literal+0x44
 29b:	000001        	l32r	a0, fffc029c <_dtoa_r+0xfffc0158>	29b: R_XTENSA_SLOT0_OP	.literal+0xa4
	29b: R_XTENSA_ASM_EXPAND	__muldf3
 29e:	0000c0        	callx0	a0
 2a1:	000041        	l32r	a4, fffc02a4 <_dtoa_r+0xfffc0160>	2a1: R_XTENSA_SLOT0_OP	.literal+0x48
 2a4:	000051        	l32r	a5, fffc02a4 <_dtoa_r+0xfffc0160>	2a4: R_XTENSA_SLOT0_OP	.literal+0x4c
 2a7:	000001        	l32r	a0, fffc02a8 <_dtoa_r+0xfffc0164>	2a7: R_XTENSA_SLOT0_OP	.literal+0xa8
	2a7: R_XTENSA_ASM_EXPAND	__adddf3
 2aa:	0000c0        	callx0	a0
 2ad:	02cd      	mov.n	a12, a2
 2af:	0e2d      	mov.n	a2, a14
 2b1:	03dd      	mov.n	a13, a3
 2b3:	000001        	l32r	a0, fffc02b4 <_dtoa_r+0xfffc0170>	2b3: R_XTENSA_SLOT0_OP	.literal+0xac
	2b3: R_XTENSA_ASM_EXPAND	__floatsidf
 2b6:	0000c0        	callx0	a0
 2b9:	000041        	l32r	a4, fffc02bc <_dtoa_r+0xfffc0178>	2b9: R_XTENSA_SLOT0_OP	.literal+0x50
 2bc:	000051        	l32r	a5, fffc02bc <_dtoa_r+0xfffc0178>	2bc: R_XTENSA_SLOT0_OP	.literal+0x54
 2bf:	000001        	l32r	a0, fffc02c0 <_dtoa_r+0xfffc017c>	2bf: R_XTENSA_SLOT0_OP	.literal+0xb0
	2bf: R_XTENSA_ASM_EXPAND	__muldf3
 2c2:	0000c0        	callx0	a0
 2c5:	024d      	mov.n	a4, a2
 2c7:	205330        	or	a5, a3, a3
 2ca:	202cc0        	or	a2, a12, a12
 2cd:	203dd0        	or	a3, a13, a13
 2d0:	000001        	l32r	a0, fffc02d0 <_dtoa_r+0xfffc018c>	2d0: R_XTENSA_SLOT0_OP	.literal+0xb4
	2d0: R_XTENSA_ASM_EXPAND	__adddf3
 2d3:	0000c0        	callx0	a0
 2d6:	02cd      	mov.n	a12, a2
 2d8:	03dd      	mov.n	a13, a3
 2da:	000001        	l32r	a0, fffc02dc <_dtoa_r+0xfffc0198>	2da: R_XTENSA_SLOT0_OP	.literal+0xb8
	2da: R_XTENSA_ASM_EXPAND	__fixdfsi
 2dd:	0000c0        	callx0	a0
 2e0:	000041        	l32r	a4, fffc02e0 <_dtoa_r+0xfffc019c>	2e0: R_XTENSA_SLOT0_OP	.literal+0x24
 2e3:	000051        	l32r	a5, fffc02e4 <_dtoa_r+0xfffc01a0>	2e3: R_XTENSA_SLOT0_OP	.literal+0x28
 2e6:	056122        	s32i	a2, a1, 20
 2e9:	203dd0        	or	a3, a13, a13
 2ec:	202cc0        	or	a2, a12, a12
 2ef:	000001        	l32r	a0, fffc02f0 <_dtoa_r+0xfffc01ac>	2ef: R_XTENSA_SLOT0_OP	.literal+0xbc
	2ef: R_XTENSA_ASM_EXPAND	__ltdf2
 2f2:	0000c0        	callx0	a0
 2f5:	0232d6        	bgez	a2, 31c <_dtoa_r+0x1d8>	2f5: R_XTENSA_SLOT0_OP	.text+0x31c
 2f8:	5128      	l32i.n	a2, a1, 20
 2fa:	000001        	l32r	a0, fffc02fc <_dtoa_r+0xfffc01b8>	2fa: R_XTENSA_SLOT0_OP	.literal+0xc0
	2fa: R_XTENSA_ASM_EXPAND	__floatsidf
 2fd:	0000c0        	callx0	a0
 300:	024d      	mov.n	a4, a2
 302:	035d      	mov.n	a5, a3
 304:	0c2d      	mov.n	a2, a12
 306:	0d3d      	mov.n	a3, a13
 308:	000001        	l32r	a0, fffc0308 <_dtoa_r+0xfffc01c4>	308: R_XTENSA_SLOT0_OP	.literal+0xc4
	308: R_XTENSA_ASM_EXPAND	__nedf2
 30b:	0000c0        	callx0	a0
 30e:	5188      	l32i.n	a8, a1, 20
 310:	030c      	movi.n	a3, 0
 312:	140c      	movi.n	a4, 1
 314:	933420        	movnez	a3, a4, a2
 317:	c08830        	sub	a8, a8, a3
 31a:	5189      	s32i.n	a8, a1, 20
 31c:	170c      	movi.n	a7, 1
 31e:	5188      	l32i.n	a8, a1, 20
 320:	146172        	s32i	a7, a1, 80
 323:	621c      	movi.n	a2, 22
 325:	293287        	bltu	a2, a8, 352 <_dtoa_r+0x20e>	325: R_XTENSA_SLOT0_OP	.text+0x352
 328:	000021        	l32r	a2, fffc0328 <_dtoa_r+0xfffc01e4>	328: R_XTENSA_SLOT0_OP	.literal+0x58
 32b:	8148      	l32i.n	a4, a1, 32
 32d:	b02820        	addx8	a2, a8, a2
 330:	1238      	l32i.n	a3, a2, 4
 332:	9158      	l32i.n	a5, a1, 36
 334:	0228      	l32i.n	a2, a2, 0
 336:	000001        	l32r	a0, fffc0338 <_dtoa_r+0xfffc01f4>	336: R_XTENSA_SLOT0_OP	.literal+0xc8
	336: R_XTENSA_ASM_EXPAND	__gtdf2
 339:	0000c0        	callx0	a0
 33c:	0d12a6        	blti	a2, 1, 34d <_dtoa_r+0x209>	33c: R_XTENSA_SLOT0_OP	.text+0x34d
 33f:	5178      	l32i.n	a7, a1, 20
 341:	080c      	movi.n	a8, 0
 343:	770b      	addi.n	a7, a7, -1
 345:	5179      	s32i.n	a7, a1, 20
 347:	146182        	s32i	a8, a1, 80
 34a:	000106        	j	352 <_dtoa_r+0x20e>	34a: R_XTENSA_SLOT0_OP	.text+0x352
 34d:	070c      	movi.n	a7, 0
 34f:	146172        	s32i	a7, a1, 80
 352:	1128      	l32i.n	a2, a1, 4
 354:	080c      	movi.n	a8, 0
 356:	c0e2e0        	sub	a14, a2, a14
 359:	ee0b      	addi.n	a14, a14, -1
 35b:	a1e9      	s32i.n	a14, a1, 40
 35d:	c189      	s32i.n	a8, a1, 48
 35f:	06ae87        	bge	a14, a8, 369 <_dtoa_r+0x225>	35f: R_XTENSA_SLOT0_OP	.text+0x369
 362:	6070e0        	neg	a7, a14
 365:	c179      	s32i.n	a7, a1, 48
 367:	a189      	s32i.n	a8, a1, 40
 369:	5178      	l32i.n	a7, a1, 20
 36b:	00f796        	bltz	a7, 37e <_dtoa_r+0x23a>	36b: R_XTENSA_SLOT0_OP	.text+0x37e
 36e:	a188      	l32i.n	a8, a1, 40
 370:	136172        	s32i	a7, a1, 76
 373:	887a      	add.n	a8, a8, a7
 375:	070c      	movi.n	a7, 0
 377:	a189      	s32i.n	a8, a1, 40
 379:	e179      	s32i.n	a7, a1, 56
 37b:	000486        	j	391 <_dtoa_r+0x24d>	37b: R_XTENSA_SLOT0_OP	.text+0x391
 37e:	5178      	l32i.n	a7, a1, 20
 380:	c188      	l32i.n	a8, a1, 48
 382:	c08870        	sub	a8, a8, a7
 385:	c189      	s32i.n	a8, a1, 48
 387:	608070        	neg	a8, a7
 38a:	070c      	movi.n	a7, 0
 38c:	e189      	s32i.n	a8, a1, 56
 38e:	136172        	s32i	a7, a1, 76
 391:	d188      	l32i.n	a8, a1, 52
 393:	920c      	movi.n	a2, 9
 395:	1c0c      	movi.n	a12, 1
 397:	5b3287        	bltu	a2, a8, 3f6 <_dtoa_r+0x2b2>	397: R_XTENSA_SLOT0_OP	.text+0x3f6
 39a:	0668a6        	blti	a8, 6, 3a4 <_dtoa_r+0x260>	39a: R_XTENSA_SLOT0_OP	.text+0x3a4
 39d:	fcc882        	addi	a8, a8, -4
 3a0:	d189      	s32i.n	a8, a1, 52
 3a2:	0c0c      	movi.n	a12, 0
 3a4:	d188      	l32i.n	a8, a1, 52
 3a6:	303826        	beqi	a8, 3, 3da <_dtoa_r+0x296>	3a6: R_XTENSA_SLOT0_OP	.text+0x3da
 3a9:	0b48e6        	bgei	a8, 4, 3b8 <_dtoa_r+0x274>	3a9: R_XTENSA_SLOT0_OP	.text+0x3b8
 3ac:	070c      	movi.n	a7, 0
 3ae:	106172        	s32i	a7, a1, 64
 3b1:	182826        	beqi	a8, 2, 3cd <_dtoa_r+0x289>	3b1: R_XTENSA_SLOT0_OP	.text+0x3cd
 3b4:	001406        	j	408 <_dtoa_r+0x2c4>	3b4: R_XTENSA_SLOT0_OP	.text+0x408
 3b7:	00          	.byte 00
 3b8:	d188      	l32i.n	a8, a1, 52
 3ba:	0a4826        	beqi	a8, 4, 3c8 <_dtoa_r+0x284>	3ba: R_XTENSA_SLOT0_OP	.text+0x3c8
 3bd:	170c      	movi.n	a7, 1
 3bf:	106172        	s32i	a7, a1, 64
 3c2:	195826        	beqi	a8, 5, 3df <_dtoa_r+0x29b>	3c2: R_XTENSA_SLOT0_OP	.text+0x3df
 3c5:	000fc6        	j	408 <_dtoa_r+0x2c4>	3c5: R_XTENSA_SLOT0_OP	.text+0x408
 3c8:	180c      	movi.n	a8, 1
 3ca:	106182        	s32i	a8, a1, 64
 3cd:	112182        	l32i	a8, a1, 68
 3d0:	4918a6        	blti	a8, 1, 41d <_dtoa_r+0x2d9>	3d0: R_XTENSA_SLOT0_OP	.text+0x41d
 3d3:	f189      	s32i.n	a8, a1, 60
 3d5:	6189      	s32i.n	a8, a1, 24
 3d7:	000586        	j	3f1 <_dtoa_r+0x2ad>	3d7: R_XTENSA_SLOT0_OP	.text+0x3f1
 3da:	070c      	movi.n	a7, 0
 3dc:	106172        	s32i	a7, a1, 64
 3df:	112182        	l32i	a8, a1, 68
 3e2:	5178      	l32i.n	a7, a1, 20
 3e4:	120c      	movi.n	a2, 1
 3e6:	887a      	add.n	a8, a8, a7
 3e8:	f189      	s32i.n	a8, a1, 60
 3ea:	881b      	addi.n	a8, a8, 1
 3ec:	6189      	s32i.n	a8, a1, 24
 3ee:	362827        	blt	a8, a2, 428 <_dtoa_r+0x2e4>	3ee: R_XTENSA_SLOT0_OP	.text+0x428
 3f1:	082d      	mov.n	a2, a8
 3f3:	000c46        	j	428 <_dtoa_r+0x2e4>	3f3: R_XTENSA_SLOT0_OP	.text+0x428
 3f6:	f77c      	movi.n	a7, -1
 3f8:	080c      	movi.n	a8, 0
 3fa:	d189      	s32i.n	a8, a1, 52
 3fc:	1061c2        	s32i	a12, a1, 64
 3ff:	f179      	s32i.n	a7, a1, 60
 401:	6179      	s32i.n	a7, a1, 24
 403:	221c      	movi.n	a2, 18
 405:	000386        	j	417 <_dtoa_r+0x2d3>	405: R_XTENSA_SLOT0_OP	.text+0x417
 408:	180c      	movi.n	a8, 1
 40a:	f77c      	movi.n	a7, -1
 40c:	106182        	s32i	a8, a1, 64
 40f:	f179      	s32i.n	a7, a1, 60
 411:	6179      	s32i.n	a7, a1, 24
 413:	221c      	movi.n	a2, 18
 415:	080c      	movi.n	a8, 0
 417:	116182        	s32i	a8, a1, 68
 41a:	000286        	j	428 <_dtoa_r+0x2e4>	41a: R_XTENSA_SLOT0_OP	.text+0x428
 41d:	170c      	movi.n	a7, 1
 41f:	f179      	s32i.n	a7, a1, 60
 421:	6179      	s32i.n	a7, a1, 24
 423:	072d      	mov.n	a2, a7
 425:	116172        	s32i	a7, a1, 68
 428:	4188      	l32i.n	a8, a1, 16
 42a:	030c      	movi.n	a3, 0
 42c:	116832        	s32i	a3, a8, 68
 42f:	430c      	movi.n	a3, 4
 431:	000306        	j	441 <_dtoa_r+0x2fd>	431: R_XTENSA_SLOT0_OP	.text+0x441
 434:	4188      	l32i.n	a8, a1, 16
 436:	1133f0        	slli	a3, a3, 1
 439:	112842        	l32i	a4, a8, 68
 43c:	441b      	addi.n	a4, a4, 1
 43e:	116842        	s32i	a4, a8, 68
 441:	14c342        	addi	a4, a3, 20
 444:	ecb247        	bgeu	a2, a4, 434 <_dtoa_r+0x2f0>	444: R_XTENSA_SLOT0_OP	.text+0x434
 447:	4128      	l32i.n	a2, a1, 16
 449:	112232        	l32i	a3, a2, 68
 44c:	000001        	l32r	a0, fffc044c <_dtoa_r+0xfffc0308>	44c: R_XTENSA_SLOT0_OP	.literal+0xcc
	44c: R_XTENSA_ASM_EXPAND	_Balloc
 44f:	0000c0        	callx0	a0
 452:	4188      	l32i.n	a8, a1, 16
 454:	6178      	l32i.n	a7, a1, 24
 456:	b129      	s32i.n	a2, a1, 44
 458:	106822        	s32i	a2, a8, 64
 45b:	e20c      	movi.n	a2, 14
 45d:	02b277        	bgeu	a2, a7, 463 <_dtoa_r+0x31f>	45d: R_XTENSA_SLOT0_OP	.text+0x463
 460:	00d786        	j	7c2 <_dtoa_r+0x67e>	460: R_XTENSA_SLOT0_OP	.text+0x7c2
 463:	35bc16        	beqz	a12, 7c2 <_dtoa_r+0x67e>	463: R_XTENSA_SLOT0_OP	.text+0x7c2
 466:	8128      	l32i.n	a2, a1, 32
 468:	9138      	l32i.n	a3, a1, 36
 46a:	5178      	l32i.n	a7, a1, 20
 46c:	166122        	s32i	a2, a1, 88
 46f:	176132        	s32i	a3, a1, 92
 472:	7217a6        	blti	a7, 1, 4e8 <_dtoa_r+0x3a4>	472: R_XTENSA_SLOT0_OP	.text+0x4e8
 475:	000031        	l32r	a3, fffc0478 <_dtoa_r+0xfffc0334>	475: R_XTENSA_SLOT0_OP	.literal+0x58
 478:	342070        	extui	a2, a7, 0, 4
 47b:	b02230        	addx8	a2, a2, a3
 47e:	21d470        	srai	a13, a7, 4
 481:	02e8      	l32i.n	a14, a2, 0
 483:	12f8      	l32i.n	a15, a2, 4
 485:	2c0c      	movi.n	a12, 2
 487:	1d6d47        	bbci	a13, 4, 4a8 <_dtoa_r+0x364>	487: R_XTENSA_SLOT0_OP	.text+0x4a8
 48a:	000041        	l32r	a4, fffc048c <_dtoa_r+0xfffc0348>	48a: R_XTENSA_SLOT0_OP	.literal+0x5c
 48d:	162122        	l32i	a2, a1, 88
 490:	092452        	l32i	a5, a4, 36
 493:	172132        	l32i	a3, a1, 92
 496:	082442        	l32i	a4, a4, 32
 499:	34d0d0        	extui	a13, a13, 0, 4
 49c:	000001        	l32r	a0, fffc049c <_dtoa_r+0xfffc0358>	49c: R_XTENSA_SLOT0_OP	.literal+0xd0
	49c: R_XTENSA_ASM_EXPAND	__divdf3
 49f:	0000c0        	callx0	a0
 4a2:	8129      	s32i.n	a2, a1, 32
 4a4:	9139      	s32i.n	a3, a1, 36
 4a6:	3c0c      	movi.n	a12, 3
 4a8:	000061        	l32r	a6, fffc04a8 <_dtoa_r+0xfffc0364>	4a8: R_XTENSA_SLOT0_OP	.literal+0x5c
 4ab:	0008c6        	j	4d2 <_dtoa_r+0x38e>	4ab: R_XTENSA_SLOT0_OP	.text+0x4d2
 4ae:	1b6d07        	bbci	a13, 0, 4cd <_dtoa_r+0x389>	4ae: R_XTENSA_SLOT0_OP	.text+0x4cd
 4b1:	0648      	l32i.n	a4, a6, 0
 4b3:	012652        	l32i	a5, a6, 4
 4b6:	0e2d      	mov.n	a2, a14
 4b8:	203ff0        	or	a3, a15, a15
 4bb:	1b6162        	s32i	a6, a1, 108
 4be:	000001        	l32r	a0, fffc04c0 <_dtoa_r+0xfffc037c>	4be: R_XTENSA_SLOT0_OP	.literal+0xd4
	4be: R_XTENSA_ASM_EXPAND	__muldf3
 4c1:	0000c0        	callx0	a0
 4c4:	1b2162        	l32i	a6, a1, 108
 4c7:	cc1b      	addi.n	a12, a12, 1
 4c9:	02ed      	mov.n	a14, a2
 4cb:	03fd      	mov.n	a15, a3
 4cd:	21d1d0        	srai	a13, a13, 1
 4d0:	668b      	addi.n	a6, a6, 8
 4d2:	fd8d56        	bnez	a13, 4ae <_dtoa_r+0x36a>	4d2: R_XTENSA_SLOT0_OP	.text+0x4ae
 4d5:	8128      	l32i.n	a2, a1, 32
 4d7:	9138      	l32i.n	a3, a1, 36
 4d9:	0e4d      	mov.n	a4, a14
 4db:	205ff0        	or	a5, a15, a15
 4de:	000001        	l32r	a0, fffc04e0 <_dtoa_r+0xfffc039c>	4de: R_XTENSA_SLOT0_OP	.literal+0xd8
	4de: R_XTENSA_ASM_EXPAND	__divdf3
 4e1:	0000c0        	callx0	a0
 4e4:	001106        	j	52c <_dtoa_r+0x3e8>	4e4: R_XTENSA_SLOT0_OP	.text+0x52c
 4e7:	00          	.byte 00
 4e8:	5188      	l32i.n	a8, a1, 20
 4ea:	2c0c      	movi.n	a12, 2
 4ec:	60d080        	neg	a13, a8
 4ef:	ddbc      	beqz.n	a13, 530 <_dtoa_r+0x3ec>	4ef: R_XTENSA_SLOT0_OP	.text+0x530
 4f1:	000021        	l32r	a2, fffc04f4 <_dtoa_r+0xfffc03b0>	4f1: R_XTENSA_SLOT0_OP	.literal+0x58
 4f4:	3440d0        	extui	a4, a13, 0, 4
 4f7:	b04420        	addx8	a4, a4, a2
 4fa:	1458      	l32i.n	a5, a4, 4
 4fc:	162122        	l32i	a2, a1, 88
 4ff:	172132        	l32i	a3, a1, 92
 502:	0448      	l32i.n	a4, a4, 0
 504:	21d4d0        	srai	a13, a13, 4
 507:	000001        	l32r	a0, fffc0508 <_dtoa_r+0xfffc03c4>	507: R_XTENSA_SLOT0_OP	.literal+0xdc
	507: R_XTENSA_ASM_EXPAND	__muldf3
 50a:	0000c0        	callx0	a0
 50d:	0000e1        	l32r	a14, fffc0510 <_dtoa_r+0xfffc03cc>	50d: R_XTENSA_SLOT0_OP	.literal+0x5c
 510:	000546        	j	529 <_dtoa_r+0x3e5>	510: R_XTENSA_SLOT0_OP	.text+0x529
 513:	00          	.byte 00
 514:	00          	.byte 00
 515:	0b6d07        	bbci	a13, 0, 524 <_dtoa_r+0x3e0>	515: R_XTENSA_SLOT0_OP	.text+0x524
 518:	0e48      	l32i.n	a4, a14, 0
 51a:	1e58      	l32i.n	a5, a14, 4
 51c:	cc1b      	addi.n	a12, a12, 1
 51e:	000001        	l32r	a0, fffc0520 <_dtoa_r+0xfffc03dc>	51e: R_XTENSA_SLOT0_OP	.literal+0xe0
	51e: R_XTENSA_ASM_EXPAND	__muldf3
 521:	0000c0        	callx0	a0
 524:	21d1d0        	srai	a13, a13, 1
 527:	ee8b      	addi.n	a14, a14, 8
 529:	fe8d56        	bnez	a13, 515 <_dtoa_r+0x3d1>	529: R_XTENSA_SLOT0_OP	.text+0x515
 52c:	8129      	s32i.n	a2, a1, 32
 52e:	9139      	s32i.n	a3, a1, 36
 530:	142172        	l32i	a7, a1, 80
 533:	04e716        	beqz	a7, 585 <_dtoa_r+0x441>	533: R_XTENSA_SLOT0_OP	.text+0x585
 536:	81e8      	l32i.n	a14, a1, 32
 538:	91f8      	l32i.n	a15, a1, 36
 53a:	000041        	l32r	a4, fffc053c <_dtoa_r+0xfffc03f8>	53a: R_XTENSA_SLOT0_OP	.literal+0x60
 53d:	000051        	l32r	a5, fffc0540 <_dtoa_r+0xfffc03fc>	53d: R_XTENSA_SLOT0_OP	.literal+0x64
 540:	202ee0        	or	a2, a14, a14
 543:	203ff0        	or	a3, a15, a15
 546:	000001        	l32r	a0, fffc0548 <_dtoa_r+0xfffc0404>	546: R_XTENSA_SLOT0_OP	.literal+0xe4
	546: R_XTENSA_ASM_EXPAND	__ltdf2
 549:	0000c0        	callx0	a0
 54c:	02d2d6        	bgez	a2, 57d <_dtoa_r+0x439>	54c: R_XTENSA_SLOT0_OP	.text+0x57d
 54f:	6188      	l32i.n	a8, a1, 24
 551:	08bc      	beqz.n	a8, 585 <_dtoa_r+0x441>	551: R_XTENSA_SLOT0_OP	.text+0x585
 553:	f178      	l32i.n	a7, a1, 60
 555:	0217e6        	bgei	a7, 1, 55b <_dtoa_r+0x417>	555: R_XTENSA_SLOT0_OP	.text+0x55b
 558:	009706        	j	7b8 <_dtoa_r+0x674>	558: R_XTENSA_SLOT0_OP	.text+0x7b8
 55b:	5188      	l32i.n	a8, a1, 20
 55d:	000041        	l32r	a4, fffc0560 <_dtoa_r+0xfffc041c>	55d: R_XTENSA_SLOT0_OP	.literal+0x68
 560:	000051        	l32r	a5, fffc0560 <_dtoa_r+0xfffc041c>	560: R_XTENSA_SLOT0_OP	.literal+0x6c
 563:	880b      	addi.n	a8, a8, -1
 565:	0e2d      	mov.n	a2, a14
 567:	0f3d      	mov.n	a3, a15
 569:	126182        	s32i	a8, a1, 72
 56c:	000001        	l32r	a0, fffc056c <_dtoa_r+0xfffc0428>	56c: R_XTENSA_SLOT0_OP	.literal+0xe8
	56c: R_XTENSA_ASM_EXPAND	__muldf3
 56f:	0000c0        	callx0	a0
 572:	8129      	s32i.n	a2, a1, 32
 574:	9139      	s32i.n	a3, a1, 36
 576:	cc1b      	addi.n	a12, a12, 1
 578:	f1d8      	l32i.n	a13, a1, 60
 57a:	000386        	j	58c <_dtoa_r+0x448>	57a: R_XTENSA_SLOT0_OP	.text+0x58c
 57d:	5188      	l32i.n	a8, a1, 20
 57f:	126182        	s32i	a8, a1, 72
 582:	000106        	j	58a <_dtoa_r+0x446>	582: R_XTENSA_SLOT0_OP	.text+0x58a
 585:	5178      	l32i.n	a7, a1, 20
 587:	126172        	s32i	a7, a1, 72
 58a:	61d8      	l32i.n	a13, a1, 24
 58c:	0c2d      	mov.n	a2, a12
 58e:	0821e2        	l32i	a14, a1, 32
 591:	0921f2        	l32i	a15, a1, 36
 594:	000001        	l32r	a0, fffc0594 <_dtoa_r+0xfffc0450>	594: R_XTENSA_SLOT0_OP	.literal+0xec
	594: R_XTENSA_ASM_EXPAND	__floatsidf
 597:	0000c0        	callx0	a0
 59a:	0e4d      	mov.n	a4, a14
 59c:	0f5d      	mov.n	a5, a15
 59e:	000001        	l32r	a0, fffc05a0 <_dtoa_r+0xfffc045c>	59e: R_XTENSA_SLOT0_OP	.literal+0xf0
	59e: R_XTENSA_ASM_EXPAND	__muldf3
 5a1:	0000c0        	callx0	a0
 5a4:	000041        	l32r	a4, fffc05a4 <_dtoa_r+0xfffc0460>	5a4: R_XTENSA_SLOT0_OP	.literal+0x70
 5a7:	000051        	l32r	a5, fffc05a8 <_dtoa_r+0xfffc0464>	5a7: R_XTENSA_SLOT0_OP	.literal+0x74
 5aa:	000001        	l32r	a0, fffc05ac <_dtoa_r+0xfffc0468>	5aa: R_XTENSA_SLOT0_OP	.literal+0xf4
	5aa: R_XTENSA_ASM_EXPAND	__adddf3
 5ad:	0000c0        	callx0	a0
 5b0:	0000c1        	l32r	a12, fffc05b0 <_dtoa_r+0xfffc046c>	5b0: R_XTENSA_SLOT0_OP	.literal+0x78
 5b3:	026d      	mov.n	a6, a2
 5b5:	c3ca      	add.n	a12, a3, a12
 5b7:	049d56        	bnez	a13, 604 <_dtoa_r+0x4c0>	5b7: R_XTENSA_SLOT0_OP	.text+0x604
 5ba:	000041        	l32r	a4, fffc05bc <_dtoa_r+0xfffc0478>	5ba: R_XTENSA_SLOT0_OP	.literal+0x7c
 5bd:	000051        	l32r	a5, fffc05c0 <_dtoa_r+0xfffc047c>	5bd: R_XTENSA_SLOT0_OP	.literal+0x80
 5c0:	0e2d      	mov.n	a2, a14
 5c2:	0f3d      	mov.n	a3, a15
 5c4:	1b6162        	s32i	a6, a1, 108
 5c7:	1961c2        	s32i	a12, a1, 100
 5ca:	000001        	l32r	a0, fffc05cc <_dtoa_r+0xfffc0488>	5ca: R_XTENSA_SLOT0_OP	.literal+0xf8
	5ca: R_XTENSA_ASM_EXPAND	__subdf3
 5cd:	0000c0        	callx0	a0
 5d0:	1b2162        	l32i	a6, a1, 108
 5d3:	0c5d      	mov.n	a5, a12
 5d5:	064d      	mov.n	a4, a6
 5d7:	02ed      	mov.n	a14, a2
 5d9:	03fd      	mov.n	a15, a3
 5db:	000001        	l32r	a0, fffc05dc <_dtoa_r+0xfffc0498>	5db: R_XTENSA_SLOT0_OP	.literal+0xfc
	5db: R_XTENSA_ASM_EXPAND	__gtdf2
 5de:	0000c0        	callx0	a0
 5e1:	1b2162        	l32i	a6, a1, 108
 5e4:	0212a6        	blti	a2, 1, 5ea <_dtoa_r+0x4a6>	5e4: R_XTENSA_SLOT0_OP	.text+0x5ea
 5e7:	016086        	j	b6d <_dtoa_r+0xa29>	5e7: R_XTENSA_SLOT0_OP	.text+0xb6d
 5ea:	064d      	mov.n	a4, a6
 5ec:	000061        	l32r	a6, fffc05ec <_dtoa_r+0xfffc04a8>	5ec: R_XTENSA_SLOT0_OP	.literal+0x84
 5ef:	0e2d      	mov.n	a2, a14
 5f1:	0f3d      	mov.n	a3, a15
 5f3:	305c60        	xor	a5, a12, a6
 5f6:	000001        	l32r	a0, fffc05f8 <_dtoa_r+0xfffc04b4>	5f6: R_XTENSA_SLOT0_OP	.literal+0x100
	5f6: R_XTENSA_ASM_EXPAND	__ltdf2
 5f9:	0000c0        	callx0	a0
 5fc:	55c296        	bltz	a2, b5c <_dtoa_r+0xa18>	5fc: R_XTENSA_SLOT0_OP	.text+0xb5c
 5ff:	006d46        	j	7b8 <_dtoa_r+0x674>	5ff: R_XTENSA_SLOT0_OP	.text+0x7b8
 602:	00          	.byte 00
 603:	00          	.byte 00
 604:	102182        	l32i	a8, a1, 64
 607:	000021        	l32r	a2, fffc0608 <_dtoa_r+0xfffc04c4>	607: R_XTENSA_SLOT0_OP	.literal+0x58
 60a:	3d0b      	addi.n	a3, a13, -1
 60c:	0e1816        	beqz	a8, 6f1 <_dtoa_r+0x5ad>	60c: R_XTENSA_SLOT0_OP	.text+0x6f1
 60f:	b04320        	addx8	a4, a3, a2
 612:	1458      	l32i.n	a5, a4, 4
 614:	000021        	l32r	a2, fffc0614 <_dtoa_r+0xfffc04d0>	614: R_XTENSA_SLOT0_OP	.literal+0x88
 617:	0448      	l32i.n	a4, a4, 0
 619:	000031        	l32r	a3, fffc061c <_dtoa_r+0xfffc04d8>	619: R_XTENSA_SLOT0_OP	.literal+0x8c
 61c:	1b6162        	s32i	a6, a1, 108
 61f:	1961c2        	s32i	a12, a1, 100
 622:	000001        	l32r	a0, fffc0624 <_dtoa_r+0xfffc04e0>	622: R_XTENSA_SLOT0_OP	.literal+0x104
	622: R_XTENSA_ASM_EXPAND	__divdf3
 625:	0000c0        	callx0	a0
 628:	1b2162        	l32i	a6, a1, 108
 62b:	192172        	l32i	a7, a1, 100
 62e:	204660        	or	a4, a6, a6
 631:	205770        	or	a5, a7, a7
 634:	000001        	l32r	a0, fffc0634 <_dtoa_r+0xfffc04f0>	634: R_XTENSA_SLOT0_OP	.literal+0x108
	634: R_XTENSA_ASM_EXPAND	__subdf3
 637:	0000c0        	callx0	a0
 63a:	b1c8      	l32i.n	a12, a1, 44
 63c:	8129      	s32i.n	a2, a1, 32
 63e:	096132        	s32i	a3, a1, 36
 641:	203ff0        	or	a3, a15, a15
 644:	202ee0        	or	a2, a14, a14
 647:	000001        	l32r	a0, fffc0648 <_dtoa_r+0xfffc0504>	647: R_XTENSA_SLOT0_OP	.literal+0x10c
	647: R_XTENSA_ASM_EXPAND	__fixdfsi
 64a:	0000c0        	callx0	a0
 64d:	026d      	mov.n	a6, a2
 64f:	1b6162        	s32i	a6, a1, 108
 652:	000001        	l32r	a0, fffc0654 <_dtoa_r+0xfffc0510>	652: R_XTENSA_SLOT0_OP	.literal+0x110
	652: R_XTENSA_ASM_EXPAND	__floatsidf
 655:	0000c0        	callx0	a0
 658:	024d      	mov.n	a4, a2
 65a:	205330        	or	a5, a3, a3
 65d:	0e2d      	mov.n	a2, a14
 65f:	203ff0        	or	a3, a15, a15
 662:	000001        	l32r	a0, fffc0664 <_dtoa_r+0xfffc0520>	662: R_XTENSA_SLOT0_OP	.literal+0x114
	662: R_XTENSA_ASM_EXPAND	__subdf3
 665:	0000c0        	callx0	a0
 668:	1b2162        	l32i	a6, a1, 108
 66b:	cc1b      	addi.n	a12, a12, 1
 66d:	02ed      	mov.n	a14, a2
 66f:	30c662        	addi	a6, a6, 48
 672:	2c0b      	addi.n	a2, a12, -1
 674:	8148      	l32i.n	a4, a1, 32
 676:	9158      	l32i.n	a5, a1, 36
 678:	004262        	s8i	a6, a2, 0
 67b:	0e2d      	mov.n	a2, a14
 67d:	03fd      	mov.n	a15, a3
 67f:	000001        	l32r	a0, fffc0680 <_dtoa_r+0xfffc053c>	67f: R_XTENSA_SLOT0_OP	.literal+0x118
	67f: R_XTENSA_ASM_EXPAND	__ltdf2
 682:	0000c0        	callx0	a0
 685:	78f296        	bltz	a2, e18 <_dtoa_r+0xcd4>	685: R_XTENSA_SLOT0_OP	.text+0xe18
 688:	000021        	l32r	a2, fffc0688 <_dtoa_r+0xfffc0544>	688: R_XTENSA_SLOT0_OP	.literal+0x60
 68b:	000031        	l32r	a3, fffc068c <_dtoa_r+0xfffc0548>	68b: R_XTENSA_SLOT0_OP	.literal+0x64
 68e:	0e4d      	mov.n	a4, a14
 690:	0f5d      	mov.n	a5, a15
 692:	000001        	l32r	a0, fffc0694 <_dtoa_r+0xfffc0550>	692: R_XTENSA_SLOT0_OP	.literal+0x11c
	692: R_XTENSA_ASM_EXPAND	__subdf3
 695:	0000c0        	callx0	a0
 698:	082142        	l32i	a4, a1, 32
 69b:	092152        	l32i	a5, a1, 36
 69e:	000001        	l32r	a0, fffc06a0 <_dtoa_r+0xfffc055c>	69e: R_XTENSA_SLOT0_OP	.literal+0x120
	69e: R_XTENSA_ASM_EXPAND	__ltdf2
 6a1:	0000c0        	callx0	a0
 6a4:	228296        	bltz	a2, 8d0 <_dtoa_r+0x78c>	6a4: R_XTENSA_SLOT0_OP	.text+0x8d0
 6a7:	b178      	l32i.n	a7, a1, 44
 6a9:	c02c70        	sub	a2, a12, a7
 6ac:	0222d7        	blt	a2, a13, 6b2 <_dtoa_r+0x56e>	6ac: R_XTENSA_SLOT0_OP	.text+0x6b2
 6af:	004146        	j	7b8 <_dtoa_r+0x674>	6af: R_XTENSA_SLOT0_OP	.text+0x7b8
 6b2:	082122        	l32i	a2, a1, 32
 6b5:	092132        	l32i	a3, a1, 36
 6b8:	000041        	l32r	a4, fffc06b8 <_dtoa_r+0xfffc0574>	6b8: R_XTENSA_SLOT0_OP	.literal+0x68
 6bb:	000051        	l32r	a5, fffc06bc <_dtoa_r+0xfffc0578>	6bb: R_XTENSA_SLOT0_OP	.literal+0x6c
 6be:	000001        	l32r	a0, fffc06c0 <_dtoa_r+0xfffc057c>	6be: R_XTENSA_SLOT0_OP	.literal+0x124
	6be: R_XTENSA_ASM_EXPAND	__muldf3
 6c1:	0000c0        	callx0	a0
 6c4:	000041        	l32r	a4, fffc06c4 <_dtoa_r+0xfffc0580>	6c4: R_XTENSA_SLOT0_OP	.literal+0x68
 6c7:	000051        	l32r	a5, fffc06c8 <_dtoa_r+0xfffc0584>	6c7: R_XTENSA_SLOT0_OP	.literal+0x6c
 6ca:	026d      	mov.n	a6, a2
 6cc:	037d      	mov.n	a7, a3
 6ce:	202ee0        	or	a2, a14, a14
 6d1:	203ff0        	or	a3, a15, a15
 6d4:	1b6162        	s32i	a6, a1, 108
 6d7:	196172        	s32i	a7, a1, 100
 6da:	000001        	l32r	a0, fffc06dc <_dtoa_r+0xfffc0598>	6da: R_XTENSA_SLOT0_OP	.literal+0x128
	6da: R_XTENSA_ASM_EXPAND	__muldf3
 6dd:	0000c0        	callx0	a0
 6e0:	1b2162        	l32i	a6, a1, 108
 6e3:	192172        	l32i	a7, a1, 100
 6e6:	02ed      	mov.n	a14, a2
 6e8:	03fd      	mov.n	a15, a3
 6ea:	8169      	s32i.n	a6, a1, 32
 6ec:	9179      	s32i.n	a7, a1, 36
 6ee:	ffd3c6        	j	641 <_dtoa_r+0x4fd>	6ee: R_XTENSA_SLOT0_OP	.text+0x641
 6f1:	b02320        	addx8	a2, a3, a2
 6f4:	1238      	l32i.n	a3, a2, 4
 6f6:	0228      	l32i.n	a2, a2, 0
 6f8:	0c5d      	mov.n	a5, a12
 6fa:	064d      	mov.n	a4, a6
 6fc:	000001        	l32r	a0, fffc06fc <_dtoa_r+0xfffc05b8>	6fc: R_XTENSA_SLOT0_OP	.literal+0x12c
	6fc: R_XTENSA_ASM_EXPAND	__muldf3
 6ff:	0000c0        	callx0	a0
 702:	b1c8      	l32i.n	a12, a1, 44
 704:	8129      	s32i.n	a2, a1, 32
 706:	8cda      	add.n	a8, a12, a13
 708:	9139      	s32i.n	a3, a1, 36
 70a:	186182        	s32i	a8, a1, 96
 70d:	203ff0        	or	a3, a15, a15
 710:	202ee0        	or	a2, a14, a14
 713:	000001        	l32r	a0, fffc0714 <_dtoa_r+0xfffc05d0>	713: R_XTENSA_SLOT0_OP	.literal+0x130
	713: R_XTENSA_ASM_EXPAND	__fixdfsi
 716:	0000c0        	callx0	a0
 719:	027d      	mov.n	a7, a2
 71b:	196172        	s32i	a7, a1, 100
 71e:	000001        	l32r	a0, fffc0720 <_dtoa_r+0xfffc05dc>	71e: R_XTENSA_SLOT0_OP	.literal+0x134
	71e: R_XTENSA_ASM_EXPAND	__floatsidf
 721:	0000c0        	callx0	a0
 724:	024d      	mov.n	a4, a2
 726:	205330        	or	a5, a3, a3
 729:	0e2d      	mov.n	a2, a14
 72b:	203ff0        	or	a3, a15, a15
 72e:	000001        	l32r	a0, fffc0730 <_dtoa_r+0xfffc05ec>	72e: R_XTENSA_SLOT0_OP	.literal+0x138
	72e: R_XTENSA_ASM_EXPAND	__subdf3
 731:	0000c0        	callx0	a0
 734:	192172        	l32i	a7, a1, 100
 737:	02ed      	mov.n	a14, a2
 739:	30c772        	addi	a7, a7, 48
 73c:	004c72        	s8i	a7, a12, 0
 73f:	182172        	l32i	a7, a1, 96
 742:	cc1b      	addi.n	a12, a12, 1
 744:	03fd      	mov.n	a15, a3
 746:	5b9c77        	bne	a12, a7, 7a5 <_dtoa_r+0x661>	746: R_XTENSA_SLOT0_OP	.text+0x7a5
 749:	b188      	l32i.n	a8, a1, 44
 74b:	000041        	l32r	a4, fffc074c <_dtoa_r+0xfffc0608>	74b: R_XTENSA_SLOT0_OP	.literal+0x88
 74e:	000051        	l32r	a5, fffc0750 <_dtoa_r+0xfffc060c>	74e: R_XTENSA_SLOT0_OP	.literal+0x8c
 751:	8128      	l32i.n	a2, a1, 32
 753:	9138      	l32i.n	a3, a1, 36
 755:	80c8d0        	add	a12, a8, a13
 758:	000001        	l32r	a0, fffc0758 <_dtoa_r+0xfffc0614>	758: R_XTENSA_SLOT0_OP	.literal+0x13c
	758: R_XTENSA_ASM_EXPAND	__adddf3
 75b:	0000c0        	callx0	a0
 75e:	024d      	mov.n	a4, a2
 760:	035d      	mov.n	a5, a3
 762:	0e2d      	mov.n	a2, a14
 764:	0f3d      	mov.n	a3, a15
 766:	000001        	l32r	a0, fffc0768 <_dtoa_r+0xfffc0624>	766: R_XTENSA_SLOT0_OP	.literal+0x140
	766: R_XTENSA_ASM_EXPAND	__gtdf2
 769:	0000c0        	callx0	a0
 76c:	0212a6        	blti	a2, 1, 772 <_dtoa_r+0x62e>	76c: R_XTENSA_SLOT0_OP	.text+0x772
 76f:	005946        	j	8d8 <_dtoa_r+0x794>	76f: R_XTENSA_SLOT0_OP	.text+0x8d8
 772:	8148      	l32i.n	a4, a1, 32
 774:	9158      	l32i.n	a5, a1, 36
 776:	000021        	l32r	a2, fffc0778 <_dtoa_r+0xfffc0634>	776: R_XTENSA_SLOT0_OP	.literal+0x88
 779:	000031        	l32r	a3, fffc077c <_dtoa_r+0xfffc0638>	779: R_XTENSA_SLOT0_OP	.literal+0x8c
 77c:	000001        	l32r	a0, fffc077c <_dtoa_r+0xfffc0638>	77c: R_XTENSA_SLOT0_OP	.literal+0x144
	77c: R_XTENSA_ASM_EXPAND	__subdf3
 77f:	0000c0        	callx0	a0
 782:	024d      	mov.n	a4, a2
 784:	035d      	mov.n	a5, a3
 786:	0e2d      	mov.n	a2, a14
 788:	0f3d      	mov.n	a3, a15
 78a:	000001        	l32r	a0, fffc078c <_dtoa_r+0xfffc0648>	78a: R_XTENSA_SLOT0_OP	.literal+0x148
	78a: R_XTENSA_ASM_EXPAND	__ltdf2
 78d:	0000c0        	callx0	a0
 790:	0242d6        	bgez	a2, 7b8 <_dtoa_r+0x674>	790: R_XTENSA_SLOT0_OP	.text+0x7b8
 793:	033c      	movi.n	a3, 48
 795:	2c0b      	addi.n	a2, a12, -1
 797:	000242        	l8ui	a4, a2, 0
 79a:	021437        	beq	a4, a3, 7a0 <_dtoa_r+0x65c>	79a: R_XTENSA_SLOT0_OP	.text+0x7a0
 79d:	01a006        	j	e21 <_dtoa_r+0xcdd>	79d: R_XTENSA_SLOT0_OP	.text+0xe21
 7a0:	02cd      	mov.n	a12, a2
 7a2:	fffbc6        	j	795 <_dtoa_r+0x651>	7a2: R_XTENSA_SLOT0_OP	.text+0x795
 7a5:	000041        	l32r	a4, fffc07a8 <_dtoa_r+0xfffc0664>	7a5: R_XTENSA_SLOT0_OP	.literal+0x68
 7a8:	000051        	l32r	a5, fffc07a8 <_dtoa_r+0xfffc0664>	7a8: R_XTENSA_SLOT0_OP	.literal+0x6c
 7ab:	000001        	l32r	a0, fffc07ac <_dtoa_r+0xfffc0668>	7ab: R_XTENSA_SLOT0_OP	.literal+0x14c
	7ab: R_XTENSA_ASM_EXPAND	__muldf3
 7ae:	0000c0        	callx0	a0
 7b1:	02ed      	mov.n	a14, a2
 7b3:	03fd      	mov.n	a15, a3
 7b5:	ffd506        	j	70d <_dtoa_r+0x5c9>	7b5: R_XTENSA_SLOT0_OP	.text+0x70d
 7b8:	162122        	l32i	a2, a1, 88
 7bb:	172132        	l32i	a3, a1, 92
 7be:	8129      	s32i.n	a2, a1, 32
 7c0:	9139      	s32i.n	a3, a1, 36
 7c2:	0128      	l32i.n	a2, a1, 0
 7c4:	15c296        	bltz	a2, 924 <_dtoa_r+0x7e0>	7c4: R_XTENSA_SLOT0_OP	.text+0x924
 7c7:	5178      	l32i.n	a7, a1, 20
 7c9:	e30c      	movi.n	a3, 14
 7cb:	02a377        	bge	a3, a7, 7d1 <_dtoa_r+0x68d>	7cb: R_XTENSA_SLOT0_OP	.text+0x7d1
 7ce:	005486        	j	924 <_dtoa_r+0x7e0>	7ce: R_XTENSA_SLOT0_OP	.text+0x924
 7d1:	000021        	l32r	a2, fffc07d4 <_dtoa_r+0xfffc0690>	7d1: R_XTENSA_SLOT0_OP	.literal+0x58
 7d4:	6188      	l32i.n	a8, a1, 24
 7d6:	b02720        	addx8	a2, a7, a2
 7d9:	02e8      	l32i.n	a14, a2, 0
 7db:	12f8      	l32i.n	a15, a2, 4
 7dd:	280b      	addi.n	a2, a8, -1
 7df:	202820        	or	a2, a8, a2
 7e2:	0302d6        	bgez	a2, 816 <_dtoa_r+0x6d2>	7e2: R_XTENSA_SLOT0_OP	.text+0x816
 7e5:	112182        	l32i	a8, a1, 68
 7e8:	02a8d6        	bgez	a8, 816 <_dtoa_r+0x6d2>	7e8: R_XTENSA_SLOT0_OP	.text+0x816
 7eb:	6178      	l32i.n	a7, a1, 24
 7ed:	369756        	bnez	a7, b5a <_dtoa_r+0xa16>	7ed: R_XTENSA_SLOT0_OP	.text+0xb5a
 7f0:	000041        	l32r	a4, fffc07f0 <_dtoa_r+0xfffc06ac>	7f0: R_XTENSA_SLOT0_OP	.literal+0x7c
 7f3:	000051        	l32r	a5, fffc07f4 <_dtoa_r+0xfffc06b0>	7f3: R_XTENSA_SLOT0_OP	.literal+0x80
 7f6:	0f3d      	mov.n	a3, a15
 7f8:	0e2d      	mov.n	a2, a14
 7fa:	000001        	l32r	a0, fffc07fc <_dtoa_r+0xfffc06b8>	7fa: R_XTENSA_SLOT0_OP	.literal+0x150
	7fa: R_XTENSA_ASM_EXPAND	__muldf3
 7fd:	0000c0        	callx0	a0
 800:	8148      	l32i.n	a4, a1, 32
 802:	9158      	l32i.n	a5, a1, 36
 804:	000001        	l32r	a0, fffc0804 <_dtoa_r+0xfffc06c0>	804: R_XTENSA_SLOT0_OP	.literal+0x154
	804: R_XTENSA_ASM_EXPAND	__gedf2
 807:	0000c0        	callx0	a0
 80a:	61d8      	l32i.n	a13, a1, 24
 80c:	0dfd      	mov.n	a15, a13
 80e:	34c2d6        	bgez	a2, b5e <_dtoa_r+0xa1a>	80e: R_XTENSA_SLOT0_OP	.text+0xb5e
 811:	00d7c6        	j	b74 <_dtoa_r+0xa30>	811: R_XTENSA_SLOT0_OP	.text+0xb74
 814:	00          	.byte 00
 815:	00          	.byte 00
 816:	8168      	l32i.n	a6, a1, 32
 818:	9178      	l32i.n	a7, a1, 36
 81a:	b1c8      	l32i.n	a12, a1, 44
 81c:	062d      	mov.n	a2, a6
 81e:	073d      	mov.n	a3, a7
 820:	0e4d      	mov.n	a4, a14
 822:	0f5d      	mov.n	a5, a15
 824:	1b6162        	s32i	a6, a1, 108
 827:	196172        	s32i	a7, a1, 100
 82a:	000001        	l32r	a0, fffc082c <_dtoa_r+0xfffc06e8>	82a: R_XTENSA_SLOT0_OP	.literal+0x158
	82a: R_XTENSA_ASM_EXPAND	__divdf3
 82d:	0000c0        	callx0	a0
 830:	000001        	l32r	a0, fffc0830 <_dtoa_r+0xfffc06ec>	830: R_XTENSA_SLOT0_OP	.literal+0x15c
	830: R_XTENSA_ASM_EXPAND	__fixdfsi
 833:	0000c0        	callx0	a0
 836:	02dd      	mov.n	a13, a2
 838:	000001        	l32r	a0, fffc0838 <_dtoa_r+0xfffc06f4>	838: R_XTENSA_SLOT0_OP	.literal+0x160
	838: R_XTENSA_ASM_EXPAND	__floatsidf
 83b:	0000c0        	callx0	a0
 83e:	0e4d      	mov.n	a4, a14
 840:	0f5d      	mov.n	a5, a15
 842:	000001        	l32r	a0, fffc0844 <_dtoa_r+0xfffc0700>	842: R_XTENSA_SLOT0_OP	.literal+0x164
	842: R_XTENSA_ASM_EXPAND	__muldf3
 845:	0000c0        	callx0	a0
 848:	192172        	l32i	a7, a1, 100
 84b:	1b2162        	l32i	a6, a1, 108
 84e:	024d      	mov.n	a4, a2
 850:	035d      	mov.n	a5, a3
 852:	062d      	mov.n	a2, a6
 854:	073d      	mov.n	a3, a7
 856:	000001        	l32r	a0, fffc0858 <_dtoa_r+0xfffc0714>	856: R_XTENSA_SLOT0_OP	.literal+0x168
	856: R_XTENSA_ASM_EXPAND	__subdf3
 859:	0000c0        	callx0	a0
 85c:	cc1b      	addi.n	a12, a12, 1
 85e:	b188      	l32i.n	a8, a1, 44
 860:	024d      	mov.n	a4, a2
 862:	035d      	mov.n	a5, a3
 864:	2c0b      	addi.n	a2, a12, -1
 866:	30cd32        	addi	a3, a13, 48
 869:	6178      	l32i.n	a7, a1, 24
 86b:	004232        	s8i	a3, a2, 0
 86e:	c02c80        	sub	a2, a12, a8
 871:	7d9277        	bne	a2, a7, 8f2 <_dtoa_r+0x7ae>	871: R_XTENSA_SLOT0_OP	.text+0x8f2
 874:	042d      	mov.n	a2, a4
 876:	053d      	mov.n	a3, a5
 878:	000001        	l32r	a0, fffc0878 <_dtoa_r+0xfffc0734>	878: R_XTENSA_SLOT0_OP	.literal+0x16c
	878: R_XTENSA_ASM_EXPAND	__adddf3
 87b:	0000c0        	callx0	a0
 87e:	026d      	mov.n	a6, a2
 880:	037d      	mov.n	a7, a3
 882:	204ee0        	or	a4, a14, a14
 885:	205ff0        	or	a5, a15, a15
 888:	1b6162        	s32i	a6, a1, 108
 88b:	196172        	s32i	a7, a1, 100
 88e:	000001        	l32r	a0, fffc0890 <_dtoa_r+0xfffc074c>	88e: R_XTENSA_SLOT0_OP	.literal+0x170
	88e: R_XTENSA_ASM_EXPAND	__gtdf2
 891:	0000c0        	callx0	a0
 894:	1b2162        	l32i	a6, a1, 108
 897:	192172        	l32i	a7, a1, 100
 89a:	3f12e6        	bgei	a2, 1, 8dd <_dtoa_r+0x799>	89a: R_XTENSA_SLOT0_OP	.text+0x8dd
 89d:	062d      	mov.n	a2, a6
 89f:	073d      	mov.n	a3, a7
 8a1:	0e4d      	mov.n	a4, a14
 8a3:	205ff0        	or	a5, a15, a15
 8a6:	000001        	l32r	a0, fffc08a8 <_dtoa_r+0xfffc0764>	8a6: R_XTENSA_SLOT0_OP	.literal+0x174
	8a6: R_XTENSA_ASM_EXPAND	__eqdf2
 8a9:	0000c0        	callx0	a0
 8ac:	576256        	bnez	a2, e26 <_dtoa_r+0xce2>	8ac: R_XTENSA_SLOT0_OP	.text+0xe26
 8af:	2aed07        	bbsi	a13, 0, 8dd <_dtoa_r+0x799>	8af: R_XTENSA_SLOT0_OP	.text+0x8dd
 8b2:	015c06        	j	e26 <_dtoa_r+0xce2>	8b2: R_XTENSA_SLOT0_OP	.text+0xe26
 8b5:	b188      	l32i.n	a8, a1, 44
 8b7:	041287        	beq	a2, a8, 8bf <_dtoa_r+0x77b>	8b7: R_XTENSA_SLOT0_OP	.text+0x8bf
 8ba:	02cd      	mov.n	a12, a2
 8bc:	0007c6        	j	8df <_dtoa_r+0x79b>	8bc: R_XTENSA_SLOT0_OP	.text+0x8df
 8bf:	5178      	l32i.n	a7, a1, 20
 8c1:	b188      	l32i.n	a8, a1, 44
 8c3:	771b      	addi.n	a7, a7, 1
 8c5:	033c      	movi.n	a3, 48
 8c7:	5179      	s32i.n	a7, a1, 20
 8c9:	004832        	s8i	a3, a8, 0
 8cc:	0005c6        	j	8e7 <_dtoa_r+0x7a3>	8cc: R_XTENSA_SLOT0_OP	.text+0x8e7
 8cf:	00          	.byte 00
 8d0:	122172        	l32i	a7, a1, 72
 8d3:	5179      	s32i.n	a7, a1, 20
 8d5:	000106        	j	8dd <_dtoa_r+0x799>	8d5: R_XTENSA_SLOT0_OP	.text+0x8dd
 8d8:	122182        	l32i	a8, a1, 72
 8db:	5189      	s32i.n	a8, a1, 20
 8dd:	933c      	movi.n	a3, 57
 8df:	2c0b      	addi.n	a2, a12, -1
 8e1:	000242        	l8ui	a4, a2, 0
 8e4:	cd1437        	beq	a4, a3, 8b5 <_dtoa_r+0x771>	8e4: R_XTENSA_SLOT0_OP	.text+0x8b5
 8e7:	000232        	l8ui	a3, a2, 0
 8ea:	331b      	addi.n	a3, a3, 1
 8ec:	004232        	s8i	a3, a2, 0
 8ef:	014cc6        	j	e26 <_dtoa_r+0xce2>	8ef: R_XTENSA_SLOT0_OP	.text+0xe26
 8f2:	042d      	mov.n	a2, a4
 8f4:	053d      	mov.n	a3, a5
 8f6:	000041        	l32r	a4, fffc08f8 <_dtoa_r+0xfffc07b4>	8f6: R_XTENSA_SLOT0_OP	.literal+0x68
 8f9:	000051        	l32r	a5, fffc08fc <_dtoa_r+0xfffc07b8>	8f9: R_XTENSA_SLOT0_OP	.literal+0x6c
 8fc:	000001        	l32r	a0, fffc08fc <_dtoa_r+0xfffc07b8>	8fc: R_XTENSA_SLOT0_OP	.literal+0x178
	8fc: R_XTENSA_ASM_EXPAND	__muldf3
 8ff:	0000c0        	callx0	a0
 902:	000041        	l32r	a4, fffc0904 <_dtoa_r+0xfffc07c0>	902: R_XTENSA_SLOT0_OP	.literal+0x24
 905:	000051        	l32r	a5, fffc0908 <_dtoa_r+0xfffc07c4>	905: R_XTENSA_SLOT0_OP	.literal+0x28
 908:	026d      	mov.n	a6, a2
 90a:	037d      	mov.n	a7, a3
 90c:	1b6162        	s32i	a6, a1, 108
 90f:	196172        	s32i	a7, a1, 100
 912:	000001        	l32r	a0, fffc0914 <_dtoa_r+0xfffc07d0>	912: R_XTENSA_SLOT0_OP	.literal+0x17c
	912: R_XTENSA_ASM_EXPAND	__eqdf2
 915:	0000c0        	callx0	a0
 918:	1b2162        	l32i	a6, a1, 108
 91b:	192172        	l32i	a7, a1, 100
 91e:	504216        	beqz	a2, e26 <_dtoa_r+0xce2>	91e: R_XTENSA_SLOT0_OP	.text+0xe26
 921:	ffbdc6        	j	81c <_dtoa_r+0x6d8>	921: R_XTENSA_SLOT0_OP	.text+0x81c
 924:	102172        	l32i	a7, a1, 64
 927:	067716        	beqz	a7, 992 <_dtoa_r+0x84e>	927: R_XTENSA_SLOT0_OP	.text+0x992
 92a:	d188      	l32i.n	a8, a1, 52
 92c:	1a28e6        	bgei	a8, 2, 94a <_dtoa_r+0x806>	92c: R_XTENSA_SLOT0_OP	.text+0x94a
 92f:	152172        	l32i	a7, a1, 84
 932:	678c      	beqz.n	a7, 93c <_dtoa_r+0x7f8>	932: R_XTENSA_SLOT0_OP	.text+0x93c
 934:	33a432        	movi	a3, 0x433
 937:	223a      	add.n	a2, a2, a3
 939:	000186        	j	943 <_dtoa_r+0x7ff>	939: R_XTENSA_SLOT0_OP	.text+0x943
 93c:	1128      	l32i.n	a2, a1, 4
 93e:	633c      	movi.n	a3, 54
 940:	c02320        	sub	a2, a3, a2
 943:	e1d8      	l32i.n	a13, a1, 56
 945:	c1c8      	l32i.n	a12, a1, 48
 947:	000ac6        	j	976 <_dtoa_r+0x832>	947: R_XTENSA_SLOT0_OP	.text+0x976
 94a:	6188      	l32i.n	a8, a1, 24
 94c:	e178      	l32i.n	a7, a1, 56
 94e:	d80b      	addi.n	a13, a8, -1
 950:	0527d7        	blt	a7, a13, 959 <_dtoa_r+0x815>	950: R_XTENSA_SLOT0_OP	.text+0x959
 953:	c0d7d0        	sub	a13, a7, a13
 956:	000406        	j	96a <_dtoa_r+0x826>	956: R_XTENSA_SLOT0_OP	.text+0x96a
 959:	e188      	l32i.n	a8, a1, 56
 95b:	132172        	l32i	a7, a1, 76
 95e:	c02d80        	sub	a2, a13, a8
 961:	772a      	add.n	a7, a7, a2
 963:	e1d9      	s32i.n	a13, a1, 56
 965:	136172        	s32i	a7, a1, 76
 968:	0d0c      	movi.n	a13, 0
 96a:	6128      	l32i.n	a2, a1, 24
 96c:	c1c8      	l32i.n	a12, a1, 48
 96e:	0042d6        	bgez	a2, 976 <_dtoa_r+0x832>	96e: R_XTENSA_SLOT0_OP	.text+0x976
 971:	c0cc20        	sub	a12, a12, a2
 974:	020c      	movi.n	a2, 0
 976:	c188      	l32i.n	a8, a1, 48
 978:	a178      	l32i.n	a7, a1, 40
 97a:	882a      	add.n	a8, a8, a2
 97c:	772a      	add.n	a7, a7, a2
 97e:	4128      	l32i.n	a2, a1, 16
 980:	130c      	movi.n	a3, 1
 982:	c189      	s32i.n	a8, a1, 48
 984:	a179      	s32i.n	a7, a1, 40
 986:	000001        	l32r	a0, fffc0988 <_dtoa_r+0xfffc0844>	986: R_XTENSA_SLOT0_OP	.literal+0x180
	986: R_XTENSA_ASM_EXPAND	__i2b
 989:	0000c0        	callx0	a0
 98c:	02fd      	mov.n	a15, a2
 98e:	0001c6        	j	999 <_dtoa_r+0x855>	98e: R_XTENSA_SLOT0_OP	.text+0x999
 991:	00          	.byte 00
 992:	e1d8      	l32i.n	a13, a1, 56
 994:	c1c8      	l32i.n	a12, a1, 48
 996:	1021f2        	l32i	a15, a1, 64
 999:	a188      	l32i.n	a8, a1, 40
 99b:	312f80        	srai	a2, a8, 31
 99e:	c02280        	sub	a2, a2, a8
 9a1:	0202d6        	bgez	a2, 9c5 <_dtoa_r+0x881>	9a1: R_XTENSA_SLOT0_OP	.text+0x9c5
 9a4:	312fc0        	srai	a2, a12, 31
 9a7:	c022c0        	sub	a2, a2, a12
 9aa:	0172d6        	bgez	a2, 9c5 <_dtoa_r+0x881>	9aa: R_XTENSA_SLOT0_OP	.text+0x9c5
 9ad:	082d      	mov.n	a2, a8
 9af:	01ac87        	bge	a12, a8, 9b4 <_dtoa_r+0x870>	9af: R_XTENSA_SLOT0_OP	.text+0x9b4
 9b2:	0c2d      	mov.n	a2, a12
 9b4:	c178      	l32i.n	a7, a1, 48
 9b6:	a188      	l32i.n	a8, a1, 40
 9b8:	c07720        	sub	a7, a7, a2
 9bb:	c08820        	sub	a8, a8, a2
 9be:	c179      	s32i.n	a7, a1, 48
 9c0:	c0cc20        	sub	a12, a12, a2
 9c3:	a189      	s32i.n	a8, a1, 40
 9c5:	e178      	l32i.n	a7, a1, 56
 9c7:	4d17a6        	blti	a7, 1, a18 <_dtoa_r+0x8d4>	9c7: R_XTENSA_SLOT0_OP	.text+0xa18
 9ca:	102182        	l32i	a8, a1, 64
 9cd:	98bc      	beqz.n	a8, a0a <_dtoa_r+0x8c6>	9cd: R_XTENSA_SLOT0_OP	.text+0xa0a
 9cf:	271da6        	blti	a13, 1, 9fa <_dtoa_r+0x8b6>	9cf: R_XTENSA_SLOT0_OP	.text+0x9fa
 9d2:	4128      	l32i.n	a2, a1, 16
 9d4:	0f3d      	mov.n	a3, a15
 9d6:	0d4d      	mov.n	a4, a13
 9d8:	000001        	l32r	a0, fffc09d8 <_dtoa_r+0xfffc0894>	9d8: R_XTENSA_SLOT0_OP	.literal+0x184
	9d8: R_XTENSA_ASM_EXPAND	__pow5mult
 9db:	0000c0        	callx0	a0
 9de:	02fd      	mov.n	a15, a2
 9e0:	7148      	l32i.n	a4, a1, 28
 9e2:	4128      	l32i.n	a2, a1, 16
 9e4:	0f3d      	mov.n	a3, a15
 9e6:	000001        	l32r	a0, fffc09e8 <_dtoa_r+0xfffc08a4>	9e6: R_XTENSA_SLOT0_OP	.literal+0x188
	9e6: R_XTENSA_ASM_EXPAND	__multiply
 9e9:	0000c0        	callx0	a0
 9ec:	02ed      	mov.n	a14, a2
 9ee:	7138      	l32i.n	a3, a1, 28
 9f0:	4128      	l32i.n	a2, a1, 16
 9f2:	000001        	l32r	a0, fffc09f4 <_dtoa_r+0xfffc08b0>	9f2: R_XTENSA_SLOT0_OP	.literal+0x18c
	9f2: R_XTENSA_ASM_EXPAND	_Bfree
 9f5:	0000c0        	callx0	a0
 9f8:	71e9      	s32i.n	a14, a1, 28
 9fa:	e178      	l32i.n	a7, a1, 56
 9fc:	4128      	l32i.n	a2, a1, 16
 9fe:	c047d0        	sub	a4, a7, a13
 a01:	7138      	l32i.n	a3, a1, 28
 a03:	94cc      	bnez.n	a4, a10 <_dtoa_r+0x8cc>	a03: R_XTENSA_SLOT0_OP	.text+0xa10
 a05:	0003c6        	j	a18 <_dtoa_r+0x8d4>	a05: R_XTENSA_SLOT0_OP	.text+0xa18
 a08:	00          	.byte 00
 a09:	00          	.byte 00
 a0a:	4128      	l32i.n	a2, a1, 16
 a0c:	7138      	l32i.n	a3, a1, 28
 a0e:	e148      	l32i.n	a4, a1, 56
 a10:	000001        	l32r	a0, fffc0a10 <_dtoa_r+0xfffc08cc>	a10: R_XTENSA_SLOT0_OP	.literal+0x190
	a10: R_XTENSA_ASM_EXPAND	__pow5mult
 a13:	0000c0        	callx0	a0
 a16:	7129      	s32i.n	a2, a1, 28
 a18:	4128      	l32i.n	a2, a1, 16
 a1a:	130c      	movi.n	a3, 1
 a1c:	000001        	l32r	a0, fffc0a1c <_dtoa_r+0xfffc08d8>	a1c: R_XTENSA_SLOT0_OP	.literal+0x194
	a1c: R_XTENSA_ASM_EXPAND	__i2b
 a1f:	0000c0        	callx0	a0
 a22:	132182        	l32i	a8, a1, 76
 a25:	02dd      	mov.n	a13, a2
 a27:	0d18a6        	blti	a8, 1, a38 <_dtoa_r+0x8f4>	a27: R_XTENSA_SLOT0_OP	.text+0xa38
 a2a:	4128      	l32i.n	a2, a1, 16
 a2c:	0d3d      	mov.n	a3, a13
 a2e:	084d      	mov.n	a4, a8
 a30:	000001        	l32r	a0, fffc0a30 <_dtoa_r+0xfffc08ec>	a30: R_XTENSA_SLOT0_OP	.literal+0x198
	a30: R_XTENSA_ASM_EXPAND	__pow5mult
 a33:	0000c0        	callx0	a0
 a36:	02dd      	mov.n	a13, a2
 a38:	070c      	movi.n	a7, 0
 a3a:	d188      	l32i.n	a8, a1, 52
 a3c:	e179      	s32i.n	a7, a1, 56
 a3e:	2228e6        	bgei	a8, 2, a64 <_dtoa_r+0x920>	a3e: R_XTENSA_SLOT0_OP	.text+0xa64
 a41:	8128      	l32i.n	a2, a1, 32
 a43:	1d9277        	bne	a2, a7, a64 <_dtoa_r+0x920>	a43: R_XTENSA_SLOT0_OP	.text+0xa64
 a46:	000021        	l32r	a2, fffc0a48 <_dtoa_r+0xfffc0904>	a46: R_XTENSA_SLOT0_OP	.literal+0x20
 a49:	9138      	l32i.n	a3, a1, 36
 a4b:	158237        	bany	a2, a3, a64 <_dtoa_r+0x920>	a4b: R_XTENSA_SLOT0_OP	.text+0xa64
 a4e:	000021        	l32r	a2, fffc0a50 <_dtoa_r+0xfffc090c>	a4e: R_XTENSA_SLOT0_OP	.literal+0x18
 a51:	0f0237        	bnone	a2, a3, a64 <_dtoa_r+0x920>	a51: R_XTENSA_SLOT0_OP	.text+0xa64
 a54:	c178      	l32i.n	a7, a1, 48
 a56:	a188      	l32i.n	a8, a1, 40
 a58:	771b      	addi.n	a7, a7, 1
 a5a:	c179      	s32i.n	a7, a1, 48
 a5c:	881b      	addi.n	a8, a8, 1
 a5e:	170c      	movi.n	a7, 1
 a60:	a189      	s32i.n	a8, a1, 40
 a62:	e179      	s32i.n	a7, a1, 56
 a64:	132182        	l32i	a8, a1, 76
 a67:	120c      	movi.n	a2, 1
 a69:	089c      	beqz.n	a8, a7d <_dtoa_r+0x939>	a69: R_XTENSA_SLOT0_OP	.text+0xa7d
 a6b:	4d28      	l32i.n	a2, a13, 16
 a6d:	a022d0        	addx4	a2, a2, a13
 a70:	4228      	l32i.n	a2, a2, 16
 a72:	000001        	l32r	a0, fffc0a74 <_dtoa_r+0xfffc0930>	a72: R_XTENSA_SLOT0_OP	.literal+0x19c
	a72: R_XTENSA_ASM_EXPAND	__hi0bits
 a75:	0000c0        	callx0	a0
 a78:	032c      	movi.n	a3, 32
 a7a:	c02320        	sub	a2, a3, a2
 a7d:	a178      	l32i.n	a7, a1, 40
 a7f:	227a      	add.n	a2, a2, a7
 a81:	442020        	extui	a2, a2, 0, 5
 a84:	12ac      	beqz.n	a2, aa9 <_dtoa_r+0x965>	a84: R_XTENSA_SLOT0_OP	.text+0xaa9
 a86:	032c      	movi.n	a3, 32
 a88:	c03320        	sub	a3, a3, a2
 a8b:	1553a6        	blti	a3, 5, aa4 <_dtoa_r+0x960>	a8b: R_XTENSA_SLOT0_OP	.text+0xaa4
 a8e:	c188      	l32i.n	a8, a1, 48
 a90:	c31c      	movi.n	a3, 28
 a92:	c02320        	sub	a2, a3, a2
 a95:	882a      	add.n	a8, a8, a2
 a97:	772a      	add.n	a7, a7, a2
 a99:	c189      	s32i.n	a8, a1, 48
 a9b:	cc2a      	add.n	a12, a12, a2
 a9d:	a179      	s32i.n	a7, a1, 40
 a9f:	0005c6        	j	aba <_dtoa_r+0x976>	a9f: R_XTENSA_SLOT0_OP	.text+0xaba
 aa2:	00          	.byte 00
 aa3:	00          	.byte 00
 aa4:	124326        	beqi	a3, 4, aba <_dtoa_r+0x976>	aa4: R_XTENSA_SLOT0_OP	.text+0xaba
 aa7:	032d      	mov.n	a2, a3
 aa9:	c178      	l32i.n	a7, a1, 48
 aab:	a188      	l32i.n	a8, a1, 40
 aad:	1cc222        	addi	a2, a2, 28
 ab0:	772a      	add.n	a7, a7, a2
 ab2:	882a      	add.n	a8, a8, a2
 ab4:	c179      	s32i.n	a7, a1, 48
 ab6:	cc2a      	add.n	a12, a12, a2
 ab8:	a189      	s32i.n	a8, a1, 40
 aba:	c178      	l32i.n	a7, a1, 48
 abc:	1117a6        	blti	a7, 1, ad1 <_dtoa_r+0x98d>	abc: R_XTENSA_SLOT0_OP	.text+0xad1
 abf:	042122        	l32i	a2, a1, 16
 ac2:	072132        	l32i	a3, a1, 28
 ac5:	204770        	or	a4, a7, a7
 ac8:	000001        	l32r	a0, fffc0ac8 <_dtoa_r+0xfffc0984>	ac8: R_XTENSA_SLOT0_OP	.literal+0x1a0
	ac8: R_XTENSA_ASM_EXPAND	__lshift
 acb:	0000c0        	callx0	a0
 ace:	076122        	s32i	a2, a1, 28
 ad1:	a188      	l32i.n	a8, a1, 40
 ad3:	0f18a6        	blti	a8, 1, ae6 <_dtoa_r+0x9a2>	ad3: R_XTENSA_SLOT0_OP	.text+0xae6
 ad6:	4128      	l32i.n	a2, a1, 16
 ad8:	203dd0        	or	a3, a13, a13
 adb:	204880        	or	a4, a8, a8
 ade:	000001        	l32r	a0, fffc0ae0 <_dtoa_r+0xfffc099c>	ade: R_XTENSA_SLOT0_OP	.literal+0x1a4
	ade: R_XTENSA_ASM_EXPAND	__lshift
 ae1:	0000c0        	callx0	a0
 ae4:	02dd      	mov.n	a13, a2
 ae6:	142172        	l32i	a7, a1, 80
 ae9:	c7bc      	beqz.n	a7, b29 <_dtoa_r+0x9e5>	ae9: R_XTENSA_SLOT0_OP	.text+0xb29
 aeb:	7128      	l32i.n	a2, a1, 28
 aed:	0d3d      	mov.n	a3, a13
 aef:	000001        	l32r	a0, fffc0af0 <_dtoa_r+0xfffc09ac>	aef: R_XTENSA_SLOT0_OP	.literal+0x1a8
	aef: R_XTENSA_ASM_EXPAND	__mcmp
 af2:	0000c0        	callx0	a0
 af5:	0302d6        	bgez	a2, b29 <_dtoa_r+0x9e5>	af5: R_XTENSA_SLOT0_OP	.text+0xb29
 af8:	5188      	l32i.n	a8, a1, 20
 afa:	4128      	l32i.n	a2, a1, 16
 afc:	7138      	l32i.n	a3, a1, 28
 afe:	880b      	addi.n	a8, a8, -1
 b00:	a40c      	movi.n	a4, 10
 b02:	050c      	movi.n	a5, 0
 b04:	5189      	s32i.n	a8, a1, 20
 b06:	000001        	l32r	a0, fffc0b08 <_dtoa_r+0xfffc09c4>	b06: R_XTENSA_SLOT0_OP	.literal+0x1ac
	b06: R_XTENSA_ASM_EXPAND	__multadd
 b09:	0000c0        	callx0	a0
 b0c:	f178      	l32i.n	a7, a1, 60
 b0e:	102182        	l32i	a8, a1, 64
 b11:	7129      	s32i.n	a2, a1, 28
 b13:	6179      	s32i.n	a7, a1, 24
 b15:	089c      	beqz.n	a8, b29 <_dtoa_r+0x9e5>	b15: R_XTENSA_SLOT0_OP	.text+0xb29
 b17:	4128      	l32i.n	a2, a1, 16
 b19:	0f3d      	mov.n	a3, a15
 b1b:	a40c      	movi.n	a4, 10
 b1d:	00a052        	movi	a5, 0
 b20:	000001        	l32r	a0, fffc0b20 <_dtoa_r+0xfffc09dc>	b20: R_XTENSA_SLOT0_OP	.literal+0x1b0
	b20: R_XTENSA_ASM_EXPAND	__multadd
 b23:	0000c0        	callx0	a0
 b26:	20f220        	or	a15, a2, a2
 b29:	6178      	l32i.n	a7, a1, 24
 b2b:	270b      	addi.n	a2, a7, -1
 b2d:	202720        	or	a2, a7, a2
 b30:	0592d6        	bgez	a2, b8d <_dtoa_r+0xa49>	b30: R_XTENSA_SLOT0_OP	.text+0xb8d
 b33:	d188      	l32i.n	a8, a1, 52
 b35:	5438a6        	blti	a8, 3, b8d <_dtoa_r+0xa49>	b35: R_XTENSA_SLOT0_OP	.text+0xb8d
 b38:	27ec      	bnez.n	a7, b5e <_dtoa_r+0xa1a>	b38: R_XTENSA_SLOT0_OP	.text+0xb5e
 b3a:	4128      	l32i.n	a2, a1, 16
 b3c:	0d3d      	mov.n	a3, a13
 b3e:	540c      	movi.n	a4, 5
 b40:	075d      	mov.n	a5, a7
 b42:	000001        	l32r	a0, fffc0b44 <_dtoa_r+0xfffc0a00>	b42: R_XTENSA_SLOT0_OP	.literal+0x1b4
	b42: R_XTENSA_ASM_EXPAND	__multadd
 b45:	0000c0        	callx0	a0
 b48:	02dd      	mov.n	a13, a2
 b4a:	7128      	l32i.n	a2, a1, 28
 b4c:	0d3d      	mov.n	a3, a13
 b4e:	000001        	l32r	a0, fffc0b50 <_dtoa_r+0xfffc0a0c>	b4e: R_XTENSA_SLOT0_OP	.literal+0x1b8
	b4e: R_XTENSA_ASM_EXPAND	__mcmp
 b51:	0000c0        	callx0	a0
 b54:	1c12e6        	bgei	a2, 1, b74 <_dtoa_r+0xa30>	b54: R_XTENSA_SLOT0_OP	.text+0xb74
 b57:	0000c6        	j	b5e <_dtoa_r+0xa1a>	b57: R_XTENSA_SLOT0_OP	.text+0xb5e
 b5a:	0d0c      	movi.n	a13, 0
 b5c:	0dfd      	mov.n	a15, a13
 b5e:	112182        	l32i	a8, a1, 68
 b61:	f27c      	movi.n	a2, -1
 b63:	302280        	xor	a2, a2, a8
 b66:	5129      	s32i.n	a2, a1, 20
 b68:	b1c8      	l32i.n	a12, a1, 44
 b6a:	000546        	j	b83 <_dtoa_r+0xa3f>	b6a: R_XTENSA_SLOT0_OP	.text+0xb83
 b6d:	122172        	l32i	a7, a1, 72
 b70:	0dfd      	mov.n	a15, a13
 b72:	5179      	s32i.n	a7, a1, 20
 b74:	5178      	l32i.n	a7, a1, 20
 b76:	b188      	l32i.n	a8, a1, 44
 b78:	123c      	movi.n	a2, 49
 b7a:	771b      	addi.n	a7, a7, 1
 b7c:	c81b      	addi.n	a12, a8, 1
 b7e:	004822        	s8i	a2, a8, 0
 b81:	5179      	s32i.n	a7, a1, 20
 b83:	0fed      	mov.n	a14, a15
 b85:	0f0c      	movi.n	a15, 0
 b87:	0098c6        	j	dee <_dtoa_r+0xcaa>	b87: R_XTENSA_SLOT0_OP	.text+0xdee
 b8a:	00          	.byte 00
 b8b:	00          	.byte 00
 b8c:	00          	.byte 00
 b8d:	102182        	l32i	a8, a1, 64
 b90:	1b1816        	beqz	a8, d45 <_dtoa_r+0xc01>	b90: R_XTENSA_SLOT0_OP	.text+0xd45
 b93:	0d1ca6        	blti	a12, 1, ba4 <_dtoa_r+0xa60>	b93: R_XTENSA_SLOT0_OP	.text+0xba4
 b96:	4128      	l32i.n	a2, a1, 16
 b98:	0f3d      	mov.n	a3, a15
 b9a:	0c4d      	mov.n	a4, a12
 b9c:	000001        	l32r	a0, fffc0b9c <_dtoa_r+0xfffc0a58>	b9c: R_XTENSA_SLOT0_OP	.literal+0x1bc
	b9c: R_XTENSA_ASM_EXPAND	__lshift
 b9f:	0000c0        	callx0	a0
 ba2:	02fd      	mov.n	a15, a2
 ba4:	e178      	l32i.n	a7, a1, 56
 ba6:	0fed      	mov.n	a14, a15
 ba8:	a7ac      	beqz.n	a7, bd6 <_dtoa_r+0xa92>	ba8: R_XTENSA_SLOT0_OP	.text+0xbd6
 baa:	1f38      	l32i.n	a3, a15, 4
 bac:	042122        	l32i	a2, a1, 16
 baf:	000001        	l32r	a0, fffc0bb0 <_dtoa_r+0xfffc0a6c>	baf: R_XTENSA_SLOT0_OP	.literal+0x1c0
	baf: R_XTENSA_ASM_EXPAND	_Balloc
 bb2:	0000c0        	callx0	a0
 bb5:	4f48      	l32i.n	a4, a15, 16
 bb7:	02cd      	mov.n	a12, a2
 bb9:	442b      	addi.n	a4, a4, 2
 bbb:	3fcb      	addi.n	a3, a15, 12
 bbd:	1144e0        	slli	a4, a4, 2
 bc0:	22cb      	addi.n	a2, a2, 12
 bc2:	000001        	l32r	a0, fffc0bc4 <_dtoa_r+0xfffc0a80>	bc2: R_XTENSA_SLOT0_OP	.literal+0x1c4
	bc2: R_XTENSA_ASM_EXPAND	memcpy
 bc5:	0000c0        	callx0	a0
 bc8:	4128      	l32i.n	a2, a1, 16
 bca:	0c3d      	mov.n	a3, a12
 bcc:	140c      	movi.n	a4, 1
 bce:	000001        	l32r	a0, fffc0bd0 <_dtoa_r+0xfffc0a8c>	bce: R_XTENSA_SLOT0_OP	.literal+0x1c8
	bce: R_XTENSA_ASM_EXPAND	__lshift
 bd1:	0000c0        	callx0	a0
 bd4:	02ed      	mov.n	a14, a2
 bd6:	b168      	l32i.n	a6, a1, 44
 bd8:	8178      	l32i.n	a7, a1, 32
 bda:	6188      	l32i.n	a8, a1, 24
 bdc:	c60b      	addi.n	a12, a6, -1
 bde:	cc8a      	add.n	a12, a12, a8
 be0:	047070        	extui	a7, a7, 0, 1
 be3:	a1c9      	s32i.n	a12, a1, 40
 be5:	8179      	s32i.n	a7, a1, 32
 be7:	7128      	l32i.n	a2, a1, 28
 be9:	0d3d      	mov.n	a3, a13
 beb:	1b6162        	s32i	a6, a1, 108
 bee:	ff4105        	call0	0 <quorem>	bee: R_XTENSA_SLOT0_OP	.text
 bf1:	30c252        	addi	a5, a2, 48
 bf4:	02cd      	mov.n	a12, a2
 bf6:	072122        	l32i	a2, a1, 28
 bf9:	0f3d      	mov.n	a3, a15
 bfb:	1a6152        	s32i	a5, a1, 104
 bfe:	000001        	l32r	a0, fffc0c00 <_dtoa_r+0xfffc0abc>	bfe: R_XTENSA_SLOT0_OP	.literal+0x1cc
	bfe: R_XTENSA_ASM_EXPAND	__mcmp
 c01:	0000c0        	callx0	a0
 c04:	6129      	s32i.n	a2, a1, 24
 c06:	4128      	l32i.n	a2, a1, 16
 c08:	0d3d      	mov.n	a3, a13
 c0a:	0e4d      	mov.n	a4, a14
 c0c:	000001        	l32r	a0, fffc0c0c <_dtoa_r+0xfffc0ac8>	c0c: R_XTENSA_SLOT0_OP	.literal+0x1d0
	c0c: R_XTENSA_ASM_EXPAND	__mdiff
 c0f:	0000c0        	callx0	a0
 c12:	027d      	mov.n	a7, a2
 c14:	3228      	l32i.n	a2, a2, 12
 c16:	1a2152        	l32i	a5, a1, 104
 c19:	1b2162        	l32i	a6, a1, 108
 c1c:	a2dc      	bnez.n	a2, c3a <_dtoa_r+0xaf6>	c1c: R_XTENSA_SLOT0_OP	.text+0xc3a
 c1e:	7128      	l32i.n	a2, a1, 28
 c20:	203770        	or	a3, a7, a7
 c23:	196172        	s32i	a7, a1, 100
 c26:	000001        	l32r	a0, fffc0c28 <_dtoa_r+0xfffc0ae4>	c26: R_XTENSA_SLOT0_OP	.literal+0x1d4
	c26: R_XTENSA_ASM_EXPAND	__mcmp
 c29:	0000c0        	callx0	a0
 c2c:	024d      	mov.n	a4, a2
 c2e:	1a2152        	l32i	a5, a1, 104
 c31:	1b2162        	l32i	a6, a1, 108
 c34:	192172        	l32i	a7, a1, 100
 c37:	000046        	j	c3c <_dtoa_r+0xaf8>	c37: R_XTENSA_SLOT0_OP	.text+0xc3c
 c3a:	140c      	movi.n	a4, 1
 c3c:	042122        	l32i	a2, a1, 16
 c3f:	203770        	or	a3, a7, a7
 c42:	196142        	s32i	a4, a1, 100
 c45:	1a6152        	s32i	a5, a1, 104
 c48:	1b6162        	s32i	a6, a1, 108
 c4b:	000001        	l32r	a0, fffc0c4c <_dtoa_r+0xfffc0b08>	c4b: R_XTENSA_SLOT0_OP	.literal+0x1d8
	c4b: R_XTENSA_ASM_EXPAND	_Bfree
 c4e:	0000c0        	callx0	a0
 c51:	192142        	l32i	a4, a1, 100
 c54:	d188      	l32i.n	a8, a1, 52
 c56:	1b2162        	l32i	a6, a1, 108
 c59:	203480        	or	a3, a4, a8
 c5c:	261b      	addi.n	a2, a6, 1
 c5e:	1a2152        	l32i	a5, a1, 104
 c61:	43dc      	bnez.n	a3, c79 <_dtoa_r+0xb35>	c61: R_XTENSA_SLOT0_OP	.text+0xc79
 c63:	8178      	l32i.n	a7, a1, 32
 c65:	07dc      	bnez.n	a7, c79 <_dtoa_r+0xb35>	c65: R_XTENSA_SLOT0_OP	.text+0xc79
 c67:	933c      	movi.n	a3, 57
 c69:	6f1537        	beq	a5, a3, cdc <_dtoa_r+0xb98>	c69: R_XTENSA_SLOT0_OP	.text+0xcdc
 c6c:	6188      	l32i.n	a8, a1, 24
 c6e:	0218a6        	blti	a8, 1, c74 <_dtoa_r+0xb30>	c6e: R_XTENSA_SLOT0_OP	.text+0xc74
 c71:	31cc52        	addi	a5, a12, 49
 c74:	02cd      	mov.n	a12, a2
 c76:	001486        	j	ccc <_dtoa_r+0xb88>	c76: R_XTENSA_SLOT0_OP	.text+0xccc
 c79:	6178      	l32i.n	a7, a1, 24
 c7b:	0057d6        	bgez	a7, c84 <_dtoa_r+0xb40>	c7b: R_XTENSA_SLOT0_OP	.text+0xc84
 c7e:	1414e6        	bgei	a4, 1, c96 <_dtoa_r+0xb52>	c7e: R_XTENSA_SLOT0_OP	.text+0xc96
 c81:	001146        	j	cca <_dtoa_r+0xb86>	c81: R_XTENSA_SLOT0_OP	.text+0xcca
 c84:	6188      	l32i.n	a8, a1, 24
 c86:	d178      	l32i.n	a7, a1, 52
 c88:	203870        	or	a3, a8, a7
 c8b:	045356        	bnez	a3, cd4 <_dtoa_r+0xb90>	c8b: R_XTENSA_SLOT0_OP	.text+0xcd4
 c8e:	8188      	l32i.n	a8, a1, 32
 c90:	040856        	bnez	a8, cd4 <_dtoa_r+0xb90>	c90: R_XTENSA_SLOT0_OP	.text+0xcd4
 c93:	fff9c6        	j	c7e <_dtoa_r+0xb3a>	c93: R_XTENSA_SLOT0_OP	.text+0xc7e
 c96:	7138      	l32i.n	a3, a1, 28
 c98:	4128      	l32i.n	a2, a1, 16
 c9a:	140c      	movi.n	a4, 1
 c9c:	1a6152        	s32i	a5, a1, 104
 c9f:	1b6162        	s32i	a6, a1, 108
 ca2:	000001        	l32r	a0, fffc0ca4 <_dtoa_r+0xfffc0b60>	ca2: R_XTENSA_SLOT0_OP	.literal+0x1dc
	ca2: R_XTENSA_ASM_EXPAND	__lshift
 ca5:	0000c0        	callx0	a0
 ca8:	203dd0        	or	a3, a13, a13
 cab:	076122        	s32i	a2, a1, 28
 cae:	000001        	l32r	a0, fffc0cb0 <_dtoa_r+0xfffc0b6c>	cae: R_XTENSA_SLOT0_OP	.literal+0x1e0
	cae: R_XTENSA_ASM_EXPAND	__mcmp
 cb1:	0000c0        	callx0	a0
 cb4:	1a2152        	l32i	a5, a1, 104
 cb7:	1b2162        	l32i	a6, a1, 108
 cba:	0412e6        	bgei	a2, 1, cc2 <_dtoa_r+0xb7e>	cba: R_XTENSA_SLOT0_OP	.text+0xcc2
 cbd:	92cc      	bnez.n	a2, cca <_dtoa_r+0xb86>	cbd: R_XTENSA_SLOT0_OP	.text+0xcca
 cbf:	076507        	bbci	a5, 0, cca <_dtoa_r+0xb86>	cbf: R_XTENSA_SLOT0_OP	.text+0xcca
 cc2:	923c      	movi.n	a2, 57
 cc4:	141527        	beq	a5, a2, cdc <_dtoa_r+0xb98>	cc4: R_XTENSA_SLOT0_OP	.text+0xcdc
 cc7:	31cc52        	addi	a5, a12, 49
 cca:	c61b      	addi.n	a12, a6, 1
 ccc:	004652        	s8i	a5, a6, 0
 ccf:	0046c6        	j	dee <_dtoa_r+0xcaa>	ccf: R_XTENSA_SLOT0_OP	.text+0xdee
 cd2:	00          	.byte 00
 cd3:	00          	.byte 00
 cd4:	1614a6        	blti	a4, 1, cee <_dtoa_r+0xbaa>	cd4: R_XTENSA_SLOT0_OP	.text+0xcee
 cd7:	933c      	movi.n	a3, 57
 cd9:	099537        	bne	a5, a3, ce6 <_dtoa_r+0xba2>	cd9: R_XTENSA_SLOT0_OP	.text+0xce6
 cdc:	923c      	movi.n	a2, 57
 cde:	c61b      	addi.n	a12, a6, 1
 ce0:	004622        	s8i	a2, a6, 0
 ce3:	003946        	j	dcc <_dtoa_r+0xc88>	ce3: R_XTENSA_SLOT0_OP	.text+0xdcc
 ce6:	02cd      	mov.n	a12, a2
 ce8:	551b      	addi.n	a5, a5, 1
 cea:	fff786        	j	ccc <_dtoa_r+0xb88>	cea: R_XTENSA_SLOT0_OP	.text+0xccc
 ced:	00          	.byte 00
 cee:	761b      	addi.n	a7, a6, 1
 cf0:	a188      	l32i.n	a8, a1, 40
 cf2:	6179      	s32i.n	a7, a1, 24
 cf4:	004652        	s8i	a5, a6, 0
 cf7:	07cd      	mov.n	a12, a7
 cf9:	029687        	bne	a6, a8, cff <_dtoa_r+0xbbb>	cf9: R_XTENSA_SLOT0_OP	.text+0xcff
 cfc:	002246        	j	d89 <_dtoa_r+0xc45>	cfc: R_XTENSA_SLOT0_OP	.text+0xd89
 cff:	7138      	l32i.n	a3, a1, 28
 d01:	4128      	l32i.n	a2, a1, 16
 d03:	a40c      	movi.n	a4, 10
 d05:	050c      	movi.n	a5, 0
 d07:	000001        	l32r	a0, fffc0d08 <_dtoa_r+0xfffc0bc4>	d07: R_XTENSA_SLOT0_OP	.literal+0x1e4
	d07: R_XTENSA_ASM_EXPAND	__multadd
 d0a:	0000c0        	callx0	a0
 d0d:	7129      	s32i.n	a2, a1, 28
 d0f:	0f3d      	mov.n	a3, a15
 d11:	4128      	l32i.n	a2, a1, 16
 d13:	a40c      	movi.n	a4, 10
 d15:	050c      	movi.n	a5, 0
 d17:	0d9fe7        	bne	a15, a14, d28 <_dtoa_r+0xbe4>	d17: R_XTENSA_SLOT0_OP	.text+0xd28
 d1a:	000001        	l32r	a0, fffc0d1c <_dtoa_r+0xfffc0bd8>	d1a: R_XTENSA_SLOT0_OP	.literal+0x1e8
	d1a: R_XTENSA_ASM_EXPAND	__multadd
 d1d:	0000c0        	callx0	a0
 d20:	02fd      	mov.n	a15, a2
 d22:	02ed      	mov.n	a14, a2
 d24:	000606        	j	d40 <_dtoa_r+0xbfc>	d24: R_XTENSA_SLOT0_OP	.text+0xd40
 d27:	00          	.byte 00
 d28:	000001        	l32r	a0, fffc0d28 <_dtoa_r+0xfffc0be4>	d28: R_XTENSA_SLOT0_OP	.literal+0x1ec
	d28: R_XTENSA_ASM_EXPAND	__multadd
 d2b:	0000c0        	callx0	a0
 d2e:	02fd      	mov.n	a15, a2
 d30:	4128      	l32i.n	a2, a1, 16
 d32:	0e3d      	mov.n	a3, a14
 d34:	a40c      	movi.n	a4, 10
 d36:	050c      	movi.n	a5, 0
 d38:	000001        	l32r	a0, fffc0d38 <_dtoa_r+0xfffc0bf4>	d38: R_XTENSA_SLOT0_OP	.literal+0x1f0
	d38: R_XTENSA_ASM_EXPAND	__multadd
 d3b:	0000c0        	callx0	a0
 d3e:	02ed      	mov.n	a14, a2
 d40:	6168      	l32i.n	a6, a1, 24
 d42:	ffa846        	j	be7 <_dtoa_r+0xaa3>	d42: R_XTENSA_SLOT0_OP	.text+0xbe7
 d45:	1021c2        	l32i	a12, a1, 64
 d48:	7128      	l32i.n	a2, a1, 28
 d4a:	203dd0        	or	a3, a13, a13
 d4d:	ff2b05        	call0	0 <quorem>	d4d: R_XTENSA_SLOT0_OP	.text
 d50:	b178      	l32i.n	a7, a1, 44
 d52:	30c252        	addi	a5, a2, 48
 d55:	6188      	l32i.n	a8, a1, 24
 d57:	27ca      	add.n	a2, a7, a12
 d59:	004252        	s8i	a5, a2, 0
 d5c:	cc1b      	addi.n	a12, a12, 1
 d5e:	122c87        	blt	a12, a8, d74 <_dtoa_r+0xc30>	d5e: R_XTENSA_SLOT0_OP	.text+0xd74
 d61:	08cd      	mov.n	a12, a8
 d63:	0118e6        	bgei	a8, 1, d68 <_dtoa_r+0xc24>	d63: R_XTENSA_SLOT0_OP	.text+0xd68
 d66:	1c0c      	movi.n	a12, 1
 d68:	b178      	l32i.n	a7, a1, 44
 d6a:	0fed      	mov.n	a14, a15
 d6c:	c7ca      	add.n	a12, a7, a12
 d6e:	0f0c      	movi.n	a15, 0
 d70:	000546        	j	d89 <_dtoa_r+0xc45>	d70: R_XTENSA_SLOT0_OP	.text+0xd89
 d73:	00          	.byte 00
 d74:	4128      	l32i.n	a2, a1, 16
 d76:	7138      	l32i.n	a3, a1, 28
 d78:	a40c      	movi.n	a4, 10
 d7a:	050c      	movi.n	a5, 0
 d7c:	000001        	l32r	a0, fffc0d7c <_dtoa_r+0xfffc0c38>	d7c: R_XTENSA_SLOT0_OP	.literal+0x1f4
	d7c: R_XTENSA_ASM_EXPAND	__multadd
 d7f:	0000c0        	callx0	a0
 d82:	7129      	s32i.n	a2, a1, 28
 d84:	fff006        	j	d48 <_dtoa_r+0xc04>	d84: R_XTENSA_SLOT0_OP	.text+0xd48
 d87:	00          	.byte 00
 d88:	00          	.byte 00
 d89:	7138      	l32i.n	a3, a1, 28
 d8b:	4128      	l32i.n	a2, a1, 16
 d8d:	140c      	movi.n	a4, 1
 d8f:	1a6152        	s32i	a5, a1, 104
 d92:	000001        	l32r	a0, fffc0d94 <_dtoa_r+0xfffc0c50>	d92: R_XTENSA_SLOT0_OP	.literal+0x1f8
	d92: R_XTENSA_ASM_EXPAND	__lshift
 d95:	0000c0        	callx0	a0
 d98:	203dd0        	or	a3, a13, a13
 d9b:	076122        	s32i	a2, a1, 28
 d9e:	000001        	l32r	a0, fffc0da0 <_dtoa_r+0xfffc0c5c>	d9e: R_XTENSA_SLOT0_OP	.literal+0x1fc
	d9e: R_XTENSA_ASM_EXPAND	__mcmp
 da1:	0000c0        	callx0	a0
 da4:	1a2152        	l32i	a5, a1, 104
 da7:	2112e6        	bgei	a2, 1, dcc <_dtoa_r+0xc88>	da7: R_XTENSA_SLOT0_OP	.text+0xdcc
 daa:	02fc      	bnez.n	a2, dde <_dtoa_r+0xc9a>	daa: R_XTENSA_SLOT0_OP	.text+0xdde
 dac:	1ce507        	bbsi	a5, 0, dcc <_dtoa_r+0xc88>	dac: R_XTENSA_SLOT0_OP	.text+0xdcc
 daf:	000ac6        	j	dde <_dtoa_r+0xc9a>	daf: R_XTENSA_SLOT0_OP	.text+0xdde
 db2:	b188      	l32i.n	a8, a1, 44
 db4:	041287        	beq	a2, a8, dbc <_dtoa_r+0xc78>	db4: R_XTENSA_SLOT0_OP	.text+0xdbc
 db7:	02cd      	mov.n	a12, a2
 db9:	000446        	j	dce <_dtoa_r+0xc8a>	db9: R_XTENSA_SLOT0_OP	.text+0xdce
 dbc:	5178      	l32i.n	a7, a1, 20
 dbe:	b188      	l32i.n	a8, a1, 44
 dc0:	771b      	addi.n	a7, a7, 1
 dc2:	123c      	movi.n	a2, 49
 dc4:	5179      	s32i.n	a7, a1, 20
 dc6:	004822        	s8i	a2, a8, 0
 dc9:	000846        	j	dee <_dtoa_r+0xcaa>	dc9: R_XTENSA_SLOT0_OP	.text+0xdee
 dcc:	943c      	movi.n	a4, 57
 dce:	2c0b      	addi.n	a2, a12, -1
 dd0:	000232        	l8ui	a3, a2, 0
 dd3:	db1347        	beq	a3, a4, db2 <_dtoa_r+0xc6e>	dd3: R_XTENSA_SLOT0_OP	.text+0xdb2
 dd6:	331b      	addi.n	a3, a3, 1
 dd8:	004232        	s8i	a3, a2, 0
 ddb:	0003c6        	j	dee <_dtoa_r+0xcaa>	ddb: R_XTENSA_SLOT0_OP	.text+0xdee
 dde:	033c      	movi.n	a3, 48
 de0:	2c0b      	addi.n	a2, a12, -1
 de2:	000242        	l8ui	a4, a2, 0
 de5:	059437        	bne	a4, a3, dee <_dtoa_r+0xcaa>	de5: R_XTENSA_SLOT0_OP	.text+0xdee
 de8:	02cd      	mov.n	a12, a2
 dea:	fffc86        	j	de0 <_dtoa_r+0xc9c>	dea: R_XTENSA_SLOT0_OP	.text+0xde0
 ded:	00          	.byte 00
 dee:	4128      	l32i.n	a2, a1, 16
 df0:	203dd0        	or	a3, a13, a13
 df3:	000001        	l32r	a0, fffc0df4 <_dtoa_r+0xfffc0cb0>	df3: R_XTENSA_SLOT0_OP	.literal+0x200
	df3: R_XTENSA_ASM_EXPAND	_Bfree
 df6:	0000c0        	callx0	a0
 df9:	9eac      	beqz.n	a14, e26 <_dtoa_r+0xce2>	df9: R_XTENSA_SLOT0_OP	.text+0xe26
 dfb:	0b1fe7        	beq	a15, a14, e0a <_dtoa_r+0xcc6>	dfb: R_XTENSA_SLOT0_OP	.text+0xe0a
 dfe:	8f8c      	beqz.n	a15, e0a <_dtoa_r+0xcc6>	dfe: R_XTENSA_SLOT0_OP	.text+0xe0a
 e00:	4128      	l32i.n	a2, a1, 16
 e02:	0f3d      	mov.n	a3, a15
 e04:	000001        	l32r	a0, fffc0e04 <_dtoa_r+0xfffc0cc0>	e04: R_XTENSA_SLOT0_OP	.literal+0x204
	e04: R_XTENSA_ASM_EXPAND	_Bfree
 e07:	0000c0        	callx0	a0
 e0a:	4128      	l32i.n	a2, a1, 16
 e0c:	0e3d      	mov.n	a3, a14
 e0e:	000001        	l32r	a0, fffc0e10 <_dtoa_r+0xfffc0ccc>	e0e: R_XTENSA_SLOT0_OP	.literal+0x208
	e0e: R_XTENSA_ASM_EXPAND	_Bfree
 e11:	0000c0        	callx0	a0
 e14:	000386        	j	e26 <_dtoa_r+0xce2>	e14: R_XTENSA_SLOT0_OP	.text+0xe26
 e17:	00          	.byte 00
 e18:	122172        	l32i	a7, a1, 72
 e1b:	5179      	s32i.n	a7, a1, 20
 e1d:	000146        	j	e26 <_dtoa_r+0xce2>	e1d: R_XTENSA_SLOT0_OP	.text+0xe26
 e20:	00          	.byte 00
 e21:	122182        	l32i	a8, a1, 72
 e24:	5189      	s32i.n	a8, a1, 20
 e26:	4128      	l32i.n	a2, a1, 16
 e28:	7138      	l32i.n	a3, a1, 28
 e2a:	000001        	l32r	a0, fffc0e2c <_dtoa_r+0xfffc0ce8>	e2a: R_XTENSA_SLOT0_OP	.literal+0x20c
	e2a: R_XTENSA_ASM_EXPAND	_Bfree
 e2d:	0000c0        	callx0	a0
 e30:	5178      	l32i.n	a7, a1, 20
 e32:	020c      	movi.n	a2, 0
 e34:	242182        	l32i	a8, a1, 144
 e37:	004c22        	s8i	a2, a12, 0
 e3a:	271b      	addi.n	a2, a7, 1
 e3c:	0829      	s32i.n	a2, a8, 0
 e3e:	262182        	l32i	a8, a1, 152
 e41:	188c      	beqz.n	a8, e46 <_dtoa_r+0xd02>	e41: R_XTENSA_SLOT0_OP	.text+0xe46
 e43:	0068c2        	s32i	a12, a8, 0
 e46:	b128      	l32i.n	a2, a1, 44
 e48:	232102        	l32i	a0, a1, 140
 e4b:	90a092        	movi	a9, 144
 e4e:	2221c2        	l32i	a12, a1, 136
 e51:	2121d2        	l32i	a13, a1, 132
 e54:	2021e2        	l32i	a14, a1, 128
 e57:	1f21f2        	l32i	a15, a1, 124
 e5a:	119a      	add.n	a1, a1, a9
 e5c:	f00d      	ret.n
